
FreeBoardPLC.elf:     file format elf32-avr

Sections:
Idx Name          Size      VMA       LMA       File off  Algn
  0 .data         00000474  00800200  00009190  00009224  2**0
                  CONTENTS, ALLOC, LOAD, DATA
  1 .text         00009190  00000000  00000000  00000094  2**1
                  CONTENTS, ALLOC, LOAD, READONLY, CODE
  2 .bss          00000b2c  00800674  00800674  00009698  2**0
                  ALLOC
  3 .stab         00013c20  00000000  00000000  00009698  2**2
                  CONTENTS, READONLY, DEBUGGING
  4 .stabstr      0001e9ad  00000000  00000000  0001d2b8  2**0
                  CONTENTS, READONLY, DEBUGGING
  5 .comment      00000011  00000000  00000000  0003bc65  2**0
                  CONTENTS, READONLY

Disassembly of section .text:

00000000 <__vectors>:
       0:	0c 94 4a 01 	jmp	0x294	; 0x294 <__dtors_end>
       4:	0c 94 0d 0a 	jmp	0x141a	; 0x141a <__vector_1>
       8:	0c 94 3f 0a 	jmp	0x147e	; 0x147e <__vector_2>
       c:	0c 94 71 0a 	jmp	0x14e2	; 0x14e2 <__vector_3>
      10:	0c 94 a3 0a 	jmp	0x1546	; 0x1546 <__vector_4>
      14:	0c 94 d5 0a 	jmp	0x15aa	; 0x15aa <__vector_5>
      18:	0c 94 07 0b 	jmp	0x160e	; 0x160e <__vector_6>
      1c:	0c 94 39 0b 	jmp	0x1672	; 0x1672 <__vector_7>
      20:	0c 94 6b 0b 	jmp	0x16d6	; 0x16d6 <__vector_8>
      24:	0c 94 7b 01 	jmp	0x2f6	; 0x2f6 <__bad_interrupt>
      28:	0c 94 7b 01 	jmp	0x2f6	; 0x2f6 <__bad_interrupt>
      2c:	0c 94 7b 01 	jmp	0x2f6	; 0x2f6 <__bad_interrupt>
      30:	0c 94 7b 01 	jmp	0x2f6	; 0x2f6 <__bad_interrupt>
      34:	0c 94 7b 01 	jmp	0x2f6	; 0x2f6 <__bad_interrupt>
      38:	0c 94 7b 01 	jmp	0x2f6	; 0x2f6 <__bad_interrupt>
      3c:	0c 94 9b 20 	jmp	0x4136	; 0x4136 <__vector_15>
      40:	0c 94 7b 01 	jmp	0x2f6	; 0x2f6 <__bad_interrupt>
      44:	0c 94 7b 01 	jmp	0x2f6	; 0x2f6 <__bad_interrupt>
      48:	0c 94 7b 01 	jmp	0x2f6	; 0x2f6 <__bad_interrupt>
      4c:	0c 94 7b 01 	jmp	0x2f6	; 0x2f6 <__bad_interrupt>
      50:	0c 94 7b 01 	jmp	0x2f6	; 0x2f6 <__bad_interrupt>
      54:	0c 94 7b 01 	jmp	0x2f6	; 0x2f6 <__bad_interrupt>
      58:	0c 94 7b 01 	jmp	0x2f6	; 0x2f6 <__bad_interrupt>
      5c:	0c 94 9d 15 	jmp	0x2b3a	; 0x2b3a <__vector_23>
      60:	0c 94 7b 01 	jmp	0x2f6	; 0x2f6 <__bad_interrupt>
      64:	0c 94 66 02 	jmp	0x4cc	; 0x4cc <__vector_25>
      68:	0c 94 5a 03 	jmp	0x6b4	; 0x6b4 <__vector_26>
      6c:	0c 94 7b 01 	jmp	0x2f6	; 0x2f6 <__bad_interrupt>
      70:	0c 94 7b 01 	jmp	0x2f6	; 0x2f6 <__bad_interrupt>
      74:	0c 94 7b 01 	jmp	0x2f6	; 0x2f6 <__bad_interrupt>
      78:	0c 94 7b 01 	jmp	0x2f6	; 0x2f6 <__bad_interrupt>
      7c:	0c 94 7b 01 	jmp	0x2f6	; 0x2f6 <__bad_interrupt>
      80:	0c 94 7b 01 	jmp	0x2f6	; 0x2f6 <__bad_interrupt>
      84:	0c 94 7b 01 	jmp	0x2f6	; 0x2f6 <__bad_interrupt>
      88:	0c 94 7b 01 	jmp	0x2f6	; 0x2f6 <__bad_interrupt>
      8c:	0c 94 7b 01 	jmp	0x2f6	; 0x2f6 <__bad_interrupt>
      90:	0c 94 9b 02 	jmp	0x536	; 0x536 <__vector_36>
      94:	0c 94 9a 03 	jmp	0x734	; 0x734 <__vector_37>
      98:	0c 94 7b 01 	jmp	0x2f6	; 0x2f6 <__bad_interrupt>
      9c:	0c 94 7b 01 	jmp	0x2f6	; 0x2f6 <__bad_interrupt>
      a0:	0c 94 7b 01 	jmp	0x2f6	; 0x2f6 <__bad_interrupt>
      a4:	0c 94 7b 01 	jmp	0x2f6	; 0x2f6 <__bad_interrupt>
      a8:	0c 94 7b 01 	jmp	0x2f6	; 0x2f6 <__bad_interrupt>
      ac:	0c 94 7b 01 	jmp	0x2f6	; 0x2f6 <__bad_interrupt>
      b0:	0c 94 7b 01 	jmp	0x2f6	; 0x2f6 <__bad_interrupt>
      b4:	0c 94 7b 01 	jmp	0x2f6	; 0x2f6 <__bad_interrupt>
      b8:	0c 94 27 22 	jmp	0x444e	; 0x444e <__vector_46>
      bc:	0c 94 92 21 	jmp	0x4324	; 0x4324 <__vector_47>
      c0:	0c 94 8a 22 	jmp	0x4514	; 0x4514 <__vector_48>
      c4:	0c 94 7b 01 	jmp	0x2f6	; 0x2f6 <__bad_interrupt>
      c8:	0c 94 7b 01 	jmp	0x2f6	; 0x2f6 <__bad_interrupt>
      cc:	0c 94 d0 02 	jmp	0x5a0	; 0x5a0 <__vector_51>
      d0:	0c 94 da 03 	jmp	0x7b4	; 0x7b4 <__vector_52>
      d4:	0c 94 7b 01 	jmp	0x2f6	; 0x2f6 <__bad_interrupt>
      d8:	0c 94 05 03 	jmp	0x60a	; 0x60a <__vector_54>
      dc:	0c 94 1a 04 	jmp	0x834	; 0x834 <__vector_55>
      e0:	0c 94 7b 01 	jmp	0x2f6	; 0x2f6 <__bad_interrupt>
      e4:	08 4a       	sbci	r16, 0xA8	; 168
      e6:	d7 3b       	cpi	r29, 0xB7	; 183
      e8:	3b ce       	rjmp	.-906    	; 0xfffffd60 <__eeprom_end+0xff7efd60>
      ea:	01 6e       	ori	r16, 0xE1	; 225
      ec:	84 bc       	out	0x24, r8	; 36
      ee:	bf fd       	.word	0xfdbf	; ????
      f0:	c1 2f       	mov	r28, r17
      f2:	3d 6c       	ori	r19, 0xCD	; 205
      f4:	74 31       	cpi	r23, 0x14	; 20
      f6:	9a bd       	out	0x2a, r25	; 42
      f8:	56 83       	std	Z+6, r21	; 0x06
      fa:	3d da       	rcall	.-2950   	; 0xfffff576 <__eeprom_end+0xff7ef576>
      fc:	3d 00       	.word	0x003d	; ????
      fe:	c7 7f       	andi	r28, 0xF7	; 247
     100:	11 be       	out	0x31, r1	; 49
     102:	d9 e4       	ldi	r29, 0x49	; 73
     104:	bb 4c       	sbci	r27, 0xCB	; 203
     106:	3e 91       	ld	r19, -X
     108:	6b aa       	std	Y+51, r6	; 0x33
     10a:	aa be       	out	0x3a, r10	; 58
     10c:	00 00       	nop
     10e:	00 80       	ld	r0, Z
     110:	3f 05       	cpc	r19, r15
     112:	a8 4c       	sbci	r26, 0xC8	; 200
     114:	cd b2       	in	r12, 0x1d	; 29
     116:	d4 4e       	sbci	r29, 0xE4	; 228
     118:	b9 38       	cpi	r27, 0x89	; 137
     11a:	36 a9       	ldd	r19, Z+54	; 0x36
     11c:	02 0c       	add	r0, r2
     11e:	50 b9       	out	0x00, r21	; 0
     120:	91 86       	std	Z+9, r9	; 0x09
     122:	88 08       	sbc	r8, r8
     124:	3c a6       	std	Y+44, r3	; 0x2c
     126:	aa aa       	std	Y+50, r10	; 0x32
     128:	2a be       	out	0x3a, r2	; 58
     12a:	00 00       	nop
     12c:	00 80       	ld	r0, Z
     12e:	3f 00       	.word	0x003f	; ????

0000012f <digital_pin_to_timer_PGM>:
     12f:	00 00 09 0a 02 08 0b 0c 0d 07 06 03 04 01 00 00     ................
	...
     15b:	11 10 0f 00 00 00 00 00 00 00 00 00 00 00 00 00     ................
	...

00000175 <digital_pin_to_bit_mask_PGM>:
     175:	01 02 10 20 20 08 08 10 20 40 10 20 40 80 02 01     ...  ... @. @...
     185:	02 01 08 04 02 01 01 02 04 08 10 20 40 80 80 40     ........... @..@
     195:	20 10 08 04 02 01 80 04 02 01 80 40 20 10 08 04      ..........@ ...
     1a5:	02 01 08 04 02 01 01 02 04 08 10 20 40 80 01 02     ........... @...
     1b5:	04 08 10 20 40 80                                   ... @.

000001bb <digital_pin_to_port_PGM>:
     1bb:	05 05 05 05 07 05 08 08 08 08 02 02 02 02 0a 0a     ................
     1cb:	08 08 04 04 04 04 01 01 01 01 01 01 01 01 03 03     ................
     1db:	03 03 03 03 03 03 04 07 07 07 0c 0c 0c 0c 0c 0c     ................
     1eb:	0c 0c 02 02 02 02 06 06 06 06 06 06 06 06 0b 0b     ................
     1fb:	0b 0b 0b 0b 0b 0b                                   ......

00000201 <port_to_input_PGM>:
     201:	00 00 20 00 23 00 26 00 29 00 2c 00 2f 00 32 00     .. .#.&.).,./.2.
     211:	00 01 00 00 03 01 06 01 09 01                       ..........

0000021b <port_to_output_PGM>:
     21b:	00 00 22 00 25 00 28 00 2b 00 2e 00 31 00 34 00     ..".%.(.+...1.4.
     22b:	02 01 00 00 05 01 08 01 0b 01                       ..........

00000235 <port_to_mode_PGM>:
     235:	00 00 21 00 24 00 27 00 2a 00 2d 00 30 00 33 00     ..!.$.'.*.-.0.3.
     245:	01 01 00 00 04 01 07 01 0a 01                       ..........

0000024f <pstr_inf>:
     24f:	49 4e 46                                            INF

00000252 <pstr_inity>:
     252:	49 4e 49 54 59                                      INITY

00000257 <pstr_nan>:
     257:	4e 41 4e                                            NAN

0000025a <pwr_p10>:
     25a:	00 00 20 41 00 00 c8 42 00 40 1c 46 20 bc be 4c     .. A...B.@.F ..L
     26a:	ca 1b 0e 5a ae c5 9d 74                             ...Z...t

00000272 <pwr_m10>:
     272:	cd cc cc 3d 0a d7 23 3c 17 b7 d1 38 77 cc 2b 32     ...=..#<...8w.+2
     282:	95 95 e6 24 1f b1 4f 0a                             ...$..O.

0000028a <__ctors_start>:
     28a:	82 33       	cpi	r24, 0x32	; 50
     28c:	c5 37       	cpi	r28, 0x75	; 117
     28e:	a3 3f       	cpi	r26, 0xF3	; 243
     290:	ca 3f       	cpi	r28, 0xFA	; 250

00000292 <__ctors_end>:
     292:	e8 33       	cpi	r30, 0x38	; 56

00000294 <__dtors_end>:
     294:	11 24       	eor	r1, r1
     296:	1f be       	out	0x3f, r1	; 63
     298:	cf ef       	ldi	r28, 0xFF	; 255
     29a:	d1 e2       	ldi	r29, 0x21	; 33
     29c:	de bf       	out	0x3e, r29	; 62
     29e:	cd bf       	out	0x3d, r28	; 61
     2a0:	00 e0       	ldi	r16, 0x00	; 0
     2a2:	0c bf       	out	0x3c, r16	; 60

000002a4 <__do_copy_data>:
     2a4:	16 e0       	ldi	r17, 0x06	; 6
     2a6:	a0 e0       	ldi	r26, 0x00	; 0
     2a8:	b2 e0       	ldi	r27, 0x02	; 2
     2aa:	e0 e9       	ldi	r30, 0x90	; 144
     2ac:	f1 e9       	ldi	r31, 0x91	; 145
     2ae:	00 e0       	ldi	r16, 0x00	; 0
     2b0:	0b bf       	out	0x3b, r16	; 59
     2b2:	02 c0       	rjmp	.+4      	; 0x2b8 <__do_copy_data+0x14>
     2b4:	07 90       	elpm	r0, Z+
     2b6:	0d 92       	st	X+, r0
     2b8:	a4 37       	cpi	r26, 0x74	; 116
     2ba:	b1 07       	cpc	r27, r17
     2bc:	d9 f7       	brne	.-10     	; 0x2b4 <__do_copy_data+0x10>

000002be <__do_clear_bss>:
     2be:	11 e1       	ldi	r17, 0x11	; 17
     2c0:	a4 e7       	ldi	r26, 0x74	; 116
     2c2:	b6 e0       	ldi	r27, 0x06	; 6
     2c4:	01 c0       	rjmp	.+2      	; 0x2c8 <.do_clear_bss_start>

000002c6 <.do_clear_bss_loop>:
     2c6:	1d 92       	st	X+, r1

000002c8 <.do_clear_bss_start>:
     2c8:	a0 3a       	cpi	r26, 0xA0	; 160
     2ca:	b1 07       	cpc	r27, r17
     2cc:	e1 f7       	brne	.-8      	; 0x2c6 <.do_clear_bss_loop>

000002ce <__do_global_ctors>:
     2ce:	12 e0       	ldi	r17, 0x02	; 2
     2d0:	c2 e9       	ldi	r28, 0x92	; 146
     2d2:	d2 e0       	ldi	r29, 0x02	; 2
     2d4:	00 e0       	ldi	r16, 0x00	; 0
     2d6:	06 c0       	rjmp	.+12     	; 0x2e4 <__do_global_ctors+0x16>
     2d8:	22 97       	sbiw	r28, 0x02	; 2
     2da:	01 09       	sbc	r16, r1
     2dc:	fe 01       	movw	r30, r28
     2de:	0b bf       	out	0x3b, r16	; 59
     2e0:	0e 94 5b 45 	call	0x8ab6	; 0x8ab6 <__tablejump_elpm__>
     2e4:	ca 38       	cpi	r28, 0x8A	; 138
     2e6:	d1 07       	cpc	r29, r17
     2e8:	80 e0       	ldi	r24, 0x00	; 0
     2ea:	08 07       	cpc	r16, r24
     2ec:	a9 f7       	brne	.-22     	; 0x2d8 <__do_global_ctors+0xa>
     2ee:	0e 94 16 41 	call	0x822c	; 0x822c <main>
     2f2:	0c 94 b6 48 	jmp	0x916c	; 0x916c <__do_global_dtors>

000002f6 <__bad_interrupt>:
     2f6:	0c 94 00 00 	jmp	0	; 0x0 <__vectors>

000002fa <_ZN14HardwareSerial9availableEv>:
     2fa:	fc 01       	movw	r30, r24
     2fc:	84 85       	ldd	r24, Z+12	; 0x0c
     2fe:	95 85       	ldd	r25, Z+13	; 0x0d
     300:	fc 01       	movw	r30, r24
     302:	e0 5c       	subi	r30, 0xC0	; 192
     304:	ff 4f       	sbci	r31, 0xFF	; 255
     306:	20 81       	ld	r18, Z
     308:	31 81       	ldd	r19, Z+1	; 0x01
     30a:	fc 01       	movw	r30, r24
     30c:	ee 5b       	subi	r30, 0xBE	; 190
     30e:	ff 4f       	sbci	r31, 0xFF	; 255
     310:	80 81       	ld	r24, Z
     312:	91 81       	ldd	r25, Z+1	; 0x01
     314:	28 1b       	sub	r18, r24
     316:	39 0b       	sbc	r19, r25
     318:	2f 73       	andi	r18, 0x3F	; 63
     31a:	33 27       	eor	r19, r19
     31c:	c9 01       	movw	r24, r18
     31e:	08 95       	ret

00000320 <_ZN14HardwareSerial4peekEv>:
     320:	fc 01       	movw	r30, r24
     322:	84 85       	ldd	r24, Z+12	; 0x0c
     324:	95 85       	ldd	r25, Z+13	; 0x0d
     326:	fc 01       	movw	r30, r24
     328:	e0 5c       	subi	r30, 0xC0	; 192
     32a:	ff 4f       	sbci	r31, 0xFF	; 255
     32c:	40 81       	ld	r20, Z
     32e:	51 81       	ldd	r21, Z+1	; 0x01
     330:	fc 01       	movw	r30, r24
     332:	ee 5b       	subi	r30, 0xBE	; 190
     334:	ff 4f       	sbci	r31, 0xFF	; 255
     336:	20 81       	ld	r18, Z
     338:	31 81       	ldd	r19, Z+1	; 0x01
     33a:	42 17       	cp	r20, r18
     33c:	53 07       	cpc	r21, r19
     33e:	41 f0       	breq	.+16     	; 0x350 <_ZN14HardwareSerial4peekEv+0x30>
     340:	01 90       	ld	r0, Z+
     342:	f0 81       	ld	r31, Z
     344:	e0 2d       	mov	r30, r0
     346:	e8 0f       	add	r30, r24
     348:	f9 1f       	adc	r31, r25
     34a:	20 81       	ld	r18, Z
     34c:	30 e0       	ldi	r19, 0x00	; 0
     34e:	02 c0       	rjmp	.+4      	; 0x354 <_ZN14HardwareSerial4peekEv+0x34>
     350:	2f ef       	ldi	r18, 0xFF	; 255
     352:	3f ef       	ldi	r19, 0xFF	; 255
     354:	c9 01       	movw	r24, r18
     356:	08 95       	ret

00000358 <_ZN14HardwareSerial4readEv>:
     358:	fc 01       	movw	r30, r24
     35a:	84 85       	ldd	r24, Z+12	; 0x0c
     35c:	95 85       	ldd	r25, Z+13	; 0x0d
     35e:	fc 01       	movw	r30, r24
     360:	e0 5c       	subi	r30, 0xC0	; 192
     362:	ff 4f       	sbci	r31, 0xFF	; 255
     364:	40 81       	ld	r20, Z
     366:	51 81       	ldd	r21, Z+1	; 0x01
     368:	fc 01       	movw	r30, r24
     36a:	ee 5b       	subi	r30, 0xBE	; 190
     36c:	ff 4f       	sbci	r31, 0xFF	; 255
     36e:	20 81       	ld	r18, Z
     370:	31 81       	ldd	r19, Z+1	; 0x01
     372:	42 17       	cp	r20, r18
     374:	53 07       	cpc	r21, r19
     376:	71 f0       	breq	.+28     	; 0x394 <_ZN14HardwareSerial4readEv+0x3c>
     378:	a0 81       	ld	r26, Z
     37a:	b1 81       	ldd	r27, Z+1	; 0x01
     37c:	a8 0f       	add	r26, r24
     37e:	b9 1f       	adc	r27, r25
     380:	2c 91       	ld	r18, X
     382:	80 81       	ld	r24, Z
     384:	91 81       	ldd	r25, Z+1	; 0x01
     386:	01 96       	adiw	r24, 0x01	; 1
     388:	8f 73       	andi	r24, 0x3F	; 63
     38a:	99 27       	eor	r25, r25
     38c:	91 83       	std	Z+1, r25	; 0x01
     38e:	80 83       	st	Z, r24
     390:	30 e0       	ldi	r19, 0x00	; 0
     392:	02 c0       	rjmp	.+4      	; 0x398 <_ZN14HardwareSerial4readEv+0x40>
     394:	2f ef       	ldi	r18, 0xFF	; 255
     396:	3f ef       	ldi	r19, 0xFF	; 255
     398:	c9 01       	movw	r24, r18
     39a:	08 95       	ret

0000039c <_ZN14HardwareSerial5flushEv>:
     39c:	fc 01       	movw	r30, r24
     39e:	81 a1       	ldd	r24, Z+33	; 0x21
     3a0:	88 23       	and	r24, r24
     3a2:	29 f0       	breq	.+10     	; 0x3ae <_ZN14HardwareSerial5flushEv+0x12>
     3a4:	a4 89       	ldd	r26, Z+20	; 0x14
     3a6:	b5 89       	ldd	r27, Z+21	; 0x15
     3a8:	8c 91       	ld	r24, X
     3aa:	86 ff       	sbrs	r24, 6
     3ac:	fb cf       	rjmp	.-10     	; 0x3a4 <_ZN14HardwareSerial5flushEv+0x8>
     3ae:	11 a2       	std	Z+33, r1	; 0x21
     3b0:	08 95       	ret

000003b2 <_ZN14HardwareSerial5writeEh>:
     3b2:	cf 93       	push	r28
     3b4:	df 93       	push	r29
     3b6:	fc 01       	movw	r30, r24
     3b8:	26 85       	ldd	r18, Z+14	; 0x0e
     3ba:	37 85       	ldd	r19, Z+15	; 0x0f
     3bc:	d9 01       	movw	r26, r18
     3be:	a0 5c       	subi	r26, 0xC0	; 192
     3c0:	bf 4f       	sbci	r27, 0xFF	; 255
     3c2:	8d 91       	ld	r24, X+
     3c4:	9c 91       	ld	r25, X
     3c6:	11 97       	sbiw	r26, 0x01	; 1
     3c8:	01 96       	adiw	r24, 0x01	; 1
     3ca:	8f 73       	andi	r24, 0x3F	; 63
     3cc:	99 27       	eor	r25, r25
     3ce:	e9 01       	movw	r28, r18
     3d0:	ce 5b       	subi	r28, 0xBE	; 190
     3d2:	df 4f       	sbci	r29, 0xFF	; 255
     3d4:	48 81       	ld	r20, Y
     3d6:	59 81       	ldd	r21, Y+1	; 0x01
     3d8:	84 17       	cp	r24, r20
     3da:	95 07       	cpc	r25, r21
     3dc:	d9 f3       	breq	.-10     	; 0x3d4 <_ZN14HardwareSerial5writeEh+0x22>
     3de:	0d 90       	ld	r0, X+
     3e0:	bc 91       	ld	r27, X
     3e2:	a0 2d       	mov	r26, r0
     3e4:	a2 0f       	add	r26, r18
     3e6:	b3 1f       	adc	r27, r19
     3e8:	6c 93       	st	X, r22
     3ea:	a6 85       	ldd	r26, Z+14	; 0x0e
     3ec:	b7 85       	ldd	r27, Z+15	; 0x0f
     3ee:	a0 5c       	subi	r26, 0xC0	; 192
     3f0:	bf 4f       	sbci	r27, 0xFF	; 255
     3f2:	11 96       	adiw	r26, 0x01	; 1
     3f4:	9c 93       	st	X, r25
     3f6:	8e 93       	st	-X, r24
     3f8:	a6 89       	ldd	r26, Z+22	; 0x16
     3fa:	b7 89       	ldd	r27, Z+23	; 0x17
     3fc:	2c 91       	ld	r18, X
     3fe:	81 e0       	ldi	r24, 0x01	; 1
     400:	90 e0       	ldi	r25, 0x00	; 0
     402:	07 8c       	ldd	r0, Z+31	; 0x1f
     404:	02 c0       	rjmp	.+4      	; 0x40a <_ZN14HardwareSerial5writeEh+0x58>
     406:	88 0f       	add	r24, r24
     408:	99 1f       	adc	r25, r25
     40a:	0a 94       	dec	r0
     40c:	e2 f7       	brpl	.-8      	; 0x406 <_ZN14HardwareSerial5writeEh+0x54>
     40e:	28 2b       	or	r18, r24
     410:	2c 93       	st	X, r18
     412:	81 e0       	ldi	r24, 0x01	; 1
     414:	81 a3       	std	Z+33, r24	; 0x21
     416:	04 88       	ldd	r0, Z+20	; 0x14
     418:	f5 89       	ldd	r31, Z+21	; 0x15
     41a:	e0 2d       	mov	r30, r0
     41c:	80 81       	ld	r24, Z
     41e:	80 64       	ori	r24, 0x40	; 64
     420:	80 83       	st	Z, r24
     422:	81 e0       	ldi	r24, 0x01	; 1
     424:	90 e0       	ldi	r25, 0x00	; 0
     426:	df 91       	pop	r29
     428:	cf 91       	pop	r28
     42a:	08 95       	ret

0000042c <_ZN14HardwareSerial6write9Ehb>:
     42c:	ef 92       	push	r14
     42e:	ff 92       	push	r15
     430:	0f 93       	push	r16
     432:	1f 93       	push	r17
     434:	cf 93       	push	r28
     436:	df 93       	push	r29
     438:	fc 01       	movw	r30, r24
     43a:	26 85       	ldd	r18, Z+14	; 0x0e
     43c:	37 85       	ldd	r19, Z+15	; 0x0f
     43e:	d9 01       	movw	r26, r18
     440:	a0 5c       	subi	r26, 0xC0	; 192
     442:	bf 4f       	sbci	r27, 0xFF	; 255
     444:	8d 91       	ld	r24, X+
     446:	9c 91       	ld	r25, X
     448:	11 97       	sbiw	r26, 0x01	; 1
     44a:	01 96       	adiw	r24, 0x01	; 1
     44c:	8f 73       	andi	r24, 0x3F	; 63
     44e:	99 27       	eor	r25, r25
     450:	89 01       	movw	r16, r18
     452:	0e 5b       	subi	r16, 0xBE	; 190
     454:	1f 4f       	sbci	r17, 0xFF	; 255
     456:	e8 01       	movw	r28, r16
     458:	e8 80       	ld	r14, Y
     45a:	f9 80       	ldd	r15, Y+1	; 0x01
     45c:	8e 15       	cp	r24, r14
     45e:	9f 05       	cpc	r25, r15
     460:	d1 f3       	breq	.-12     	; 0x456 <_ZN14HardwareSerial6write9Ehb+0x2a>
     462:	0d 90       	ld	r0, X+
     464:	bc 91       	ld	r27, X
     466:	a0 2d       	mov	r26, r0
     468:	a2 0f       	add	r26, r18
     46a:	b3 1f       	adc	r27, r19
     46c:	6c 93       	st	X, r22
     46e:	a6 85       	ldd	r26, Z+14	; 0x0e
     470:	b7 85       	ldd	r27, Z+15	; 0x0f
     472:	a0 5c       	subi	r26, 0xC0	; 192
     474:	bf 4f       	sbci	r27, 0xFF	; 255
     476:	11 96       	adiw	r26, 0x01	; 1
     478:	9c 93       	st	X, r25
     47a:	8e 93       	st	-X, r24
     47c:	a6 89       	ldd	r26, Z+22	; 0x16
     47e:	b7 89       	ldd	r27, Z+23	; 0x17
     480:	8c 91       	ld	r24, X
     482:	44 23       	and	r20, r20
     484:	11 f0       	breq	.+4      	; 0x48a <_ZN14HardwareSerial6write9Ehb+0x5e>
     486:	81 60       	ori	r24, 0x01	; 1
     488:	01 c0       	rjmp	.+2      	; 0x48c <_ZN14HardwareSerial6write9Ehb+0x60>
     48a:	8e 7f       	andi	r24, 0xFE	; 254
     48c:	8c 93       	st	X, r24
     48e:	a6 89       	ldd	r26, Z+22	; 0x16
     490:	b7 89       	ldd	r27, Z+23	; 0x17
     492:	2c 91       	ld	r18, X
     494:	81 e0       	ldi	r24, 0x01	; 1
     496:	90 e0       	ldi	r25, 0x00	; 0
     498:	07 8c       	ldd	r0, Z+31	; 0x1f
     49a:	02 c0       	rjmp	.+4      	; 0x4a0 <_ZN14HardwareSerial6write9Ehb+0x74>
     49c:	88 0f       	add	r24, r24
     49e:	99 1f       	adc	r25, r25
     4a0:	0a 94       	dec	r0
     4a2:	e2 f7       	brpl	.-8      	; 0x49c <_ZN14HardwareSerial6write9Ehb+0x70>
     4a4:	28 2b       	or	r18, r24
     4a6:	2c 93       	st	X, r18
     4a8:	81 e0       	ldi	r24, 0x01	; 1
     4aa:	81 a3       	std	Z+33, r24	; 0x21
     4ac:	04 88       	ldd	r0, Z+20	; 0x14
     4ae:	f5 89       	ldd	r31, Z+21	; 0x15
     4b0:	e0 2d       	mov	r30, r0
     4b2:	80 81       	ld	r24, Z
     4b4:	80 64       	ori	r24, 0x40	; 64
     4b6:	80 83       	st	Z, r24
     4b8:	81 e0       	ldi	r24, 0x01	; 1
     4ba:	90 e0       	ldi	r25, 0x00	; 0
     4bc:	df 91       	pop	r29
     4be:	cf 91       	pop	r28
     4c0:	1f 91       	pop	r17
     4c2:	0f 91       	pop	r16
     4c4:	ff 90       	pop	r15
     4c6:	ef 90       	pop	r14
     4c8:	08 95       	ret
     4ca:	08 95       	ret

000004cc <__vector_25>:
     4cc:	1f 92       	push	r1
     4ce:	0f 92       	push	r0
     4d0:	0f b6       	in	r0, 0x3f	; 63
     4d2:	0f 92       	push	r0
     4d4:	11 24       	eor	r1, r1
     4d6:	0b b6       	in	r0, 0x3b	; 59
     4d8:	0f 92       	push	r0
     4da:	1b be       	out	0x3b, r1	; 59
     4dc:	2f 93       	push	r18
     4de:	3f 93       	push	r19
     4e0:	4f 93       	push	r20
     4e2:	5f 93       	push	r21
     4e4:	6f 93       	push	r22
     4e6:	7f 93       	push	r23
     4e8:	8f 93       	push	r24
     4ea:	9f 93       	push	r25
     4ec:	af 93       	push	r26
     4ee:	bf 93       	push	r27
     4f0:	ef 93       	push	r30
     4f2:	ff 93       	push	r31
     4f4:	80 91 c0 00 	lds	r24, 0x00C0
     4f8:	82 fd       	sbrc	r24, 2
     4fa:	07 c0       	rjmp	.+14     	; 0x50a <__vector_25+0x3e>
     4fc:	80 91 c6 00 	lds	r24, 0x00C6
     500:	68 ed       	ldi	r22, 0xD8	; 216
     502:	78 e0       	ldi	r23, 0x08	; 8
     504:	0e 94 b1 3f 	call	0x7f62	; 0x7f62 <_Z10store_charhP11ring_buffer>
     508:	02 c0       	rjmp	.+4      	; 0x50e <__vector_25+0x42>
     50a:	80 91 c6 00 	lds	r24, 0x00C6
     50e:	ff 91       	pop	r31
     510:	ef 91       	pop	r30
     512:	bf 91       	pop	r27
     514:	af 91       	pop	r26
     516:	9f 91       	pop	r25
     518:	8f 91       	pop	r24
     51a:	7f 91       	pop	r23
     51c:	6f 91       	pop	r22
     51e:	5f 91       	pop	r21
     520:	4f 91       	pop	r20
     522:	3f 91       	pop	r19
     524:	2f 91       	pop	r18
     526:	0f 90       	pop	r0
     528:	0b be       	out	0x3b, r0	; 59
     52a:	0f 90       	pop	r0
     52c:	0f be       	out	0x3f, r0	; 63
     52e:	0f 90       	pop	r0
     530:	1f 90       	pop	r1
     532:	18 95       	reti
     534:	08 95       	ret

00000536 <__vector_36>:
     536:	1f 92       	push	r1
     538:	0f 92       	push	r0
     53a:	0f b6       	in	r0, 0x3f	; 63
     53c:	0f 92       	push	r0
     53e:	11 24       	eor	r1, r1
     540:	0b b6       	in	r0, 0x3b	; 59
     542:	0f 92       	push	r0
     544:	1b be       	out	0x3b, r1	; 59
     546:	2f 93       	push	r18
     548:	3f 93       	push	r19
     54a:	4f 93       	push	r20
     54c:	5f 93       	push	r21
     54e:	6f 93       	push	r22
     550:	7f 93       	push	r23
     552:	8f 93       	push	r24
     554:	9f 93       	push	r25
     556:	af 93       	push	r26
     558:	bf 93       	push	r27
     55a:	ef 93       	push	r30
     55c:	ff 93       	push	r31
     55e:	80 91 c8 00 	lds	r24, 0x00C8
     562:	82 fd       	sbrc	r24, 2
     564:	07 c0       	rjmp	.+14     	; 0x574 <__vector_36+0x3e>
     566:	80 91 ce 00 	lds	r24, 0x00CE
     56a:	60 e5       	ldi	r22, 0x50	; 80
     56c:	78 e0       	ldi	r23, 0x08	; 8
     56e:	0e 94 b1 3f 	call	0x7f62	; 0x7f62 <_Z10store_charhP11ring_buffer>
     572:	02 c0       	rjmp	.+4      	; 0x578 <__vector_36+0x42>
     574:	80 91 ce 00 	lds	r24, 0x00CE
     578:	ff 91       	pop	r31
     57a:	ef 91       	pop	r30
     57c:	bf 91       	pop	r27
     57e:	af 91       	pop	r26
     580:	9f 91       	pop	r25
     582:	8f 91       	pop	r24
     584:	7f 91       	pop	r23
     586:	6f 91       	pop	r22
     588:	5f 91       	pop	r21
     58a:	4f 91       	pop	r20
     58c:	3f 91       	pop	r19
     58e:	2f 91       	pop	r18
     590:	0f 90       	pop	r0
     592:	0b be       	out	0x3b, r0	; 59
     594:	0f 90       	pop	r0
     596:	0f be       	out	0x3f, r0	; 63
     598:	0f 90       	pop	r0
     59a:	1f 90       	pop	r1
     59c:	18 95       	reti
     59e:	08 95       	ret

000005a0 <__vector_51>:
     5a0:	1f 92       	push	r1
     5a2:	0f 92       	push	r0
     5a4:	0f b6       	in	r0, 0x3f	; 63
     5a6:	0f 92       	push	r0
     5a8:	11 24       	eor	r1, r1
     5aa:	0b b6       	in	r0, 0x3b	; 59
     5ac:	0f 92       	push	r0
     5ae:	1b be       	out	0x3b, r1	; 59
     5b0:	2f 93       	push	r18
     5b2:	3f 93       	push	r19
     5b4:	4f 93       	push	r20
     5b6:	5f 93       	push	r21
     5b8:	6f 93       	push	r22
     5ba:	7f 93       	push	r23
     5bc:	8f 93       	push	r24
     5be:	9f 93       	push	r25
     5c0:	af 93       	push	r26
     5c2:	bf 93       	push	r27
     5c4:	ef 93       	push	r30
     5c6:	ff 93       	push	r31
     5c8:	80 91 d0 00 	lds	r24, 0x00D0
     5cc:	82 fd       	sbrc	r24, 2
     5ce:	07 c0       	rjmp	.+14     	; 0x5de <__vector_51+0x3e>
     5d0:	80 91 d6 00 	lds	r24, 0x00D6
     5d4:	68 ec       	ldi	r22, 0xC8	; 200
     5d6:	77 e0       	ldi	r23, 0x07	; 7
     5d8:	0e 94 b1 3f 	call	0x7f62	; 0x7f62 <_Z10store_charhP11ring_buffer>
     5dc:	02 c0       	rjmp	.+4      	; 0x5e2 <__vector_51+0x42>
     5de:	80 91 d6 00 	lds	r24, 0x00D6
     5e2:	ff 91       	pop	r31
     5e4:	ef 91       	pop	r30
     5e6:	bf 91       	pop	r27
     5e8:	af 91       	pop	r26
     5ea:	9f 91       	pop	r25
     5ec:	8f 91       	pop	r24
     5ee:	7f 91       	pop	r23
     5f0:	6f 91       	pop	r22
     5f2:	5f 91       	pop	r21
     5f4:	4f 91       	pop	r20
     5f6:	3f 91       	pop	r19
     5f8:	2f 91       	pop	r18
     5fa:	0f 90       	pop	r0
     5fc:	0b be       	out	0x3b, r0	; 59
     5fe:	0f 90       	pop	r0
     600:	0f be       	out	0x3f, r0	; 63
     602:	0f 90       	pop	r0
     604:	1f 90       	pop	r1
     606:	18 95       	reti
     608:	08 95       	ret

0000060a <__vector_54>:
     60a:	1f 92       	push	r1
     60c:	0f 92       	push	r0
     60e:	0f b6       	in	r0, 0x3f	; 63
     610:	0f 92       	push	r0
     612:	11 24       	eor	r1, r1
     614:	0b b6       	in	r0, 0x3b	; 59
     616:	0f 92       	push	r0
     618:	1b be       	out	0x3b, r1	; 59
     61a:	2f 93       	push	r18
     61c:	3f 93       	push	r19
     61e:	4f 93       	push	r20
     620:	5f 93       	push	r21
     622:	6f 93       	push	r22
     624:	7f 93       	push	r23
     626:	8f 93       	push	r24
     628:	9f 93       	push	r25
     62a:	af 93       	push	r26
     62c:	bf 93       	push	r27
     62e:	ef 93       	push	r30
     630:	ff 93       	push	r31
     632:	80 91 30 01 	lds	r24, 0x0130
     636:	82 fd       	sbrc	r24, 2
     638:	07 c0       	rjmp	.+14     	; 0x648 <__vector_54+0x3e>
     63a:	80 91 36 01 	lds	r24, 0x0136
     63e:	60 e4       	ldi	r22, 0x40	; 64
     640:	77 e0       	ldi	r23, 0x07	; 7
     642:	0e 94 b1 3f 	call	0x7f62	; 0x7f62 <_Z10store_charhP11ring_buffer>
     646:	02 c0       	rjmp	.+4      	; 0x64c <__vector_54+0x42>
     648:	80 91 36 01 	lds	r24, 0x0136
     64c:	ff 91       	pop	r31
     64e:	ef 91       	pop	r30
     650:	bf 91       	pop	r27
     652:	af 91       	pop	r26
     654:	9f 91       	pop	r25
     656:	8f 91       	pop	r24
     658:	7f 91       	pop	r23
     65a:	6f 91       	pop	r22
     65c:	5f 91       	pop	r21
     65e:	4f 91       	pop	r20
     660:	3f 91       	pop	r19
     662:	2f 91       	pop	r18
     664:	0f 90       	pop	r0
     666:	0b be       	out	0x3b, r0	; 59
     668:	0f 90       	pop	r0
     66a:	0f be       	out	0x3f, r0	; 63
     66c:	0f 90       	pop	r0
     66e:	1f 90       	pop	r1
     670:	18 95       	reti

00000672 <_Z14serialEventRunv>:
     672:	8a ed       	ldi	r24, 0xDA	; 218
     674:	96 e0       	ldi	r25, 0x06	; 6
     676:	0e 94 7d 01 	call	0x2fa	; 0x2fa <_ZN14HardwareSerial9availableEv>
     67a:	89 2b       	or	r24, r25
     67c:	11 f0       	breq	.+4      	; 0x682 <_Z14serialEventRunv+0x10>
     67e:	0e 94 13 33 	call	0x6626	; 0x6626 <_Z11serialEventv>
     682:	88 eb       	ldi	r24, 0xB8	; 184
     684:	96 e0       	ldi	r25, 0x06	; 6
     686:	0e 94 7d 01 	call	0x2fa	; 0x2fa <_ZN14HardwareSerial9availableEv>
     68a:	89 2b       	or	r24, r25
     68c:	11 f0       	breq	.+4      	; 0x692 <_Z14serialEventRunv+0x20>
     68e:	0e 94 9c 2f 	call	0x5f38	; 0x5f38 <_Z12serialEvent1v>
     692:	86 e9       	ldi	r24, 0x96	; 150
     694:	96 e0       	ldi	r25, 0x06	; 6
     696:	0e 94 7d 01 	call	0x2fa	; 0x2fa <_ZN14HardwareSerial9availableEv>
     69a:	89 2b       	or	r24, r25
     69c:	11 f0       	breq	.+4      	; 0x6a2 <_Z14serialEventRunv+0x30>
     69e:	0e 94 c3 2f 	call	0x5f86	; 0x5f86 <_Z12serialEvent2v>
     6a2:	84 e7       	ldi	r24, 0x74	; 116
     6a4:	96 e0       	ldi	r25, 0x06	; 6
     6a6:	0e 94 7d 01 	call	0x2fa	; 0x2fa <_ZN14HardwareSerial9availableEv>
     6aa:	89 2b       	or	r24, r25
     6ac:	11 f0       	breq	.+4      	; 0x6b2 <_Z14serialEventRunv+0x40>
     6ae:	0c 94 f0 2f 	jmp	0x5fe0	; 0x5fe0 <_Z12serialEvent3v>
     6b2:	08 95       	ret

000006b4 <__vector_26>:
     6b4:	1f 92       	push	r1
     6b6:	0f 92       	push	r0
     6b8:	0f b6       	in	r0, 0x3f	; 63
     6ba:	0f 92       	push	r0
     6bc:	11 24       	eor	r1, r1
     6be:	0b b6       	in	r0, 0x3b	; 59
     6c0:	0f 92       	push	r0
     6c2:	1b be       	out	0x3b, r1	; 59
     6c4:	2f 93       	push	r18
     6c6:	3f 93       	push	r19
     6c8:	8f 93       	push	r24
     6ca:	9f 93       	push	r25
     6cc:	ef 93       	push	r30
     6ce:	ff 93       	push	r31
     6d0:	20 91 d4 08 	lds	r18, 0x08D4
     6d4:	30 91 d5 08 	lds	r19, 0x08D5
     6d8:	80 91 d6 08 	lds	r24, 0x08D6
     6dc:	90 91 d7 08 	lds	r25, 0x08D7
     6e0:	28 17       	cp	r18, r24
     6e2:	39 07       	cpc	r19, r25
     6e4:	31 f4       	brne	.+12     	; 0x6f2 <__vector_26+0x3e>
     6e6:	80 91 c1 00 	lds	r24, 0x00C1
     6ea:	8f 7d       	andi	r24, 0xDF	; 223
     6ec:	80 93 c1 00 	sts	0x00C1, r24
     6f0:	14 c0       	rjmp	.+40     	; 0x71a <__vector_26+0x66>
     6f2:	e0 91 d6 08 	lds	r30, 0x08D6
     6f6:	f0 91 d7 08 	lds	r31, 0x08D7
     6fa:	ec 56       	subi	r30, 0x6C	; 108
     6fc:	f7 4f       	sbci	r31, 0xF7	; 247
     6fe:	20 81       	ld	r18, Z
     700:	80 91 d6 08 	lds	r24, 0x08D6
     704:	90 91 d7 08 	lds	r25, 0x08D7
     708:	01 96       	adiw	r24, 0x01	; 1
     70a:	8f 73       	andi	r24, 0x3F	; 63
     70c:	99 27       	eor	r25, r25
     70e:	90 93 d7 08 	sts	0x08D7, r25
     712:	80 93 d6 08 	sts	0x08D6, r24
     716:	20 93 c6 00 	sts	0x00C6, r18
     71a:	ff 91       	pop	r31
     71c:	ef 91       	pop	r30
     71e:	9f 91       	pop	r25
     720:	8f 91       	pop	r24
     722:	3f 91       	pop	r19
     724:	2f 91       	pop	r18
     726:	0f 90       	pop	r0
     728:	0b be       	out	0x3b, r0	; 59
     72a:	0f 90       	pop	r0
     72c:	0f be       	out	0x3f, r0	; 63
     72e:	0f 90       	pop	r0
     730:	1f 90       	pop	r1
     732:	18 95       	reti

00000734 <__vector_37>:
     734:	1f 92       	push	r1
     736:	0f 92       	push	r0
     738:	0f b6       	in	r0, 0x3f	; 63
     73a:	0f 92       	push	r0
     73c:	11 24       	eor	r1, r1
     73e:	0b b6       	in	r0, 0x3b	; 59
     740:	0f 92       	push	r0
     742:	1b be       	out	0x3b, r1	; 59
     744:	2f 93       	push	r18
     746:	3f 93       	push	r19
     748:	8f 93       	push	r24
     74a:	9f 93       	push	r25
     74c:	ef 93       	push	r30
     74e:	ff 93       	push	r31
     750:	20 91 4c 08 	lds	r18, 0x084C
     754:	30 91 4d 08 	lds	r19, 0x084D
     758:	80 91 4e 08 	lds	r24, 0x084E
     75c:	90 91 4f 08 	lds	r25, 0x084F
     760:	28 17       	cp	r18, r24
     762:	39 07       	cpc	r19, r25
     764:	31 f4       	brne	.+12     	; 0x772 <__vector_37+0x3e>
     766:	80 91 c9 00 	lds	r24, 0x00C9
     76a:	8f 7d       	andi	r24, 0xDF	; 223
     76c:	80 93 c9 00 	sts	0x00C9, r24
     770:	14 c0       	rjmp	.+40     	; 0x79a <__vector_37+0x66>
     772:	e0 91 4e 08 	lds	r30, 0x084E
     776:	f0 91 4f 08 	lds	r31, 0x084F
     77a:	e4 5f       	subi	r30, 0xF4	; 244
     77c:	f7 4f       	sbci	r31, 0xF7	; 247
     77e:	20 81       	ld	r18, Z
     780:	80 91 4e 08 	lds	r24, 0x084E
     784:	90 91 4f 08 	lds	r25, 0x084F
     788:	01 96       	adiw	r24, 0x01	; 1
     78a:	8f 73       	andi	r24, 0x3F	; 63
     78c:	99 27       	eor	r25, r25
     78e:	90 93 4f 08 	sts	0x084F, r25
     792:	80 93 4e 08 	sts	0x084E, r24
     796:	20 93 ce 00 	sts	0x00CE, r18
     79a:	ff 91       	pop	r31
     79c:	ef 91       	pop	r30
     79e:	9f 91       	pop	r25
     7a0:	8f 91       	pop	r24
     7a2:	3f 91       	pop	r19
     7a4:	2f 91       	pop	r18
     7a6:	0f 90       	pop	r0
     7a8:	0b be       	out	0x3b, r0	; 59
     7aa:	0f 90       	pop	r0
     7ac:	0f be       	out	0x3f, r0	; 63
     7ae:	0f 90       	pop	r0
     7b0:	1f 90       	pop	r1
     7b2:	18 95       	reti

000007b4 <__vector_52>:
     7b4:	1f 92       	push	r1
     7b6:	0f 92       	push	r0
     7b8:	0f b6       	in	r0, 0x3f	; 63
     7ba:	0f 92       	push	r0
     7bc:	11 24       	eor	r1, r1
     7be:	0b b6       	in	r0, 0x3b	; 59
     7c0:	0f 92       	push	r0
     7c2:	1b be       	out	0x3b, r1	; 59
     7c4:	2f 93       	push	r18
     7c6:	3f 93       	push	r19
     7c8:	8f 93       	push	r24
     7ca:	9f 93       	push	r25
     7cc:	ef 93       	push	r30
     7ce:	ff 93       	push	r31
     7d0:	20 91 c4 07 	lds	r18, 0x07C4
     7d4:	30 91 c5 07 	lds	r19, 0x07C5
     7d8:	80 91 c6 07 	lds	r24, 0x07C6
     7dc:	90 91 c7 07 	lds	r25, 0x07C7
     7e0:	28 17       	cp	r18, r24
     7e2:	39 07       	cpc	r19, r25
     7e4:	31 f4       	brne	.+12     	; 0x7f2 <__vector_52+0x3e>
     7e6:	80 91 d1 00 	lds	r24, 0x00D1
     7ea:	8f 7d       	andi	r24, 0xDF	; 223
     7ec:	80 93 d1 00 	sts	0x00D1, r24
     7f0:	14 c0       	rjmp	.+40     	; 0x81a <__vector_52+0x66>
     7f2:	e0 91 c6 07 	lds	r30, 0x07C6
     7f6:	f0 91 c7 07 	lds	r31, 0x07C7
     7fa:	ec 57       	subi	r30, 0x7C	; 124
     7fc:	f8 4f       	sbci	r31, 0xF8	; 248
     7fe:	20 81       	ld	r18, Z
     800:	80 91 c6 07 	lds	r24, 0x07C6
     804:	90 91 c7 07 	lds	r25, 0x07C7
     808:	01 96       	adiw	r24, 0x01	; 1
     80a:	8f 73       	andi	r24, 0x3F	; 63
     80c:	99 27       	eor	r25, r25
     80e:	90 93 c7 07 	sts	0x07C7, r25
     812:	80 93 c6 07 	sts	0x07C6, r24
     816:	20 93 d6 00 	sts	0x00D6, r18
     81a:	ff 91       	pop	r31
     81c:	ef 91       	pop	r30
     81e:	9f 91       	pop	r25
     820:	8f 91       	pop	r24
     822:	3f 91       	pop	r19
     824:	2f 91       	pop	r18
     826:	0f 90       	pop	r0
     828:	0b be       	out	0x3b, r0	; 59
     82a:	0f 90       	pop	r0
     82c:	0f be       	out	0x3f, r0	; 63
     82e:	0f 90       	pop	r0
     830:	1f 90       	pop	r1
     832:	18 95       	reti

00000834 <__vector_55>:
     834:	1f 92       	push	r1
     836:	0f 92       	push	r0
     838:	0f b6       	in	r0, 0x3f	; 63
     83a:	0f 92       	push	r0
     83c:	11 24       	eor	r1, r1
     83e:	0b b6       	in	r0, 0x3b	; 59
     840:	0f 92       	push	r0
     842:	1b be       	out	0x3b, r1	; 59
     844:	2f 93       	push	r18
     846:	3f 93       	push	r19
     848:	8f 93       	push	r24
     84a:	9f 93       	push	r25
     84c:	ef 93       	push	r30
     84e:	ff 93       	push	r31
     850:	20 91 3c 07 	lds	r18, 0x073C
     854:	30 91 3d 07 	lds	r19, 0x073D
     858:	80 91 3e 07 	lds	r24, 0x073E
     85c:	90 91 3f 07 	lds	r25, 0x073F
     860:	28 17       	cp	r18, r24
     862:	39 07       	cpc	r19, r25
     864:	31 f4       	brne	.+12     	; 0x872 <__vector_55+0x3e>
     866:	80 91 31 01 	lds	r24, 0x0131
     86a:	8f 7d       	andi	r24, 0xDF	; 223
     86c:	80 93 31 01 	sts	0x0131, r24
     870:	14 c0       	rjmp	.+40     	; 0x89a <__vector_55+0x66>
     872:	e0 91 3e 07 	lds	r30, 0x073E
     876:	f0 91 3f 07 	lds	r31, 0x073F
     87a:	e4 50       	subi	r30, 0x04	; 4
     87c:	f9 4f       	sbci	r31, 0xF9	; 249
     87e:	20 81       	ld	r18, Z
     880:	80 91 3e 07 	lds	r24, 0x073E
     884:	90 91 3f 07 	lds	r25, 0x073F
     888:	01 96       	adiw	r24, 0x01	; 1
     88a:	8f 73       	andi	r24, 0x3F	; 63
     88c:	99 27       	eor	r25, r25
     88e:	90 93 3f 07 	sts	0x073F, r25
     892:	80 93 3e 07 	sts	0x073E, r24
     896:	20 93 36 01 	sts	0x0136, r18
     89a:	ff 91       	pop	r31
     89c:	ef 91       	pop	r30
     89e:	9f 91       	pop	r25
     8a0:	8f 91       	pop	r24
     8a2:	3f 91       	pop	r19
     8a4:	2f 91       	pop	r18
     8a6:	0f 90       	pop	r0
     8a8:	0b be       	out	0x3b, r0	; 59
     8aa:	0f 90       	pop	r0
     8ac:	0f be       	out	0x3f, r0	; 63
     8ae:	0f 90       	pop	r0
     8b0:	1f 90       	pop	r1
     8b2:	18 95       	reti

000008b4 <_ZN14HardwareSerialC1EP11ring_bufferS1_PVhS3_S3_S3_S3_S3_hhhhh>:
     8b4:	4f 92       	push	r4
     8b6:	5f 92       	push	r5
     8b8:	6f 92       	push	r6
     8ba:	7f 92       	push	r7
     8bc:	8f 92       	push	r8
     8be:	9f 92       	push	r9
     8c0:	af 92       	push	r10
     8c2:	bf 92       	push	r11
     8c4:	cf 92       	push	r12
     8c6:	df 92       	push	r13
     8c8:	ef 92       	push	r14
     8ca:	ff 92       	push	r15
     8cc:	0f 93       	push	r16
     8ce:	1f 93       	push	r17
     8d0:	cf 93       	push	r28
     8d2:	df 93       	push	r29
     8d4:	cd b7       	in	r28, 0x3d	; 61
     8d6:	de b7       	in	r29, 0x3e	; 62
     8d8:	fc 01       	movw	r30, r24
     8da:	13 82       	std	Z+3, r1	; 0x03
     8dc:	12 82       	std	Z+2, r1	; 0x02
     8de:	88 ee       	ldi	r24, 0xE8	; 232
     8e0:	48 2e       	mov	r4, r24
     8e2:	83 e0       	ldi	r24, 0x03	; 3
     8e4:	58 2e       	mov	r5, r24
     8e6:	61 2c       	mov	r6, r1
     8e8:	71 2c       	mov	r7, r1
     8ea:	44 82       	std	Z+4, r4	; 0x04
     8ec:	55 82       	std	Z+5, r5	; 0x05
     8ee:	66 82       	std	Z+6, r6	; 0x06
     8f0:	77 82       	std	Z+7, r7	; 0x07
     8f2:	8a e5       	ldi	r24, 0x5A	; 90
     8f4:	96 e0       	ldi	r25, 0x06	; 6
     8f6:	91 83       	std	Z+1, r25	; 0x01
     8f8:	80 83       	st	Z, r24
     8fa:	75 87       	std	Z+13, r23	; 0x0d
     8fc:	64 87       	std	Z+12, r22	; 0x0c
     8fe:	57 87       	std	Z+15, r21	; 0x0f
     900:	46 87       	std	Z+14, r20	; 0x0e
     902:	31 8b       	std	Z+17, r19	; 0x11
     904:	20 8b       	std	Z+16, r18	; 0x10
     906:	13 8b       	std	Z+19, r17	; 0x13
     908:	02 8b       	std	Z+18, r16	; 0x12
     90a:	f5 8a       	std	Z+21, r15	; 0x15
     90c:	e4 8a       	std	Z+20, r14	; 0x14
     90e:	d7 8a       	std	Z+23, r13	; 0x17
     910:	c6 8a       	std	Z+22, r12	; 0x16
     912:	b1 8e       	std	Z+25, r11	; 0x19
     914:	a0 8e       	std	Z+24, r10	; 0x18
     916:	93 8e       	std	Z+27, r9	; 0x1b
     918:	82 8e       	std	Z+26, r8	; 0x1a
     91a:	8c 89       	ldd	r24, Y+20	; 0x14
     91c:	84 8f       	std	Z+28, r24	; 0x1c
     91e:	8d 89       	ldd	r24, Y+21	; 0x15
     920:	85 8f       	std	Z+29, r24	; 0x1d
     922:	8e 89       	ldd	r24, Y+22	; 0x16
     924:	86 8f       	std	Z+30, r24	; 0x1e
     926:	8f 89       	ldd	r24, Y+23	; 0x17
     928:	87 8f       	std	Z+31, r24	; 0x1f
     92a:	88 8d       	ldd	r24, Y+24	; 0x18
     92c:	80 a3       	std	Z+32, r24	; 0x20
     92e:	df 91       	pop	r29
     930:	cf 91       	pop	r28
     932:	1f 91       	pop	r17
     934:	0f 91       	pop	r16
     936:	ff 90       	pop	r15
     938:	ef 90       	pop	r14
     93a:	df 90       	pop	r13
     93c:	cf 90       	pop	r12
     93e:	bf 90       	pop	r11
     940:	af 90       	pop	r10
     942:	9f 90       	pop	r9
     944:	8f 90       	pop	r8
     946:	7f 90       	pop	r7
     948:	6f 90       	pop	r6
     94a:	5f 90       	pop	r5
     94c:	4f 90       	pop	r4
     94e:	08 95       	ret

00000950 <_ZN14HardwareSerial5beginEm>:
     950:	cf 92       	push	r12
     952:	df 92       	push	r13
     954:	ef 92       	push	r14
     956:	ff 92       	push	r15
     958:	cf 93       	push	r28
     95a:	df 93       	push	r29
     95c:	ec 01       	movw	r28, r24
     95e:	6a 01       	movw	r12, r20
     960:	7b 01       	movw	r14, r22
     962:	41 15       	cp	r20, r1
     964:	81 ee       	ldi	r24, 0xE1	; 225
     966:	58 07       	cpc	r21, r24
     968:	61 05       	cpc	r22, r1
     96a:	71 05       	cpc	r23, r1
     96c:	f9 f0       	breq	.+62     	; 0x9ac <_ZN14HardwareSerial5beginEm+0x5c>
     96e:	ec 89       	ldd	r30, Y+20	; 0x14
     970:	fd 89       	ldd	r31, Y+21	; 0x15
     972:	81 e0       	ldi	r24, 0x01	; 1
     974:	90 e0       	ldi	r25, 0x00	; 0
     976:	08 a0       	ldd	r0, Y+32	; 0x20
     978:	02 c0       	rjmp	.+4      	; 0x97e <_ZN14HardwareSerial5beginEm+0x2e>
     97a:	88 0f       	add	r24, r24
     97c:	99 1f       	adc	r25, r25
     97e:	0a 94       	dec	r0
     980:	e2 f7       	brpl	.-8      	; 0x97a <_ZN14HardwareSerial5beginEm+0x2a>
     982:	80 83       	st	Z, r24
     984:	60 e0       	ldi	r22, 0x00	; 0
     986:	79 e0       	ldi	r23, 0x09	; 9
     988:	8d e3       	ldi	r24, 0x3D	; 61
     98a:	90 e0       	ldi	r25, 0x00	; 0
     98c:	a7 01       	movw	r20, r14
     98e:	96 01       	movw	r18, r12
     990:	0e 94 fd 44 	call	0x89fa	; 0x89fa <__udivmodsi4>
     994:	21 50       	subi	r18, 0x01	; 1
     996:	31 09       	sbc	r19, r1
     998:	41 09       	sbc	r20, r1
     99a:	51 09       	sbc	r21, r1
     99c:	56 95       	lsr	r21
     99e:	47 95       	ror	r20
     9a0:	37 95       	ror	r19
     9a2:	27 95       	ror	r18
     9a4:	21 15       	cp	r18, r1
     9a6:	80 e1       	ldi	r24, 0x10	; 16
     9a8:	38 07       	cpc	r19, r24
     9aa:	98 f0       	brcs	.+38     	; 0x9d2 <_ZN14HardwareSerial5beginEm+0x82>
     9ac:	ec 89       	ldd	r30, Y+20	; 0x14
     9ae:	fd 89       	ldd	r31, Y+21	; 0x15
     9b0:	10 82       	st	Z, r1
     9b2:	60 e8       	ldi	r22, 0x80	; 128
     9b4:	74 e8       	ldi	r23, 0x84	; 132
     9b6:	8e e1       	ldi	r24, 0x1E	; 30
     9b8:	90 e0       	ldi	r25, 0x00	; 0
     9ba:	a7 01       	movw	r20, r14
     9bc:	96 01       	movw	r18, r12
     9be:	0e 94 fd 44 	call	0x89fa	; 0x89fa <__udivmodsi4>
     9c2:	21 50       	subi	r18, 0x01	; 1
     9c4:	31 09       	sbc	r19, r1
     9c6:	41 09       	sbc	r20, r1
     9c8:	51 09       	sbc	r21, r1
     9ca:	56 95       	lsr	r21
     9cc:	47 95       	ror	r20
     9ce:	37 95       	ror	r19
     9d0:	27 95       	ror	r18
     9d2:	e8 89       	ldd	r30, Y+16	; 0x10
     9d4:	f9 89       	ldd	r31, Y+17	; 0x11
     9d6:	30 83       	st	Z, r19
     9d8:	ea 89       	ldd	r30, Y+18	; 0x12
     9da:	fb 89       	ldd	r31, Y+19	; 0x13
     9dc:	20 83       	st	Z, r18
     9de:	19 a2       	std	Y+33, r1	; 0x21
     9e0:	ee 89       	ldd	r30, Y+22	; 0x16
     9e2:	ff 89       	ldd	r31, Y+23	; 0x17
     9e4:	40 81       	ld	r20, Z
     9e6:	81 e0       	ldi	r24, 0x01	; 1
     9e8:	90 e0       	ldi	r25, 0x00	; 0
     9ea:	9c 01       	movw	r18, r24
     9ec:	0c 8c       	ldd	r0, Y+28	; 0x1c
     9ee:	02 c0       	rjmp	.+4      	; 0x9f4 <_ZN14HardwareSerial5beginEm+0xa4>
     9f0:	22 0f       	add	r18, r18
     9f2:	33 1f       	adc	r19, r19
     9f4:	0a 94       	dec	r0
     9f6:	e2 f7       	brpl	.-8      	; 0x9f0 <_ZN14HardwareSerial5beginEm+0xa0>
     9f8:	42 2b       	or	r20, r18
     9fa:	40 83       	st	Z, r20
     9fc:	ee 89       	ldd	r30, Y+22	; 0x16
     9fe:	ff 89       	ldd	r31, Y+23	; 0x17
     a00:	40 81       	ld	r20, Z
     a02:	9c 01       	movw	r18, r24
     a04:	0d 8c       	ldd	r0, Y+29	; 0x1d
     a06:	02 c0       	rjmp	.+4      	; 0xa0c <_ZN14HardwareSerial5beginEm+0xbc>
     a08:	22 0f       	add	r18, r18
     a0a:	33 1f       	adc	r19, r19
     a0c:	0a 94       	dec	r0
     a0e:	e2 f7       	brpl	.-8      	; 0xa08 <_ZN14HardwareSerial5beginEm+0xb8>
     a10:	42 2b       	or	r20, r18
     a12:	40 83       	st	Z, r20
     a14:	ee 89       	ldd	r30, Y+22	; 0x16
     a16:	ff 89       	ldd	r31, Y+23	; 0x17
     a18:	40 81       	ld	r20, Z
     a1a:	9c 01       	movw	r18, r24
     a1c:	0e 8c       	ldd	r0, Y+30	; 0x1e
     a1e:	02 c0       	rjmp	.+4      	; 0xa24 <_ZN14HardwareSerial5beginEm+0xd4>
     a20:	22 0f       	add	r18, r18
     a22:	33 1f       	adc	r19, r19
     a24:	0a 94       	dec	r0
     a26:	e2 f7       	brpl	.-8      	; 0xa20 <_ZN14HardwareSerial5beginEm+0xd0>
     a28:	42 2b       	or	r20, r18
     a2a:	40 83       	st	Z, r20
     a2c:	ee 89       	ldd	r30, Y+22	; 0x16
     a2e:	ff 89       	ldd	r31, Y+23	; 0x17
     a30:	20 81       	ld	r18, Z
     a32:	0f 8c       	ldd	r0, Y+31	; 0x1f
     a34:	02 c0       	rjmp	.+4      	; 0xa3a <_ZN14HardwareSerial5beginEm+0xea>
     a36:	88 0f       	add	r24, r24
     a38:	99 1f       	adc	r25, r25
     a3a:	0a 94       	dec	r0
     a3c:	e2 f7       	brpl	.-8      	; 0xa36 <_ZN14HardwareSerial5beginEm+0xe6>
     a3e:	80 95       	com	r24
     a40:	82 23       	and	r24, r18
     a42:	80 83       	st	Z, r24
     a44:	df 91       	pop	r29
     a46:	cf 91       	pop	r28
     a48:	ff 90       	pop	r15
     a4a:	ef 90       	pop	r14
     a4c:	df 90       	pop	r13
     a4e:	cf 90       	pop	r12
     a50:	08 95       	ret

00000a52 <_ZN14HardwareSerial5beginEmh>:
     a52:	bf 92       	push	r11
     a54:	cf 92       	push	r12
     a56:	df 92       	push	r13
     a58:	ef 92       	push	r14
     a5a:	ff 92       	push	r15
     a5c:	cf 93       	push	r28
     a5e:	df 93       	push	r29
     a60:	ec 01       	movw	r28, r24
     a62:	6a 01       	movw	r12, r20
     a64:	7b 01       	movw	r14, r22
     a66:	b2 2e       	mov	r11, r18
     a68:	41 15       	cp	r20, r1
     a6a:	81 ee       	ldi	r24, 0xE1	; 225
     a6c:	58 07       	cpc	r21, r24
     a6e:	61 05       	cpc	r22, r1
     a70:	71 05       	cpc	r23, r1
     a72:	f9 f0       	breq	.+62     	; 0xab2 <_ZN14HardwareSerial5beginEmh+0x60>
     a74:	ec 89       	ldd	r30, Y+20	; 0x14
     a76:	fd 89       	ldd	r31, Y+21	; 0x15
     a78:	81 e0       	ldi	r24, 0x01	; 1
     a7a:	90 e0       	ldi	r25, 0x00	; 0
     a7c:	08 a0       	ldd	r0, Y+32	; 0x20
     a7e:	02 c0       	rjmp	.+4      	; 0xa84 <_ZN14HardwareSerial5beginEmh+0x32>
     a80:	88 0f       	add	r24, r24
     a82:	99 1f       	adc	r25, r25
     a84:	0a 94       	dec	r0
     a86:	e2 f7       	brpl	.-8      	; 0xa80 <_ZN14HardwareSerial5beginEmh+0x2e>
     a88:	80 83       	st	Z, r24
     a8a:	60 e0       	ldi	r22, 0x00	; 0
     a8c:	79 e0       	ldi	r23, 0x09	; 9
     a8e:	8d e3       	ldi	r24, 0x3D	; 61
     a90:	90 e0       	ldi	r25, 0x00	; 0
     a92:	a7 01       	movw	r20, r14
     a94:	96 01       	movw	r18, r12
     a96:	0e 94 fd 44 	call	0x89fa	; 0x89fa <__udivmodsi4>
     a9a:	21 50       	subi	r18, 0x01	; 1
     a9c:	31 09       	sbc	r19, r1
     a9e:	41 09       	sbc	r20, r1
     aa0:	51 09       	sbc	r21, r1
     aa2:	56 95       	lsr	r21
     aa4:	47 95       	ror	r20
     aa6:	37 95       	ror	r19
     aa8:	27 95       	ror	r18
     aaa:	21 15       	cp	r18, r1
     aac:	80 e1       	ldi	r24, 0x10	; 16
     aae:	38 07       	cpc	r19, r24
     ab0:	98 f0       	brcs	.+38     	; 0xad8 <_ZN14HardwareSerial5beginEmh+0x86>
     ab2:	ec 89       	ldd	r30, Y+20	; 0x14
     ab4:	fd 89       	ldd	r31, Y+21	; 0x15
     ab6:	10 82       	st	Z, r1
     ab8:	60 e8       	ldi	r22, 0x80	; 128
     aba:	74 e8       	ldi	r23, 0x84	; 132
     abc:	8e e1       	ldi	r24, 0x1E	; 30
     abe:	90 e0       	ldi	r25, 0x00	; 0
     ac0:	a7 01       	movw	r20, r14
     ac2:	96 01       	movw	r18, r12
     ac4:	0e 94 fd 44 	call	0x89fa	; 0x89fa <__udivmodsi4>
     ac8:	21 50       	subi	r18, 0x01	; 1
     aca:	31 09       	sbc	r19, r1
     acc:	41 09       	sbc	r20, r1
     ace:	51 09       	sbc	r21, r1
     ad0:	56 95       	lsr	r21
     ad2:	47 95       	ror	r20
     ad4:	37 95       	ror	r19
     ad6:	27 95       	ror	r18
     ad8:	e8 89       	ldd	r30, Y+16	; 0x10
     ada:	f9 89       	ldd	r31, Y+17	; 0x11
     adc:	30 83       	st	Z, r19
     ade:	ea 89       	ldd	r30, Y+18	; 0x12
     ae0:	fb 89       	ldd	r31, Y+19	; 0x13
     ae2:	20 83       	st	Z, r18
     ae4:	87 e0       	ldi	r24, 0x07	; 7
     ae6:	b8 12       	cpse	r11, r24
     ae8:	0a c0       	rjmp	.+20     	; 0xafe <_ZN14HardwareSerial5beginEmh+0xac>
     aea:	e8 8d       	ldd	r30, Y+24	; 0x18
     aec:	f9 8d       	ldd	r31, Y+25	; 0x19
     aee:	86 e0       	ldi	r24, 0x06	; 6
     af0:	80 83       	st	Z, r24
     af2:	ee 89       	ldd	r30, Y+22	; 0x16
     af4:	ff 89       	ldd	r31, Y+23	; 0x17
     af6:	80 81       	ld	r24, Z
     af8:	84 60       	ori	r24, 0x04	; 4
     afa:	80 83       	st	Z, r24
     afc:	08 c0       	rjmp	.+16     	; 0xb0e <_ZN14HardwareSerial5beginEmh+0xbc>
     afe:	ee 89       	ldd	r30, Y+22	; 0x16
     b00:	ff 89       	ldd	r31, Y+23	; 0x17
     b02:	80 81       	ld	r24, Z
     b04:	84 70       	andi	r24, 0x04	; 4
     b06:	80 83       	st	Z, r24
     b08:	e8 8d       	ldd	r30, Y+24	; 0x18
     b0a:	f9 8d       	ldd	r31, Y+25	; 0x19
     b0c:	b0 82       	st	Z, r11
     b0e:	ee 89       	ldd	r30, Y+22	; 0x16
     b10:	ff 89       	ldd	r31, Y+23	; 0x17
     b12:	40 81       	ld	r20, Z
     b14:	81 e0       	ldi	r24, 0x01	; 1
     b16:	90 e0       	ldi	r25, 0x00	; 0
     b18:	9c 01       	movw	r18, r24
     b1a:	0c 8c       	ldd	r0, Y+28	; 0x1c
     b1c:	02 c0       	rjmp	.+4      	; 0xb22 <_ZN14HardwareSerial5beginEmh+0xd0>
     b1e:	22 0f       	add	r18, r18
     b20:	33 1f       	adc	r19, r19
     b22:	0a 94       	dec	r0
     b24:	e2 f7       	brpl	.-8      	; 0xb1e <_ZN14HardwareSerial5beginEmh+0xcc>
     b26:	42 2b       	or	r20, r18
     b28:	40 83       	st	Z, r20
     b2a:	ee 89       	ldd	r30, Y+22	; 0x16
     b2c:	ff 89       	ldd	r31, Y+23	; 0x17
     b2e:	40 81       	ld	r20, Z
     b30:	9c 01       	movw	r18, r24
     b32:	0d 8c       	ldd	r0, Y+29	; 0x1d
     b34:	02 c0       	rjmp	.+4      	; 0xb3a <_ZN14HardwareSerial5beginEmh+0xe8>
     b36:	22 0f       	add	r18, r18
     b38:	33 1f       	adc	r19, r19
     b3a:	0a 94       	dec	r0
     b3c:	e2 f7       	brpl	.-8      	; 0xb36 <_ZN14HardwareSerial5beginEmh+0xe4>
     b3e:	42 2b       	or	r20, r18
     b40:	40 83       	st	Z, r20
     b42:	ee 89       	ldd	r30, Y+22	; 0x16
     b44:	ff 89       	ldd	r31, Y+23	; 0x17
     b46:	40 81       	ld	r20, Z
     b48:	9c 01       	movw	r18, r24
     b4a:	0e 8c       	ldd	r0, Y+30	; 0x1e
     b4c:	02 c0       	rjmp	.+4      	; 0xb52 <_ZN14HardwareSerial5beginEmh+0x100>
     b4e:	22 0f       	add	r18, r18
     b50:	33 1f       	adc	r19, r19
     b52:	0a 94       	dec	r0
     b54:	e2 f7       	brpl	.-8      	; 0xb4e <_ZN14HardwareSerial5beginEmh+0xfc>
     b56:	42 2b       	or	r20, r18
     b58:	40 83       	st	Z, r20
     b5a:	ee 89       	ldd	r30, Y+22	; 0x16
     b5c:	ff 89       	ldd	r31, Y+23	; 0x17
     b5e:	20 81       	ld	r18, Z
     b60:	0f 8c       	ldd	r0, Y+31	; 0x1f
     b62:	02 c0       	rjmp	.+4      	; 0xb68 <_ZN14HardwareSerial5beginEmh+0x116>
     b64:	88 0f       	add	r24, r24
     b66:	99 1f       	adc	r25, r25
     b68:	0a 94       	dec	r0
     b6a:	e2 f7       	brpl	.-8      	; 0xb64 <_ZN14HardwareSerial5beginEmh+0x112>
     b6c:	80 95       	com	r24
     b6e:	82 23       	and	r24, r18
     b70:	80 83       	st	Z, r24
     b72:	df 91       	pop	r29
     b74:	cf 91       	pop	r28
     b76:	ff 90       	pop	r15
     b78:	ef 90       	pop	r14
     b7a:	df 90       	pop	r13
     b7c:	cf 90       	pop	r12
     b7e:	bf 90       	pop	r11
     b80:	08 95       	ret

00000b82 <_ZN14HardwareSerial3endEv>:
     b82:	cf 93       	push	r28
     b84:	df 93       	push	r29
     b86:	fc 01       	movw	r30, r24
     b88:	86 85       	ldd	r24, Z+14	; 0x0e
     b8a:	97 85       	ldd	r25, Z+15	; 0x0f
     b8c:	dc 01       	movw	r26, r24
     b8e:	a0 5c       	subi	r26, 0xC0	; 192
     b90:	bf 4f       	sbci	r27, 0xFF	; 255
     b92:	ec 01       	movw	r28, r24
     b94:	ce 5b       	subi	r28, 0xBE	; 190
     b96:	df 4f       	sbci	r29, 0xFF	; 255
     b98:	4d 91       	ld	r20, X+
     b9a:	5c 91       	ld	r21, X
     b9c:	11 97       	sbiw	r26, 0x01	; 1
     b9e:	28 81       	ld	r18, Y
     ba0:	39 81       	ldd	r19, Y+1	; 0x01
     ba2:	42 17       	cp	r20, r18
     ba4:	53 07       	cpc	r21, r19
     ba6:	c1 f7       	brne	.-16     	; 0xb98 <_ZN14HardwareSerial3endEv+0x16>
     ba8:	a6 89       	ldd	r26, Z+22	; 0x16
     baa:	b7 89       	ldd	r27, Z+23	; 0x17
     bac:	4c 91       	ld	r20, X
     bae:	81 e0       	ldi	r24, 0x01	; 1
     bb0:	90 e0       	ldi	r25, 0x00	; 0
     bb2:	9c 01       	movw	r18, r24
     bb4:	04 8c       	ldd	r0, Z+28	; 0x1c
     bb6:	02 c0       	rjmp	.+4      	; 0xbbc <_ZN14HardwareSerial3endEv+0x3a>
     bb8:	22 0f       	add	r18, r18
     bba:	33 1f       	adc	r19, r19
     bbc:	0a 94       	dec	r0
     bbe:	e2 f7       	brpl	.-8      	; 0xbb8 <_ZN14HardwareSerial3endEv+0x36>
     bc0:	20 95       	com	r18
     bc2:	24 23       	and	r18, r20
     bc4:	2c 93       	st	X, r18
     bc6:	a6 89       	ldd	r26, Z+22	; 0x16
     bc8:	b7 89       	ldd	r27, Z+23	; 0x17
     bca:	4c 91       	ld	r20, X
     bcc:	9c 01       	movw	r18, r24
     bce:	05 8c       	ldd	r0, Z+29	; 0x1d
     bd0:	02 c0       	rjmp	.+4      	; 0xbd6 <_ZN14HardwareSerial3endEv+0x54>
     bd2:	22 0f       	add	r18, r18
     bd4:	33 1f       	adc	r19, r19
     bd6:	0a 94       	dec	r0
     bd8:	e2 f7       	brpl	.-8      	; 0xbd2 <_ZN14HardwareSerial3endEv+0x50>
     bda:	20 95       	com	r18
     bdc:	24 23       	and	r18, r20
     bde:	2c 93       	st	X, r18
     be0:	a6 89       	ldd	r26, Z+22	; 0x16
     be2:	b7 89       	ldd	r27, Z+23	; 0x17
     be4:	4c 91       	ld	r20, X
     be6:	9c 01       	movw	r18, r24
     be8:	06 8c       	ldd	r0, Z+30	; 0x1e
     bea:	02 c0       	rjmp	.+4      	; 0xbf0 <_ZN14HardwareSerial3endEv+0x6e>
     bec:	22 0f       	add	r18, r18
     bee:	33 1f       	adc	r19, r19
     bf0:	0a 94       	dec	r0
     bf2:	e2 f7       	brpl	.-8      	; 0xbec <_ZN14HardwareSerial3endEv+0x6a>
     bf4:	20 95       	com	r18
     bf6:	24 23       	and	r18, r20
     bf8:	2c 93       	st	X, r18
     bfa:	a6 89       	ldd	r26, Z+22	; 0x16
     bfc:	b7 89       	ldd	r27, Z+23	; 0x17
     bfe:	2c 91       	ld	r18, X
     c00:	07 8c       	ldd	r0, Z+31	; 0x1f
     c02:	02 c0       	rjmp	.+4      	; 0xc08 <_ZN14HardwareSerial3endEv+0x86>
     c04:	88 0f       	add	r24, r24
     c06:	99 1f       	adc	r25, r25
     c08:	0a 94       	dec	r0
     c0a:	e2 f7       	brpl	.-8      	; 0xc04 <_ZN14HardwareSerial3endEv+0x82>
     c0c:	80 95       	com	r24
     c0e:	82 23       	and	r24, r18
     c10:	8c 93       	st	X, r24
     c12:	84 85       	ldd	r24, Z+12	; 0x0c
     c14:	95 85       	ldd	r25, Z+13	; 0x0d
     c16:	fc 01       	movw	r30, r24
     c18:	ee 5b       	subi	r30, 0xBE	; 190
     c1a:	ff 4f       	sbci	r31, 0xFF	; 255
     c1c:	20 81       	ld	r18, Z
     c1e:	31 81       	ldd	r19, Z+1	; 0x01
     c20:	fc 01       	movw	r30, r24
     c22:	e0 5c       	subi	r30, 0xC0	; 192
     c24:	ff 4f       	sbci	r31, 0xFF	; 255
     c26:	31 83       	std	Z+1, r19	; 0x01
     c28:	20 83       	st	Z, r18
     c2a:	df 91       	pop	r29
     c2c:	cf 91       	pop	r28
     c2e:	08 95       	ret

00000c30 <_ZN14HardwareSerialcvbEv>:
     c30:	81 e0       	ldi	r24, 0x01	; 1
     c32:	08 95       	ret

00000c34 <_ZN5Print5writeEPKhj>:
     c34:	cf 92       	push	r12
     c36:	df 92       	push	r13
     c38:	ef 92       	push	r14
     c3a:	ff 92       	push	r15
     c3c:	0f 93       	push	r16
     c3e:	1f 93       	push	r17
     c40:	cf 93       	push	r28
     c42:	df 93       	push	r29
     c44:	6c 01       	movw	r12, r24
     c46:	eb 01       	movw	r28, r22
     c48:	7a 01       	movw	r14, r20
     c4a:	e6 0e       	add	r14, r22
     c4c:	f7 1e       	adc	r15, r23
     c4e:	00 e0       	ldi	r16, 0x00	; 0
     c50:	10 e0       	ldi	r17, 0x00	; 0
     c52:	0b c0       	rjmp	.+22     	; 0xc6a <_ZN5Print5writeEPKhj+0x36>
     c54:	69 91       	ld	r22, Y+
     c56:	d6 01       	movw	r26, r12
     c58:	ed 91       	ld	r30, X+
     c5a:	fc 91       	ld	r31, X
     c5c:	01 90       	ld	r0, Z+
     c5e:	f0 81       	ld	r31, Z
     c60:	e0 2d       	mov	r30, r0
     c62:	c6 01       	movw	r24, r12
     c64:	19 95       	eicall
     c66:	08 0f       	add	r16, r24
     c68:	19 1f       	adc	r17, r25
     c6a:	ce 15       	cp	r28, r14
     c6c:	df 05       	cpc	r29, r15
     c6e:	91 f7       	brne	.-28     	; 0xc54 <_ZN5Print5writeEPKhj+0x20>
     c70:	c8 01       	movw	r24, r16
     c72:	df 91       	pop	r29
     c74:	cf 91       	pop	r28
     c76:	1f 91       	pop	r17
     c78:	0f 91       	pop	r16
     c7a:	ff 90       	pop	r15
     c7c:	ef 90       	pop	r14
     c7e:	df 90       	pop	r13
     c80:	cf 90       	pop	r12
     c82:	08 95       	ret

00000c84 <_ZN5Print5printEPK19__FlashStringHelper>:
     c84:	ef 92       	push	r14
     c86:	ff 92       	push	r15
     c88:	0f 93       	push	r16
     c8a:	1f 93       	push	r17
     c8c:	cf 93       	push	r28
     c8e:	df 93       	push	r29
     c90:	7c 01       	movw	r14, r24
     c92:	eb 01       	movw	r28, r22
     c94:	00 e0       	ldi	r16, 0x00	; 0
     c96:	10 e0       	ldi	r17, 0x00	; 0
     c98:	fe 01       	movw	r30, r28
     c9a:	21 96       	adiw	r28, 0x01	; 1
     c9c:	64 91       	lpm	r22, Z+
     c9e:	66 23       	and	r22, r22
     ca0:	51 f0       	breq	.+20     	; 0xcb6 <_ZN5Print5printEPK19__FlashStringHelper+0x32>
     ca2:	f7 01       	movw	r30, r14
     ca4:	a0 81       	ld	r26, Z
     ca6:	b1 81       	ldd	r27, Z+1	; 0x01
     ca8:	ed 91       	ld	r30, X+
     caa:	fc 91       	ld	r31, X
     cac:	c7 01       	movw	r24, r14
     cae:	19 95       	eicall
     cb0:	08 0f       	add	r16, r24
     cb2:	19 1f       	adc	r17, r25
     cb4:	f1 cf       	rjmp	.-30     	; 0xc98 <_ZN5Print5printEPK19__FlashStringHelper+0x14>
     cb6:	c8 01       	movw	r24, r16
     cb8:	df 91       	pop	r29
     cba:	cf 91       	pop	r28
     cbc:	1f 91       	pop	r17
     cbe:	0f 91       	pop	r16
     cc0:	ff 90       	pop	r15
     cc2:	ef 90       	pop	r14
     cc4:	08 95       	ret

00000cc6 <_ZN5Print5printERK6String>:
     cc6:	af 92       	push	r10
     cc8:	bf 92       	push	r11
     cca:	cf 92       	push	r12
     ccc:	df 92       	push	r13
     cce:	ef 92       	push	r14
     cd0:	ff 92       	push	r15
     cd2:	0f 93       	push	r16
     cd4:	1f 93       	push	r17
     cd6:	cf 93       	push	r28
     cd8:	df 93       	push	r29
     cda:	7c 01       	movw	r14, r24
     cdc:	6b 01       	movw	r12, r22
     cde:	00 e0       	ldi	r16, 0x00	; 0
     ce0:	10 e0       	ldi	r17, 0x00	; 0
     ce2:	c0 e0       	ldi	r28, 0x00	; 0
     ce4:	d0 e0       	ldi	r29, 0x00	; 0
     ce6:	11 c0       	rjmp	.+34     	; 0xd0a <_ZN5Print5printERK6String+0x44>
     ce8:	d7 01       	movw	r26, r14
     cea:	ed 91       	ld	r30, X+
     cec:	fc 91       	ld	r31, X
     cee:	a0 80       	ld	r10, Z
     cf0:	b1 80       	ldd	r11, Z+1	; 0x01
     cf2:	b8 01       	movw	r22, r16
     cf4:	c6 01       	movw	r24, r12
     cf6:	0e 94 75 10 	call	0x20ea	; 0x20ea <_ZNK6StringixEj>
     cfa:	68 2f       	mov	r22, r24
     cfc:	c7 01       	movw	r24, r14
     cfe:	f5 01       	movw	r30, r10
     d00:	19 95       	eicall
     d02:	c8 0f       	add	r28, r24
     d04:	d9 1f       	adc	r29, r25
     d06:	0f 5f       	subi	r16, 0xFF	; 255
     d08:	1f 4f       	sbci	r17, 0xFF	; 255
     d0a:	d6 01       	movw	r26, r12
     d0c:	14 96       	adiw	r26, 0x04	; 4
     d0e:	8d 91       	ld	r24, X+
     d10:	9c 91       	ld	r25, X
     d12:	15 97       	sbiw	r26, 0x05	; 5
     d14:	08 17       	cp	r16, r24
     d16:	19 07       	cpc	r17, r25
     d18:	38 f3       	brcs	.-50     	; 0xce8 <_ZN5Print5printERK6String+0x22>
     d1a:	ce 01       	movw	r24, r28
     d1c:	df 91       	pop	r29
     d1e:	cf 91       	pop	r28
     d20:	1f 91       	pop	r17
     d22:	0f 91       	pop	r16
     d24:	ff 90       	pop	r15
     d26:	ef 90       	pop	r14
     d28:	df 90       	pop	r13
     d2a:	cf 90       	pop	r12
     d2c:	bf 90       	pop	r11
     d2e:	af 90       	pop	r10
     d30:	08 95       	ret

00000d32 <_ZN5Print5printEPKc>:
     d32:	0c 94 00 41 	jmp	0x8200	; 0x8200 <_ZN5Print5writeEPKc>

00000d36 <_ZN5Print5printEc>:
     d36:	dc 01       	movw	r26, r24
     d38:	ed 91       	ld	r30, X+
     d3a:	fc 91       	ld	r31, X
     d3c:	01 90       	ld	r0, Z+
     d3e:	f0 81       	ld	r31, Z
     d40:	e0 2d       	mov	r30, r0
     d42:	19 94       	eijmp

00000d44 <_ZN5Print5printERK9Printable>:
     d44:	db 01       	movw	r26, r22
     d46:	ed 91       	ld	r30, X+
     d48:	fc 91       	ld	r31, X
     d4a:	11 97       	sbiw	r26, 0x01	; 1
     d4c:	01 90       	ld	r0, Z+
     d4e:	f0 81       	ld	r31, Z
     d50:	e0 2d       	mov	r30, r0
     d52:	bc 01       	movw	r22, r24
     d54:	cd 01       	movw	r24, r26
     d56:	19 94       	eijmp

00000d58 <_ZN5Print7printlnEv>:
     d58:	0f 93       	push	r16
     d5a:	1f 93       	push	r17
     d5c:	cf 93       	push	r28
     d5e:	df 93       	push	r29
     d60:	ec 01       	movw	r28, r24
     d62:	6d e0       	ldi	r22, 0x0D	; 13
     d64:	0e 94 9b 06 	call	0xd36	; 0xd36 <_ZN5Print5printEc>
     d68:	8c 01       	movw	r16, r24
     d6a:	6a e0       	ldi	r22, 0x0A	; 10
     d6c:	ce 01       	movw	r24, r28
     d6e:	0e 94 9b 06 	call	0xd36	; 0xd36 <_ZN5Print5printEc>
     d72:	9c 01       	movw	r18, r24
     d74:	20 0f       	add	r18, r16
     d76:	31 1f       	adc	r19, r17
     d78:	c9 01       	movw	r24, r18
     d7a:	df 91       	pop	r29
     d7c:	cf 91       	pop	r28
     d7e:	1f 91       	pop	r17
     d80:	0f 91       	pop	r16
     d82:	08 95       	ret

00000d84 <_ZN5Print7printlnEPK19__FlashStringHelper>:
     d84:	0f 93       	push	r16
     d86:	1f 93       	push	r17
     d88:	cf 93       	push	r28
     d8a:	df 93       	push	r29
     d8c:	ec 01       	movw	r28, r24
     d8e:	0e 94 42 06 	call	0xc84	; 0xc84 <_ZN5Print5printEPK19__FlashStringHelper>
     d92:	8c 01       	movw	r16, r24
     d94:	ce 01       	movw	r24, r28
     d96:	0e 94 ac 06 	call	0xd58	; 0xd58 <_ZN5Print7printlnEv>
     d9a:	9c 01       	movw	r18, r24
     d9c:	20 0f       	add	r18, r16
     d9e:	31 1f       	adc	r19, r17
     da0:	c9 01       	movw	r24, r18
     da2:	df 91       	pop	r29
     da4:	cf 91       	pop	r28
     da6:	1f 91       	pop	r17
     da8:	0f 91       	pop	r16
     daa:	08 95       	ret

00000dac <_ZN5Print7printlnERK6String>:
     dac:	0f 93       	push	r16
     dae:	1f 93       	push	r17
     db0:	cf 93       	push	r28
     db2:	df 93       	push	r29
     db4:	ec 01       	movw	r28, r24
     db6:	0e 94 63 06 	call	0xcc6	; 0xcc6 <_ZN5Print5printERK6String>
     dba:	8c 01       	movw	r16, r24
     dbc:	ce 01       	movw	r24, r28
     dbe:	0e 94 ac 06 	call	0xd58	; 0xd58 <_ZN5Print7printlnEv>
     dc2:	9c 01       	movw	r18, r24
     dc4:	20 0f       	add	r18, r16
     dc6:	31 1f       	adc	r19, r17
     dc8:	c9 01       	movw	r24, r18
     dca:	df 91       	pop	r29
     dcc:	cf 91       	pop	r28
     dce:	1f 91       	pop	r17
     dd0:	0f 91       	pop	r16
     dd2:	08 95       	ret

00000dd4 <_ZN5Print7printlnEPKc>:
     dd4:	0f 93       	push	r16
     dd6:	1f 93       	push	r17
     dd8:	cf 93       	push	r28
     dda:	df 93       	push	r29
     ddc:	ec 01       	movw	r28, r24
     dde:	0e 94 00 41 	call	0x8200	; 0x8200 <_ZN5Print5writeEPKc>
     de2:	8c 01       	movw	r16, r24
     de4:	ce 01       	movw	r24, r28
     de6:	0e 94 ac 06 	call	0xd58	; 0xd58 <_ZN5Print7printlnEv>
     dea:	98 01       	movw	r18, r16
     dec:	28 0f       	add	r18, r24
     dee:	39 1f       	adc	r19, r25
     df0:	c9 01       	movw	r24, r18
     df2:	df 91       	pop	r29
     df4:	cf 91       	pop	r28
     df6:	1f 91       	pop	r17
     df8:	0f 91       	pop	r16
     dfa:	08 95       	ret

00000dfc <_ZN5Print7printlnEc>:
     dfc:	0f 93       	push	r16
     dfe:	1f 93       	push	r17
     e00:	cf 93       	push	r28
     e02:	df 93       	push	r29
     e04:	ec 01       	movw	r28, r24
     e06:	0e 94 9b 06 	call	0xd36	; 0xd36 <_ZN5Print5printEc>
     e0a:	8c 01       	movw	r16, r24
     e0c:	ce 01       	movw	r24, r28
     e0e:	0e 94 ac 06 	call	0xd58	; 0xd58 <_ZN5Print7printlnEv>
     e12:	9c 01       	movw	r18, r24
     e14:	20 0f       	add	r18, r16
     e16:	31 1f       	adc	r19, r17
     e18:	c9 01       	movw	r24, r18
     e1a:	df 91       	pop	r29
     e1c:	cf 91       	pop	r28
     e1e:	1f 91       	pop	r17
     e20:	0f 91       	pop	r16
     e22:	08 95       	ret

00000e24 <_ZN5Print7printlnERK9Printable>:
     e24:	0f 93       	push	r16
     e26:	1f 93       	push	r17
     e28:	cf 93       	push	r28
     e2a:	df 93       	push	r29
     e2c:	ec 01       	movw	r28, r24
     e2e:	0e 94 a2 06 	call	0xd44	; 0xd44 <_ZN5Print5printERK9Printable>
     e32:	8c 01       	movw	r16, r24
     e34:	ce 01       	movw	r24, r28
     e36:	0e 94 ac 06 	call	0xd58	; 0xd58 <_ZN5Print7printlnEv>
     e3a:	9c 01       	movw	r18, r24
     e3c:	20 0f       	add	r18, r16
     e3e:	31 1f       	adc	r19, r17
     e40:	c9 01       	movw	r24, r18
     e42:	df 91       	pop	r29
     e44:	cf 91       	pop	r28
     e46:	1f 91       	pop	r17
     e48:	0f 91       	pop	r16
     e4a:	08 95       	ret

00000e4c <_ZN5Print11printNumberEmh>:
     e4c:	5f 92       	push	r5
     e4e:	6f 92       	push	r6
     e50:	7f 92       	push	r7
     e52:	8f 92       	push	r8
     e54:	9f 92       	push	r9
     e56:	af 92       	push	r10
     e58:	bf 92       	push	r11
     e5a:	cf 92       	push	r12
     e5c:	df 92       	push	r13
     e5e:	ef 92       	push	r14
     e60:	ff 92       	push	r15
     e62:	0f 93       	push	r16
     e64:	1f 93       	push	r17
     e66:	cf 93       	push	r28
     e68:	df 93       	push	r29
     e6a:	cd b7       	in	r28, 0x3d	; 61
     e6c:	de b7       	in	r29, 0x3e	; 62
     e6e:	a1 97       	sbiw	r28, 0x21	; 33
     e70:	0f b6       	in	r0, 0x3f	; 63
     e72:	f8 94       	cli
     e74:	de bf       	out	0x3e, r29	; 62
     e76:	0f be       	out	0x3f, r0	; 63
     e78:	cd bf       	out	0x3d, r28	; 61
     e7a:	3c 01       	movw	r6, r24
     e7c:	6a 01       	movw	r12, r20
     e7e:	7b 01       	movw	r14, r22
     e80:	52 2e       	mov	r5, r18
     e82:	19 a2       	std	Y+33, r1	; 0x21
     e84:	81 e0       	ldi	r24, 0x01	; 1
     e86:	82 17       	cp	r24, r18
     e88:	10 f0       	brcs	.+4      	; 0xe8e <_ZN5Print11printNumberEmh+0x42>
     e8a:	8a e0       	ldi	r24, 0x0A	; 10
     e8c:	58 2e       	mov	r5, r24
     e8e:	8e 01       	movw	r16, r28
     e90:	0f 5d       	subi	r16, 0xDF	; 223
     e92:	1f 4f       	sbci	r17, 0xFF	; 255
     e94:	85 2c       	mov	r8, r5
     e96:	91 2c       	mov	r9, r1
     e98:	a1 2c       	mov	r10, r1
     e9a:	b1 2c       	mov	r11, r1
     e9c:	c7 01       	movw	r24, r14
     e9e:	b6 01       	movw	r22, r12
     ea0:	a5 01       	movw	r20, r10
     ea2:	94 01       	movw	r18, r8
     ea4:	0e 94 fd 44 	call	0x89fa	; 0x89fa <__udivmodsi4>
     ea8:	8c 2d       	mov	r24, r12
     eaa:	52 9e       	mul	r5, r18
     eac:	80 19       	sub	r24, r0
     eae:	11 24       	eor	r1, r1
     eb0:	01 50       	subi	r16, 0x01	; 1
     eb2:	11 09       	sbc	r17, r1
     eb4:	8a 30       	cpi	r24, 0x0A	; 10
     eb6:	10 f4       	brcc	.+4      	; 0xebc <_ZN5Print11printNumberEmh+0x70>
     eb8:	80 5d       	subi	r24, 0xD0	; 208
     eba:	01 c0       	rjmp	.+2      	; 0xebe <_ZN5Print11printNumberEmh+0x72>
     ebc:	89 5c       	subi	r24, 0xC9	; 201
     ebe:	f8 01       	movw	r30, r16
     ec0:	80 83       	st	Z, r24
     ec2:	69 01       	movw	r12, r18
     ec4:	7a 01       	movw	r14, r20
     ec6:	c1 14       	cp	r12, r1
     ec8:	d1 04       	cpc	r13, r1
     eca:	e1 04       	cpc	r14, r1
     ecc:	f1 04       	cpc	r15, r1
     ece:	31 f7       	brne	.-52     	; 0xe9c <_ZN5Print11printNumberEmh+0x50>
     ed0:	b8 01       	movw	r22, r16
     ed2:	c3 01       	movw	r24, r6
     ed4:	0e 94 00 41 	call	0x8200	; 0x8200 <_ZN5Print5writeEPKc>
     ed8:	a1 96       	adiw	r28, 0x21	; 33
     eda:	0f b6       	in	r0, 0x3f	; 63
     edc:	f8 94       	cli
     ede:	de bf       	out	0x3e, r29	; 62
     ee0:	0f be       	out	0x3f, r0	; 63
     ee2:	cd bf       	out	0x3d, r28	; 61
     ee4:	df 91       	pop	r29
     ee6:	cf 91       	pop	r28
     ee8:	1f 91       	pop	r17
     eea:	0f 91       	pop	r16
     eec:	ff 90       	pop	r15
     eee:	ef 90       	pop	r14
     ef0:	df 90       	pop	r13
     ef2:	cf 90       	pop	r12
     ef4:	bf 90       	pop	r11
     ef6:	af 90       	pop	r10
     ef8:	9f 90       	pop	r9
     efa:	8f 90       	pop	r8
     efc:	7f 90       	pop	r7
     efe:	6f 90       	pop	r6
     f00:	5f 90       	pop	r5
     f02:	08 95       	ret

00000f04 <_ZN5Print5printEmi>:
     f04:	21 15       	cp	r18, r1
     f06:	31 05       	cpc	r19, r1
     f08:	41 f4       	brne	.+16     	; 0xf1a <_ZN5Print5printEmi+0x16>
     f0a:	dc 01       	movw	r26, r24
     f0c:	ed 91       	ld	r30, X+
     f0e:	fc 91       	ld	r31, X
     f10:	01 90       	ld	r0, Z+
     f12:	f0 81       	ld	r31, Z
     f14:	e0 2d       	mov	r30, r0
     f16:	64 2f       	mov	r22, r20
     f18:	19 94       	eijmp
     f1a:	0c 94 26 07 	jmp	0xe4c	; 0xe4c <_ZN5Print11printNumberEmh>

00000f1e <_ZN5Print7printlnEmi>:
     f1e:	0f 93       	push	r16
     f20:	1f 93       	push	r17
     f22:	cf 93       	push	r28
     f24:	df 93       	push	r29
     f26:	ec 01       	movw	r28, r24
     f28:	0e 94 82 07 	call	0xf04	; 0xf04 <_ZN5Print5printEmi>
     f2c:	8c 01       	movw	r16, r24
     f2e:	ce 01       	movw	r24, r28
     f30:	0e 94 ac 06 	call	0xd58	; 0xd58 <_ZN5Print7printlnEv>
     f34:	9c 01       	movw	r18, r24
     f36:	20 0f       	add	r18, r16
     f38:	31 1f       	adc	r19, r17
     f3a:	c9 01       	movw	r24, r18
     f3c:	df 91       	pop	r29
     f3e:	cf 91       	pop	r28
     f40:	1f 91       	pop	r17
     f42:	0f 91       	pop	r16
     f44:	08 95       	ret

00000f46 <_ZN5Print5printEji>:
     f46:	9a 01       	movw	r18, r20
     f48:	ab 01       	movw	r20, r22
     f4a:	60 e0       	ldi	r22, 0x00	; 0
     f4c:	70 e0       	ldi	r23, 0x00	; 0
     f4e:	0c 94 82 07 	jmp	0xf04	; 0xf04 <_ZN5Print5printEmi>

00000f52 <_ZN5Print7printlnEji>:
     f52:	0f 93       	push	r16
     f54:	1f 93       	push	r17
     f56:	cf 93       	push	r28
     f58:	df 93       	push	r29
     f5a:	ec 01       	movw	r28, r24
     f5c:	9a 01       	movw	r18, r20
     f5e:	ab 01       	movw	r20, r22
     f60:	60 e0       	ldi	r22, 0x00	; 0
     f62:	70 e0       	ldi	r23, 0x00	; 0
     f64:	0e 94 82 07 	call	0xf04	; 0xf04 <_ZN5Print5printEmi>
     f68:	8c 01       	movw	r16, r24
     f6a:	ce 01       	movw	r24, r28
     f6c:	0e 94 ac 06 	call	0xd58	; 0xd58 <_ZN5Print7printlnEv>
     f70:	98 01       	movw	r18, r16
     f72:	28 0f       	add	r18, r24
     f74:	39 1f       	adc	r19, r25
     f76:	c9 01       	movw	r24, r18
     f78:	df 91       	pop	r29
     f7a:	cf 91       	pop	r28
     f7c:	1f 91       	pop	r17
     f7e:	0f 91       	pop	r16
     f80:	08 95       	ret

00000f82 <_ZN5Print5printEhi>:
     f82:	9a 01       	movw	r18, r20
     f84:	46 2f       	mov	r20, r22
     f86:	50 e0       	ldi	r21, 0x00	; 0
     f88:	60 e0       	ldi	r22, 0x00	; 0
     f8a:	70 e0       	ldi	r23, 0x00	; 0
     f8c:	0c 94 82 07 	jmp	0xf04	; 0xf04 <_ZN5Print5printEmi>

00000f90 <_ZN5Print7printlnEhi>:
     f90:	0f 93       	push	r16
     f92:	1f 93       	push	r17
     f94:	cf 93       	push	r28
     f96:	df 93       	push	r29
     f98:	ec 01       	movw	r28, r24
     f9a:	9a 01       	movw	r18, r20
     f9c:	46 2f       	mov	r20, r22
     f9e:	50 e0       	ldi	r21, 0x00	; 0
     fa0:	60 e0       	ldi	r22, 0x00	; 0
     fa2:	70 e0       	ldi	r23, 0x00	; 0
     fa4:	0e 94 82 07 	call	0xf04	; 0xf04 <_ZN5Print5printEmi>
     fa8:	8c 01       	movw	r16, r24
     faa:	ce 01       	movw	r24, r28
     fac:	0e 94 ac 06 	call	0xd58	; 0xd58 <_ZN5Print7printlnEv>
     fb0:	98 01       	movw	r18, r16
     fb2:	28 0f       	add	r18, r24
     fb4:	39 1f       	adc	r19, r25
     fb6:	c9 01       	movw	r24, r18
     fb8:	df 91       	pop	r29
     fba:	cf 91       	pop	r28
     fbc:	1f 91       	pop	r17
     fbe:	0f 91       	pop	r16
     fc0:	08 95       	ret

00000fc2 <_ZN5Print5printEli>:
     fc2:	cf 92       	push	r12
     fc4:	df 92       	push	r13
     fc6:	ef 92       	push	r14
     fc8:	ff 92       	push	r15
     fca:	0f 93       	push	r16
     fcc:	1f 93       	push	r17
     fce:	cf 93       	push	r28
     fd0:	df 93       	push	r29
     fd2:	ec 01       	movw	r28, r24
     fd4:	6a 01       	movw	r12, r20
     fd6:	7b 01       	movw	r14, r22
     fd8:	21 15       	cp	r18, r1
     fda:	31 05       	cpc	r19, r1
     fdc:	79 f4       	brne	.+30     	; 0xffc <_ZN5Print5printEli+0x3a>
     fde:	e8 81       	ld	r30, Y
     fe0:	f9 81       	ldd	r31, Y+1	; 0x01
     fe2:	01 90       	ld	r0, Z+
     fe4:	f0 81       	ld	r31, Z
     fe6:	e0 2d       	mov	r30, r0
     fe8:	64 2f       	mov	r22, r20
     fea:	df 91       	pop	r29
     fec:	cf 91       	pop	r28
     fee:	1f 91       	pop	r17
     ff0:	0f 91       	pop	r16
     ff2:	ff 90       	pop	r15
     ff4:	ef 90       	pop	r14
     ff6:	df 90       	pop	r13
     ff8:	cf 90       	pop	r12
     ffa:	19 94       	eijmp
     ffc:	2a 30       	cpi	r18, 0x0A	; 10
     ffe:	31 05       	cpc	r19, r1
    1000:	19 f4       	brne	.+6      	; 0x1008 <_ZN5Print5printEli+0x46>
    1002:	77 fd       	sbrc	r23, 7
    1004:	0e c0       	rjmp	.+28     	; 0x1022 <_ZN5Print5printEli+0x60>
    1006:	2a e0       	ldi	r18, 0x0A	; 10
    1008:	b7 01       	movw	r22, r14
    100a:	a6 01       	movw	r20, r12
    100c:	ce 01       	movw	r24, r28
    100e:	df 91       	pop	r29
    1010:	cf 91       	pop	r28
    1012:	1f 91       	pop	r17
    1014:	0f 91       	pop	r16
    1016:	ff 90       	pop	r15
    1018:	ef 90       	pop	r14
    101a:	df 90       	pop	r13
    101c:	cf 90       	pop	r12
    101e:	0c 94 26 07 	jmp	0xe4c	; 0xe4c <_ZN5Print11printNumberEmh>
    1022:	6d e2       	ldi	r22, 0x2D	; 45
    1024:	0e 94 9b 06 	call	0xd36	; 0xd36 <_ZN5Print5printEc>
    1028:	8c 01       	movw	r16, r24
    102a:	44 27       	eor	r20, r20
    102c:	55 27       	eor	r21, r21
    102e:	ba 01       	movw	r22, r20
    1030:	4c 19       	sub	r20, r12
    1032:	5d 09       	sbc	r21, r13
    1034:	6e 09       	sbc	r22, r14
    1036:	7f 09       	sbc	r23, r15
    1038:	2a e0       	ldi	r18, 0x0A	; 10
    103a:	ce 01       	movw	r24, r28
    103c:	0e 94 26 07 	call	0xe4c	; 0xe4c <_ZN5Print11printNumberEmh>
    1040:	9c 01       	movw	r18, r24
    1042:	20 0f       	add	r18, r16
    1044:	31 1f       	adc	r19, r17
    1046:	c9 01       	movw	r24, r18
    1048:	df 91       	pop	r29
    104a:	cf 91       	pop	r28
    104c:	1f 91       	pop	r17
    104e:	0f 91       	pop	r16
    1050:	ff 90       	pop	r15
    1052:	ef 90       	pop	r14
    1054:	df 90       	pop	r13
    1056:	cf 90       	pop	r12
    1058:	08 95       	ret

0000105a <_ZN5Print7printlnEli>:
    105a:	0f 93       	push	r16
    105c:	1f 93       	push	r17
    105e:	cf 93       	push	r28
    1060:	df 93       	push	r29
    1062:	ec 01       	movw	r28, r24
    1064:	0e 94 e1 07 	call	0xfc2	; 0xfc2 <_ZN5Print5printEli>
    1068:	8c 01       	movw	r16, r24
    106a:	ce 01       	movw	r24, r28
    106c:	0e 94 ac 06 	call	0xd58	; 0xd58 <_ZN5Print7printlnEv>
    1070:	9c 01       	movw	r18, r24
    1072:	20 0f       	add	r18, r16
    1074:	31 1f       	adc	r19, r17
    1076:	c9 01       	movw	r24, r18
    1078:	df 91       	pop	r29
    107a:	cf 91       	pop	r28
    107c:	1f 91       	pop	r17
    107e:	0f 91       	pop	r16
    1080:	08 95       	ret

00001082 <_ZN5Print5printEii>:
    1082:	9a 01       	movw	r18, r20
    1084:	ab 01       	movw	r20, r22
    1086:	66 27       	eor	r22, r22
    1088:	57 fd       	sbrc	r21, 7
    108a:	60 95       	com	r22
    108c:	76 2f       	mov	r23, r22
    108e:	0c 94 e1 07 	jmp	0xfc2	; 0xfc2 <_ZN5Print5printEli>

00001092 <_ZN5Print7printlnEii>:
    1092:	0f 93       	push	r16
    1094:	1f 93       	push	r17
    1096:	cf 93       	push	r28
    1098:	df 93       	push	r29
    109a:	ec 01       	movw	r28, r24
    109c:	9a 01       	movw	r18, r20
    109e:	ab 01       	movw	r20, r22
    10a0:	66 27       	eor	r22, r22
    10a2:	57 fd       	sbrc	r21, 7
    10a4:	60 95       	com	r22
    10a6:	76 2f       	mov	r23, r22
    10a8:	0e 94 e1 07 	call	0xfc2	; 0xfc2 <_ZN5Print5printEli>
    10ac:	8c 01       	movw	r16, r24
    10ae:	ce 01       	movw	r24, r28
    10b0:	0e 94 ac 06 	call	0xd58	; 0xd58 <_ZN5Print7printlnEv>
    10b4:	98 01       	movw	r18, r16
    10b6:	28 0f       	add	r18, r24
    10b8:	39 1f       	adc	r19, r25
    10ba:	c9 01       	movw	r24, r18
    10bc:	df 91       	pop	r29
    10be:	cf 91       	pop	r28
    10c0:	1f 91       	pop	r17
    10c2:	0f 91       	pop	r16
    10c4:	08 95       	ret

000010c6 <_ZN5Print10printFloatEdh>:
    10c6:	6f 92       	push	r6
    10c8:	7f 92       	push	r7
    10ca:	8f 92       	push	r8
    10cc:	9f 92       	push	r9
    10ce:	af 92       	push	r10
    10d0:	bf 92       	push	r11
    10d2:	cf 92       	push	r12
    10d4:	df 92       	push	r13
    10d6:	ef 92       	push	r14
    10d8:	ff 92       	push	r15
    10da:	0f 93       	push	r16
    10dc:	1f 93       	push	r17
    10de:	cf 93       	push	r28
    10e0:	8c 01       	movw	r16, r24
    10e2:	6a 01       	movw	r12, r20
    10e4:	7b 01       	movw	r14, r22
    10e6:	c2 2f       	mov	r28, r18
    10e8:	9a 01       	movw	r18, r20
    10ea:	ab 01       	movw	r20, r22
    10ec:	c7 01       	movw	r24, r14
    10ee:	b6 01       	movw	r22, r12
    10f0:	0e 94 a6 44 	call	0x894c	; 0x894c <__unordsf2>
    10f4:	88 23       	and	r24, r24
    10f6:	19 f0       	breq	.+6      	; 0x10fe <_ZN5Print10printFloatEdh+0x38>
    10f8:	68 e6       	ldi	r22, 0x68	; 104
    10fa:	76 e0       	ldi	r23, 0x06	; 6
    10fc:	32 c0       	rjmp	.+100    	; 0x1162 <_ZN5Print10printFloatEdh+0x9c>
    10fe:	46 01       	movw	r8, r12
    1100:	57 01       	movw	r10, r14
    1102:	e8 94       	clt
    1104:	b7 f8       	bld	r11, 7
    1106:	2f ef       	ldi	r18, 0xFF	; 255
    1108:	3f ef       	ldi	r19, 0xFF	; 255
    110a:	4f e7       	ldi	r20, 0x7F	; 127
    110c:	5f e7       	ldi	r21, 0x7F	; 127
    110e:	c5 01       	movw	r24, r10
    1110:	b4 01       	movw	r22, r8
    1112:	0e 94 a6 44 	call	0x894c	; 0x894c <__unordsf2>
    1116:	81 11       	cpse	r24, r1
    1118:	0d c0       	rjmp	.+26     	; 0x1134 <_ZN5Print10printFloatEdh+0x6e>
    111a:	2f ef       	ldi	r18, 0xFF	; 255
    111c:	3f ef       	ldi	r19, 0xFF	; 255
    111e:	4f e7       	ldi	r20, 0x7F	; 127
    1120:	5f e7       	ldi	r21, 0x7F	; 127
    1122:	c5 01       	movw	r24, r10
    1124:	b4 01       	movw	r22, r8
    1126:	0e 94 ea 41 	call	0x83d4	; 0x83d4 <__cmpsf2>
    112a:	18 16       	cp	r1, r24
    112c:	1c f4       	brge	.+6      	; 0x1134 <_ZN5Print10printFloatEdh+0x6e>
    112e:	6c e6       	ldi	r22, 0x6C	; 108
    1130:	76 e0       	ldi	r23, 0x06	; 6
    1132:	17 c0       	rjmp	.+46     	; 0x1162 <_ZN5Print10printFloatEdh+0x9c>
    1134:	2f ef       	ldi	r18, 0xFF	; 255
    1136:	3f ef       	ldi	r19, 0xFF	; 255
    1138:	4f e7       	ldi	r20, 0x7F	; 127
    113a:	5f e4       	ldi	r21, 0x4F	; 79
    113c:	c7 01       	movw	r24, r14
    113e:	b6 01       	movw	r22, r12
    1140:	0e 94 ed 43 	call	0x87da	; 0x87da <__gesf2>
    1144:	18 16       	cp	r1, r24
    1146:	0c f4       	brge	.+2      	; 0x114a <_ZN5Print10printFloatEdh+0x84>
    1148:	0a c0       	rjmp	.+20     	; 0x115e <_ZN5Print10printFloatEdh+0x98>
    114a:	2f ef       	ldi	r18, 0xFF	; 255
    114c:	3f ef       	ldi	r19, 0xFF	; 255
    114e:	4f e7       	ldi	r20, 0x7F	; 127
    1150:	5f ec       	ldi	r21, 0xCF	; 207
    1152:	c7 01       	movw	r24, r14
    1154:	b6 01       	movw	r22, r12
    1156:	0e 94 ea 41 	call	0x83d4	; 0x83d4 <__cmpsf2>
    115a:	87 ff       	sbrs	r24, 7
    115c:	12 c0       	rjmp	.+36     	; 0x1182 <_ZN5Print10printFloatEdh+0xbc>
    115e:	60 e7       	ldi	r22, 0x70	; 112
    1160:	76 e0       	ldi	r23, 0x06	; 6
    1162:	c8 01       	movw	r24, r16
    1164:	cf 91       	pop	r28
    1166:	1f 91       	pop	r17
    1168:	0f 91       	pop	r16
    116a:	ff 90       	pop	r15
    116c:	ef 90       	pop	r14
    116e:	df 90       	pop	r13
    1170:	cf 90       	pop	r12
    1172:	bf 90       	pop	r11
    1174:	af 90       	pop	r10
    1176:	9f 90       	pop	r9
    1178:	8f 90       	pop	r8
    117a:	7f 90       	pop	r7
    117c:	6f 90       	pop	r6
    117e:	0c 94 00 41 	jmp	0x8200	; 0x8200 <_ZN5Print5writeEPKc>
    1182:	20 e0       	ldi	r18, 0x00	; 0
    1184:	30 e0       	ldi	r19, 0x00	; 0
    1186:	a9 01       	movw	r20, r18
    1188:	c7 01       	movw	r24, r14
    118a:	b6 01       	movw	r22, r12
    118c:	0e 94 ea 41 	call	0x83d4	; 0x83d4 <__cmpsf2>
    1190:	87 ff       	sbrs	r24, 7
    1192:	0a c0       	rjmp	.+20     	; 0x11a8 <_ZN5Print10printFloatEdh+0xe2>
    1194:	6d e2       	ldi	r22, 0x2D	; 45
    1196:	c8 01       	movw	r24, r16
    1198:	0e 94 9b 06 	call	0xd36	; 0xd36 <_ZN5Print5printEc>
    119c:	3c 01       	movw	r6, r24
    119e:	f7 fa       	bst	r15, 7
    11a0:	f0 94       	com	r15
    11a2:	f7 f8       	bld	r15, 7
    11a4:	f0 94       	com	r15
    11a6:	02 c0       	rjmp	.+4      	; 0x11ac <_ZN5Print10printFloatEdh+0xe6>
    11a8:	61 2c       	mov	r6, r1
    11aa:	71 2c       	mov	r7, r1
    11ac:	b1 2c       	mov	r11, r1
    11ae:	60 e0       	ldi	r22, 0x00	; 0
    11b0:	70 e0       	ldi	r23, 0x00	; 0
    11b2:	80 e0       	ldi	r24, 0x00	; 0
    11b4:	9f e3       	ldi	r25, 0x3F	; 63
    11b6:	07 c0       	rjmp	.+14     	; 0x11c6 <_ZN5Print10printFloatEdh+0x100>
    11b8:	20 e0       	ldi	r18, 0x00	; 0
    11ba:	30 e0       	ldi	r19, 0x00	; 0
    11bc:	40 e2       	ldi	r20, 0x20	; 32
    11be:	51 e4       	ldi	r21, 0x41	; 65
    11c0:	0e 94 f1 41 	call	0x83e2	; 0x83e2 <__divsf3>
    11c4:	b3 94       	inc	r11
    11c6:	bc 12       	cpse	r11, r28
    11c8:	f7 cf       	rjmp	.-18     	; 0x11b8 <_ZN5Print10printFloatEdh+0xf2>
    11ca:	26 2f       	mov	r18, r22
    11cc:	37 2f       	mov	r19, r23
    11ce:	48 2f       	mov	r20, r24
    11d0:	59 2f       	mov	r21, r25
    11d2:	c7 01       	movw	r24, r14
    11d4:	b6 01       	movw	r22, r12
    11d6:	0e 94 24 41 	call	0x8248	; 0x8248 <__addsf3>
    11da:	4b 01       	movw	r8, r22
    11dc:	5c 01       	movw	r10, r24
    11de:	79 2d       	mov	r23, r9
    11e0:	9b 2d       	mov	r25, r11
    11e2:	0e 94 5e 42 	call	0x84bc	; 0x84bc <__fixunssfsi>
    11e6:	6b 01       	movw	r12, r22
    11e8:	7c 01       	movw	r14, r24
    11ea:	0e 94 8a 42 	call	0x8514	; 0x8514 <__floatunsisf>
    11ee:	9b 01       	movw	r18, r22
    11f0:	ac 01       	movw	r20, r24
    11f2:	68 2d       	mov	r22, r8
    11f4:	79 2d       	mov	r23, r9
    11f6:	8a 2d       	mov	r24, r10
    11f8:	9b 2d       	mov	r25, r11
    11fa:	0e 94 23 41 	call	0x8246	; 0x8246 <__subsf3>
    11fe:	b6 2e       	mov	r11, r22
    1200:	a7 2e       	mov	r10, r23
    1202:	98 2e       	mov	r9, r24
    1204:	89 2e       	mov	r8, r25
    1206:	2a e0       	ldi	r18, 0x0A	; 10
    1208:	a6 01       	movw	r20, r12
    120a:	b7 01       	movw	r22, r14
    120c:	c8 01       	movw	r24, r16
    120e:	0e 94 26 07 	call	0xe4c	; 0xe4c <_ZN5Print11printNumberEmh>
    1212:	68 0e       	add	r6, r24
    1214:	79 1e       	adc	r7, r25
    1216:	cc 23       	and	r28, r28
    1218:	c9 f1       	breq	.+114    	; 0x128c <_ZN5Print10printFloatEdh+0x1c6>
    121a:	65 e5       	ldi	r22, 0x55	; 85
    121c:	74 e0       	ldi	r23, 0x04	; 4
    121e:	c8 01       	movw	r24, r16
    1220:	0e 94 00 41 	call	0x8200	; 0x8200 <_ZN5Print5writeEPKc>
    1224:	68 0e       	add	r6, r24
    1226:	79 1e       	adc	r7, r25
    1228:	31 c0       	rjmp	.+98     	; 0x128c <_ZN5Print10printFloatEdh+0x1c6>
    122a:	20 e0       	ldi	r18, 0x00	; 0
    122c:	30 e0       	ldi	r19, 0x00	; 0
    122e:	40 e2       	ldi	r20, 0x20	; 32
    1230:	51 e4       	ldi	r21, 0x41	; 65
    1232:	d5 01       	movw	r26, r10
    1234:	f4 01       	movw	r30, r8
    1236:	6b 2f       	mov	r22, r27
    1238:	7a 2d       	mov	r23, r10
    123a:	8f 2f       	mov	r24, r31
    123c:	98 2d       	mov	r25, r8
    123e:	0e 94 f8 43 	call	0x87f0	; 0x87f0 <__mulsf3>
    1242:	4b 01       	movw	r8, r22
    1244:	5c 01       	movw	r10, r24
    1246:	79 2d       	mov	r23, r9
    1248:	9b 2d       	mov	r25, r11
    124a:	0e 94 59 42 	call	0x84b2	; 0x84b2 <__fixsfsi>
    124e:	6b 01       	movw	r12, r22
    1250:	ee 24       	eor	r14, r14
    1252:	d7 fc       	sbrc	r13, 7
    1254:	e0 94       	com	r14
    1256:	fe 2c       	mov	r15, r14
    1258:	2a e0       	ldi	r18, 0x0A	; 10
    125a:	30 e0       	ldi	r19, 0x00	; 0
    125c:	b7 01       	movw	r22, r14
    125e:	a6 01       	movw	r20, r12
    1260:	c8 01       	movw	r24, r16
    1262:	0e 94 e1 07 	call	0xfc2	; 0xfc2 <_ZN5Print5printEli>
    1266:	68 0e       	add	r6, r24
    1268:	79 1e       	adc	r7, r25
    126a:	c7 01       	movw	r24, r14
    126c:	b6 01       	movw	r22, r12
    126e:	0e 94 8c 42 	call	0x8518	; 0x8518 <__floatsisf>
    1272:	9b 01       	movw	r18, r22
    1274:	ac 01       	movw	r20, r24
    1276:	68 2d       	mov	r22, r8
    1278:	79 2d       	mov	r23, r9
    127a:	8a 2d       	mov	r24, r10
    127c:	9b 2d       	mov	r25, r11
    127e:	0e 94 23 41 	call	0x8246	; 0x8246 <__subsf3>
    1282:	b6 2e       	mov	r11, r22
    1284:	a7 2e       	mov	r10, r23
    1286:	98 2e       	mov	r9, r24
    1288:	89 2e       	mov	r8, r25
    128a:	c1 50       	subi	r28, 0x01	; 1
    128c:	c1 11       	cpse	r28, r1
    128e:	cd cf       	rjmp	.-102    	; 0x122a <_ZN5Print10printFloatEdh+0x164>
    1290:	c3 01       	movw	r24, r6
    1292:	cf 91       	pop	r28
    1294:	1f 91       	pop	r17
    1296:	0f 91       	pop	r16
    1298:	ff 90       	pop	r15
    129a:	ef 90       	pop	r14
    129c:	df 90       	pop	r13
    129e:	cf 90       	pop	r12
    12a0:	bf 90       	pop	r11
    12a2:	af 90       	pop	r10
    12a4:	9f 90       	pop	r9
    12a6:	8f 90       	pop	r8
    12a8:	7f 90       	pop	r7
    12aa:	6f 90       	pop	r6
    12ac:	08 95       	ret

000012ae <_ZN5Print5printEdi>:
    12ae:	0c 94 63 08 	jmp	0x10c6	; 0x10c6 <_ZN5Print10printFloatEdh>

000012b2 <_ZN5Print7printlnEdi>:
    12b2:	0f 93       	push	r16
    12b4:	1f 93       	push	r17
    12b6:	cf 93       	push	r28
    12b8:	df 93       	push	r29
    12ba:	ec 01       	movw	r28, r24
    12bc:	0e 94 63 08 	call	0x10c6	; 0x10c6 <_ZN5Print10printFloatEdh>
    12c0:	8c 01       	movw	r16, r24
    12c2:	ce 01       	movw	r24, r28
    12c4:	0e 94 ac 06 	call	0xd58	; 0xd58 <_ZN5Print7printlnEv>
    12c8:	98 01       	movw	r18, r16
    12ca:	28 0f       	add	r18, r24
    12cc:	39 1f       	adc	r19, r25
    12ce:	c9 01       	movw	r24, r18
    12d0:	df 91       	pop	r29
    12d2:	cf 91       	pop	r28
    12d4:	1f 91       	pop	r17
    12d6:	0f 91       	pop	r16
    12d8:	08 95       	ret

000012da <attachInterrupt>:
    12da:	88 30       	cpi	r24, 0x08	; 8
    12dc:	08 f0       	brcs	.+2      	; 0x12e0 <attachInterrupt+0x6>
    12de:	73 c0       	rjmp	.+230    	; 0x13c6 <attachInterrupt+0xec>
    12e0:	e8 2f       	mov	r30, r24
    12e2:	f0 e0       	ldi	r31, 0x00	; 0
    12e4:	ee 0f       	add	r30, r30
    12e6:	ff 1f       	adc	r31, r31
    12e8:	e4 5e       	subi	r30, 0xE4	; 228
    12ea:	f6 4f       	sbci	r31, 0xF6	; 246
    12ec:	71 83       	std	Z+1, r23	; 0x01
    12ee:	60 83       	st	Z, r22
    12f0:	84 30       	cpi	r24, 0x04	; 4
    12f2:	11 f1       	breq	.+68     	; 0x1338 <attachInterrupt+0x5e>
    12f4:	30 f4       	brcc	.+12     	; 0x1302 <attachInterrupt+0x28>
    12f6:	82 30       	cpi	r24, 0x02	; 2
    12f8:	59 f0       	breq	.+22     	; 0x1310 <attachInterrupt+0x36>
    12fa:	90 f4       	brcc	.+36     	; 0x1320 <attachInterrupt+0x46>
    12fc:	81 30       	cpi	r24, 0x01	; 1
    12fe:	b1 f5       	brne	.+108    	; 0x136c <attachInterrupt+0x92>
    1300:	3d c0       	rjmp	.+122    	; 0x137c <attachInterrupt+0xa2>
    1302:	86 30       	cpi	r24, 0x06	; 6
    1304:	09 f4       	brne	.+2      	; 0x1308 <attachInterrupt+0x2e>
    1306:	46 c0       	rjmp	.+140    	; 0x1394 <attachInterrupt+0xba>
    1308:	20 f1       	brcs	.+72     	; 0x1352 <attachInterrupt+0x78>
    130a:	87 30       	cpi	r24, 0x07	; 7
    130c:	79 f5       	brne	.+94     	; 0x136c <attachInterrupt+0x92>
    130e:	4f c0       	rjmp	.+158    	; 0x13ae <attachInterrupt+0xd4>
    1310:	80 91 69 00 	lds	r24, 0x0069
    1314:	8c 7f       	andi	r24, 0xFC	; 252
    1316:	84 2b       	or	r24, r20
    1318:	80 93 69 00 	sts	0x0069, r24
    131c:	e8 9a       	sbi	0x1d, 0	; 29
    131e:	08 95       	ret
    1320:	80 91 69 00 	lds	r24, 0x0069
    1324:	44 0f       	add	r20, r20
    1326:	55 1f       	adc	r21, r21
    1328:	44 0f       	add	r20, r20
    132a:	55 1f       	adc	r21, r21
    132c:	83 7f       	andi	r24, 0xF3	; 243
    132e:	84 2b       	or	r24, r20
    1330:	80 93 69 00 	sts	0x0069, r24
    1334:	e9 9a       	sbi	0x1d, 1	; 29
    1336:	08 95       	ret
    1338:	80 91 69 00 	lds	r24, 0x0069
    133c:	74 e0       	ldi	r23, 0x04	; 4
    133e:	44 0f       	add	r20, r20
    1340:	55 1f       	adc	r21, r21
    1342:	7a 95       	dec	r23
    1344:	e1 f7       	brne	.-8      	; 0x133e <attachInterrupt+0x64>
    1346:	8f 7c       	andi	r24, 0xCF	; 207
    1348:	84 2b       	or	r24, r20
    134a:	80 93 69 00 	sts	0x0069, r24
    134e:	ea 9a       	sbi	0x1d, 2	; 29
    1350:	08 95       	ret
    1352:	80 91 69 00 	lds	r24, 0x0069
    1356:	66 e0       	ldi	r22, 0x06	; 6
    1358:	44 0f       	add	r20, r20
    135a:	55 1f       	adc	r21, r21
    135c:	6a 95       	dec	r22
    135e:	e1 f7       	brne	.-8      	; 0x1358 <attachInterrupt+0x7e>
    1360:	8f 73       	andi	r24, 0x3F	; 63
    1362:	84 2b       	or	r24, r20
    1364:	80 93 69 00 	sts	0x0069, r24
    1368:	eb 9a       	sbi	0x1d, 3	; 29
    136a:	08 95       	ret
    136c:	80 91 6a 00 	lds	r24, 0x006A
    1370:	8c 7f       	andi	r24, 0xFC	; 252
    1372:	84 2b       	or	r24, r20
    1374:	80 93 6a 00 	sts	0x006A, r24
    1378:	ec 9a       	sbi	0x1d, 4	; 29
    137a:	08 95       	ret
    137c:	80 91 6a 00 	lds	r24, 0x006A
    1380:	44 0f       	add	r20, r20
    1382:	55 1f       	adc	r21, r21
    1384:	44 0f       	add	r20, r20
    1386:	55 1f       	adc	r21, r21
    1388:	83 7f       	andi	r24, 0xF3	; 243
    138a:	84 2b       	or	r24, r20
    138c:	80 93 6a 00 	sts	0x006A, r24
    1390:	ed 9a       	sbi	0x1d, 5	; 29
    1392:	08 95       	ret
    1394:	80 91 6a 00 	lds	r24, 0x006A
    1398:	24 e0       	ldi	r18, 0x04	; 4
    139a:	44 0f       	add	r20, r20
    139c:	55 1f       	adc	r21, r21
    139e:	2a 95       	dec	r18
    13a0:	e1 f7       	brne	.-8      	; 0x139a <attachInterrupt+0xc0>
    13a2:	8f 7c       	andi	r24, 0xCF	; 207
    13a4:	84 2b       	or	r24, r20
    13a6:	80 93 6a 00 	sts	0x006A, r24
    13aa:	ee 9a       	sbi	0x1d, 6	; 29
    13ac:	08 95       	ret
    13ae:	80 91 6a 00 	lds	r24, 0x006A
    13b2:	96 e0       	ldi	r25, 0x06	; 6
    13b4:	44 0f       	add	r20, r20
    13b6:	55 1f       	adc	r21, r21
    13b8:	9a 95       	dec	r25
    13ba:	e1 f7       	brne	.-8      	; 0x13b4 <attachInterrupt+0xda>
    13bc:	8f 73       	andi	r24, 0x3F	; 63
    13be:	84 2b       	or	r24, r20
    13c0:	80 93 6a 00 	sts	0x006A, r24
    13c4:	ef 9a       	sbi	0x1d, 7	; 29
    13c6:	08 95       	ret

000013c8 <detachInterrupt>:
    13c8:	88 30       	cpi	r24, 0x08	; 8
    13ca:	30 f5       	brcc	.+76     	; 0x1418 <detachInterrupt+0x50>
    13cc:	84 30       	cpi	r24, 0x04	; 4
    13ce:	89 f0       	breq	.+34     	; 0x13f2 <detachInterrupt+0x2a>
    13d0:	30 f4       	brcc	.+12     	; 0x13de <detachInterrupt+0x16>
    13d2:	82 30       	cpi	r24, 0x02	; 2
    13d4:	51 f0       	breq	.+20     	; 0x13ea <detachInterrupt+0x22>
    13d6:	58 f4       	brcc	.+22     	; 0x13ee <detachInterrupt+0x26>
    13d8:	81 30       	cpi	r24, 0x01	; 1
    13da:	79 f4       	brne	.+30     	; 0x13fa <detachInterrupt+0x32>
    13dc:	10 c0       	rjmp	.+32     	; 0x13fe <detachInterrupt+0x36>
    13de:	86 30       	cpi	r24, 0x06	; 6
    13e0:	81 f0       	breq	.+32     	; 0x1402 <detachInterrupt+0x3a>
    13e2:	48 f0       	brcs	.+18     	; 0x13f6 <detachInterrupt+0x2e>
    13e4:	87 30       	cpi	r24, 0x07	; 7
    13e6:	49 f4       	brne	.+18     	; 0x13fa <detachInterrupt+0x32>
    13e8:	0e c0       	rjmp	.+28     	; 0x1406 <detachInterrupt+0x3e>
    13ea:	e8 98       	cbi	0x1d, 0	; 29
    13ec:	0d c0       	rjmp	.+26     	; 0x1408 <detachInterrupt+0x40>
    13ee:	e9 98       	cbi	0x1d, 1	; 29
    13f0:	0b c0       	rjmp	.+22     	; 0x1408 <detachInterrupt+0x40>
    13f2:	ea 98       	cbi	0x1d, 2	; 29
    13f4:	09 c0       	rjmp	.+18     	; 0x1408 <detachInterrupt+0x40>
    13f6:	eb 98       	cbi	0x1d, 3	; 29
    13f8:	07 c0       	rjmp	.+14     	; 0x1408 <detachInterrupt+0x40>
    13fa:	ec 98       	cbi	0x1d, 4	; 29
    13fc:	05 c0       	rjmp	.+10     	; 0x1408 <detachInterrupt+0x40>
    13fe:	ed 98       	cbi	0x1d, 5	; 29
    1400:	03 c0       	rjmp	.+6      	; 0x1408 <detachInterrupt+0x40>
    1402:	ee 98       	cbi	0x1d, 6	; 29
    1404:	01 c0       	rjmp	.+2      	; 0x1408 <detachInterrupt+0x40>
    1406:	ef 98       	cbi	0x1d, 7	; 29
    1408:	e8 2f       	mov	r30, r24
    140a:	f0 e0       	ldi	r31, 0x00	; 0
    140c:	ee 0f       	add	r30, r30
    140e:	ff 1f       	adc	r31, r31
    1410:	e4 5e       	subi	r30, 0xE4	; 228
    1412:	f6 4f       	sbci	r31, 0xF6	; 246
    1414:	11 82       	std	Z+1, r1	; 0x01
    1416:	10 82       	st	Z, r1
    1418:	08 95       	ret

0000141a <__vector_1>:
    141a:	1f 92       	push	r1
    141c:	0f 92       	push	r0
    141e:	0f b6       	in	r0, 0x3f	; 63
    1420:	0f 92       	push	r0
    1422:	11 24       	eor	r1, r1
    1424:	0b b6       	in	r0, 0x3b	; 59
    1426:	0f 92       	push	r0
    1428:	1b be       	out	0x3b, r1	; 59
    142a:	2f 93       	push	r18
    142c:	3f 93       	push	r19
    142e:	4f 93       	push	r20
    1430:	5f 93       	push	r21
    1432:	6f 93       	push	r22
    1434:	7f 93       	push	r23
    1436:	8f 93       	push	r24
    1438:	9f 93       	push	r25
    143a:	af 93       	push	r26
    143c:	bf 93       	push	r27
    143e:	ef 93       	push	r30
    1440:	ff 93       	push	r31
    1442:	80 91 20 09 	lds	r24, 0x0920
    1446:	90 91 21 09 	lds	r25, 0x0921
    144a:	89 2b       	or	r24, r25
    144c:	29 f0       	breq	.+10     	; 0x1458 <__vector_1+0x3e>
    144e:	e0 91 20 09 	lds	r30, 0x0920
    1452:	f0 91 21 09 	lds	r31, 0x0921
    1456:	19 95       	eicall
    1458:	ff 91       	pop	r31
    145a:	ef 91       	pop	r30
    145c:	bf 91       	pop	r27
    145e:	af 91       	pop	r26
    1460:	9f 91       	pop	r25
    1462:	8f 91       	pop	r24
    1464:	7f 91       	pop	r23
    1466:	6f 91       	pop	r22
    1468:	5f 91       	pop	r21
    146a:	4f 91       	pop	r20
    146c:	3f 91       	pop	r19
    146e:	2f 91       	pop	r18
    1470:	0f 90       	pop	r0
    1472:	0b be       	out	0x3b, r0	; 59
    1474:	0f 90       	pop	r0
    1476:	0f be       	out	0x3f, r0	; 63
    1478:	0f 90       	pop	r0
    147a:	1f 90       	pop	r1
    147c:	18 95       	reti

0000147e <__vector_2>:
    147e:	1f 92       	push	r1
    1480:	0f 92       	push	r0
    1482:	0f b6       	in	r0, 0x3f	; 63
    1484:	0f 92       	push	r0
    1486:	11 24       	eor	r1, r1
    1488:	0b b6       	in	r0, 0x3b	; 59
    148a:	0f 92       	push	r0
    148c:	1b be       	out	0x3b, r1	; 59
    148e:	2f 93       	push	r18
    1490:	3f 93       	push	r19
    1492:	4f 93       	push	r20
    1494:	5f 93       	push	r21
    1496:	6f 93       	push	r22
    1498:	7f 93       	push	r23
    149a:	8f 93       	push	r24
    149c:	9f 93       	push	r25
    149e:	af 93       	push	r26
    14a0:	bf 93       	push	r27
    14a2:	ef 93       	push	r30
    14a4:	ff 93       	push	r31
    14a6:	80 91 22 09 	lds	r24, 0x0922
    14aa:	90 91 23 09 	lds	r25, 0x0923
    14ae:	89 2b       	or	r24, r25
    14b0:	29 f0       	breq	.+10     	; 0x14bc <__vector_2+0x3e>
    14b2:	e0 91 22 09 	lds	r30, 0x0922
    14b6:	f0 91 23 09 	lds	r31, 0x0923
    14ba:	19 95       	eicall
    14bc:	ff 91       	pop	r31
    14be:	ef 91       	pop	r30
    14c0:	bf 91       	pop	r27
    14c2:	af 91       	pop	r26
    14c4:	9f 91       	pop	r25
    14c6:	8f 91       	pop	r24
    14c8:	7f 91       	pop	r23
    14ca:	6f 91       	pop	r22
    14cc:	5f 91       	pop	r21
    14ce:	4f 91       	pop	r20
    14d0:	3f 91       	pop	r19
    14d2:	2f 91       	pop	r18
    14d4:	0f 90       	pop	r0
    14d6:	0b be       	out	0x3b, r0	; 59
    14d8:	0f 90       	pop	r0
    14da:	0f be       	out	0x3f, r0	; 63
    14dc:	0f 90       	pop	r0
    14de:	1f 90       	pop	r1
    14e0:	18 95       	reti

000014e2 <__vector_3>:
    14e2:	1f 92       	push	r1
    14e4:	0f 92       	push	r0
    14e6:	0f b6       	in	r0, 0x3f	; 63
    14e8:	0f 92       	push	r0
    14ea:	11 24       	eor	r1, r1
    14ec:	0b b6       	in	r0, 0x3b	; 59
    14ee:	0f 92       	push	r0
    14f0:	1b be       	out	0x3b, r1	; 59
    14f2:	2f 93       	push	r18
    14f4:	3f 93       	push	r19
    14f6:	4f 93       	push	r20
    14f8:	5f 93       	push	r21
    14fa:	6f 93       	push	r22
    14fc:	7f 93       	push	r23
    14fe:	8f 93       	push	r24
    1500:	9f 93       	push	r25
    1502:	af 93       	push	r26
    1504:	bf 93       	push	r27
    1506:	ef 93       	push	r30
    1508:	ff 93       	push	r31
    150a:	80 91 24 09 	lds	r24, 0x0924
    150e:	90 91 25 09 	lds	r25, 0x0925
    1512:	89 2b       	or	r24, r25
    1514:	29 f0       	breq	.+10     	; 0x1520 <__vector_3+0x3e>
    1516:	e0 91 24 09 	lds	r30, 0x0924
    151a:	f0 91 25 09 	lds	r31, 0x0925
    151e:	19 95       	eicall
    1520:	ff 91       	pop	r31
    1522:	ef 91       	pop	r30
    1524:	bf 91       	pop	r27
    1526:	af 91       	pop	r26
    1528:	9f 91       	pop	r25
    152a:	8f 91       	pop	r24
    152c:	7f 91       	pop	r23
    152e:	6f 91       	pop	r22
    1530:	5f 91       	pop	r21
    1532:	4f 91       	pop	r20
    1534:	3f 91       	pop	r19
    1536:	2f 91       	pop	r18
    1538:	0f 90       	pop	r0
    153a:	0b be       	out	0x3b, r0	; 59
    153c:	0f 90       	pop	r0
    153e:	0f be       	out	0x3f, r0	; 63
    1540:	0f 90       	pop	r0
    1542:	1f 90       	pop	r1
    1544:	18 95       	reti

00001546 <__vector_4>:
    1546:	1f 92       	push	r1
    1548:	0f 92       	push	r0
    154a:	0f b6       	in	r0, 0x3f	; 63
    154c:	0f 92       	push	r0
    154e:	11 24       	eor	r1, r1
    1550:	0b b6       	in	r0, 0x3b	; 59
    1552:	0f 92       	push	r0
    1554:	1b be       	out	0x3b, r1	; 59
    1556:	2f 93       	push	r18
    1558:	3f 93       	push	r19
    155a:	4f 93       	push	r20
    155c:	5f 93       	push	r21
    155e:	6f 93       	push	r22
    1560:	7f 93       	push	r23
    1562:	8f 93       	push	r24
    1564:	9f 93       	push	r25
    1566:	af 93       	push	r26
    1568:	bf 93       	push	r27
    156a:	ef 93       	push	r30
    156c:	ff 93       	push	r31
    156e:	80 91 26 09 	lds	r24, 0x0926
    1572:	90 91 27 09 	lds	r25, 0x0927
    1576:	89 2b       	or	r24, r25
    1578:	29 f0       	breq	.+10     	; 0x1584 <__vector_4+0x3e>
    157a:	e0 91 26 09 	lds	r30, 0x0926
    157e:	f0 91 27 09 	lds	r31, 0x0927
    1582:	19 95       	eicall
    1584:	ff 91       	pop	r31
    1586:	ef 91       	pop	r30
    1588:	bf 91       	pop	r27
    158a:	af 91       	pop	r26
    158c:	9f 91       	pop	r25
    158e:	8f 91       	pop	r24
    1590:	7f 91       	pop	r23
    1592:	6f 91       	pop	r22
    1594:	5f 91       	pop	r21
    1596:	4f 91       	pop	r20
    1598:	3f 91       	pop	r19
    159a:	2f 91       	pop	r18
    159c:	0f 90       	pop	r0
    159e:	0b be       	out	0x3b, r0	; 59
    15a0:	0f 90       	pop	r0
    15a2:	0f be       	out	0x3f, r0	; 63
    15a4:	0f 90       	pop	r0
    15a6:	1f 90       	pop	r1
    15a8:	18 95       	reti

000015aa <__vector_5>:
    15aa:	1f 92       	push	r1
    15ac:	0f 92       	push	r0
    15ae:	0f b6       	in	r0, 0x3f	; 63
    15b0:	0f 92       	push	r0
    15b2:	11 24       	eor	r1, r1
    15b4:	0b b6       	in	r0, 0x3b	; 59
    15b6:	0f 92       	push	r0
    15b8:	1b be       	out	0x3b, r1	; 59
    15ba:	2f 93       	push	r18
    15bc:	3f 93       	push	r19
    15be:	4f 93       	push	r20
    15c0:	5f 93       	push	r21
    15c2:	6f 93       	push	r22
    15c4:	7f 93       	push	r23
    15c6:	8f 93       	push	r24
    15c8:	9f 93       	push	r25
    15ca:	af 93       	push	r26
    15cc:	bf 93       	push	r27
    15ce:	ef 93       	push	r30
    15d0:	ff 93       	push	r31
    15d2:	80 91 1c 09 	lds	r24, 0x091C
    15d6:	90 91 1d 09 	lds	r25, 0x091D
    15da:	89 2b       	or	r24, r25
    15dc:	29 f0       	breq	.+10     	; 0x15e8 <__vector_5+0x3e>
    15de:	e0 91 1c 09 	lds	r30, 0x091C
    15e2:	f0 91 1d 09 	lds	r31, 0x091D
    15e6:	19 95       	eicall
    15e8:	ff 91       	pop	r31
    15ea:	ef 91       	pop	r30
    15ec:	bf 91       	pop	r27
    15ee:	af 91       	pop	r26
    15f0:	9f 91       	pop	r25
    15f2:	8f 91       	pop	r24
    15f4:	7f 91       	pop	r23
    15f6:	6f 91       	pop	r22
    15f8:	5f 91       	pop	r21
    15fa:	4f 91       	pop	r20
    15fc:	3f 91       	pop	r19
    15fe:	2f 91       	pop	r18
    1600:	0f 90       	pop	r0
    1602:	0b be       	out	0x3b, r0	; 59
    1604:	0f 90       	pop	r0
    1606:	0f be       	out	0x3f, r0	; 63
    1608:	0f 90       	pop	r0
    160a:	1f 90       	pop	r1
    160c:	18 95       	reti

0000160e <__vector_6>:
    160e:	1f 92       	push	r1
    1610:	0f 92       	push	r0
    1612:	0f b6       	in	r0, 0x3f	; 63
    1614:	0f 92       	push	r0
    1616:	11 24       	eor	r1, r1
    1618:	0b b6       	in	r0, 0x3b	; 59
    161a:	0f 92       	push	r0
    161c:	1b be       	out	0x3b, r1	; 59
    161e:	2f 93       	push	r18
    1620:	3f 93       	push	r19
    1622:	4f 93       	push	r20
    1624:	5f 93       	push	r21
    1626:	6f 93       	push	r22
    1628:	7f 93       	push	r23
    162a:	8f 93       	push	r24
    162c:	9f 93       	push	r25
    162e:	af 93       	push	r26
    1630:	bf 93       	push	r27
    1632:	ef 93       	push	r30
    1634:	ff 93       	push	r31
    1636:	80 91 1e 09 	lds	r24, 0x091E
    163a:	90 91 1f 09 	lds	r25, 0x091F
    163e:	89 2b       	or	r24, r25
    1640:	29 f0       	breq	.+10     	; 0x164c <__vector_6+0x3e>
    1642:	e0 91 1e 09 	lds	r30, 0x091E
    1646:	f0 91 1f 09 	lds	r31, 0x091F
    164a:	19 95       	eicall
    164c:	ff 91       	pop	r31
    164e:	ef 91       	pop	r30
    1650:	bf 91       	pop	r27
    1652:	af 91       	pop	r26
    1654:	9f 91       	pop	r25
    1656:	8f 91       	pop	r24
    1658:	7f 91       	pop	r23
    165a:	6f 91       	pop	r22
    165c:	5f 91       	pop	r21
    165e:	4f 91       	pop	r20
    1660:	3f 91       	pop	r19
    1662:	2f 91       	pop	r18
    1664:	0f 90       	pop	r0
    1666:	0b be       	out	0x3b, r0	; 59
    1668:	0f 90       	pop	r0
    166a:	0f be       	out	0x3f, r0	; 63
    166c:	0f 90       	pop	r0
    166e:	1f 90       	pop	r1
    1670:	18 95       	reti

00001672 <__vector_7>:
    1672:	1f 92       	push	r1
    1674:	0f 92       	push	r0
    1676:	0f b6       	in	r0, 0x3f	; 63
    1678:	0f 92       	push	r0
    167a:	11 24       	eor	r1, r1
    167c:	0b b6       	in	r0, 0x3b	; 59
    167e:	0f 92       	push	r0
    1680:	1b be       	out	0x3b, r1	; 59
    1682:	2f 93       	push	r18
    1684:	3f 93       	push	r19
    1686:	4f 93       	push	r20
    1688:	5f 93       	push	r21
    168a:	6f 93       	push	r22
    168c:	7f 93       	push	r23
    168e:	8f 93       	push	r24
    1690:	9f 93       	push	r25
    1692:	af 93       	push	r26
    1694:	bf 93       	push	r27
    1696:	ef 93       	push	r30
    1698:	ff 93       	push	r31
    169a:	80 91 28 09 	lds	r24, 0x0928
    169e:	90 91 29 09 	lds	r25, 0x0929
    16a2:	89 2b       	or	r24, r25
    16a4:	29 f0       	breq	.+10     	; 0x16b0 <__vector_7+0x3e>
    16a6:	e0 91 28 09 	lds	r30, 0x0928
    16aa:	f0 91 29 09 	lds	r31, 0x0929
    16ae:	19 95       	eicall
    16b0:	ff 91       	pop	r31
    16b2:	ef 91       	pop	r30
    16b4:	bf 91       	pop	r27
    16b6:	af 91       	pop	r26
    16b8:	9f 91       	pop	r25
    16ba:	8f 91       	pop	r24
    16bc:	7f 91       	pop	r23
    16be:	6f 91       	pop	r22
    16c0:	5f 91       	pop	r21
    16c2:	4f 91       	pop	r20
    16c4:	3f 91       	pop	r19
    16c6:	2f 91       	pop	r18
    16c8:	0f 90       	pop	r0
    16ca:	0b be       	out	0x3b, r0	; 59
    16cc:	0f 90       	pop	r0
    16ce:	0f be       	out	0x3f, r0	; 63
    16d0:	0f 90       	pop	r0
    16d2:	1f 90       	pop	r1
    16d4:	18 95       	reti

000016d6 <__vector_8>:
    16d6:	1f 92       	push	r1
    16d8:	0f 92       	push	r0
    16da:	0f b6       	in	r0, 0x3f	; 63
    16dc:	0f 92       	push	r0
    16de:	11 24       	eor	r1, r1
    16e0:	0b b6       	in	r0, 0x3b	; 59
    16e2:	0f 92       	push	r0
    16e4:	1b be       	out	0x3b, r1	; 59
    16e6:	2f 93       	push	r18
    16e8:	3f 93       	push	r19
    16ea:	4f 93       	push	r20
    16ec:	5f 93       	push	r21
    16ee:	6f 93       	push	r22
    16f0:	7f 93       	push	r23
    16f2:	8f 93       	push	r24
    16f4:	9f 93       	push	r25
    16f6:	af 93       	push	r26
    16f8:	bf 93       	push	r27
    16fa:	ef 93       	push	r30
    16fc:	ff 93       	push	r31
    16fe:	80 91 2a 09 	lds	r24, 0x092A
    1702:	90 91 2b 09 	lds	r25, 0x092B
    1706:	89 2b       	or	r24, r25
    1708:	29 f0       	breq	.+10     	; 0x1714 <__vector_8+0x3e>
    170a:	e0 91 2a 09 	lds	r30, 0x092A
    170e:	f0 91 2b 09 	lds	r31, 0x092B
    1712:	19 95       	eicall
    1714:	ff 91       	pop	r31
    1716:	ef 91       	pop	r30
    1718:	bf 91       	pop	r27
    171a:	af 91       	pop	r26
    171c:	9f 91       	pop	r25
    171e:	8f 91       	pop	r24
    1720:	7f 91       	pop	r23
    1722:	6f 91       	pop	r22
    1724:	5f 91       	pop	r21
    1726:	4f 91       	pop	r20
    1728:	3f 91       	pop	r19
    172a:	2f 91       	pop	r18
    172c:	0f 90       	pop	r0
    172e:	0b be       	out	0x3b, r0	; 59
    1730:	0f 90       	pop	r0
    1732:	0f be       	out	0x3f, r0	; 63
    1734:	0f 90       	pop	r0
    1736:	1f 90       	pop	r1
    1738:	18 95       	reti

0000173a <_ZN6StringD1Ev>:
    173a:	fc 01       	movw	r30, r24
    173c:	80 81       	ld	r24, Z
    173e:	91 81       	ldd	r25, Z+1	; 0x01
    1740:	0c 94 0d 14 	jmp	0x281a	; 0x281a <free>

00001744 <_ZN6String10invalidateEv>:
    1744:	cf 93       	push	r28
    1746:	df 93       	push	r29
    1748:	ec 01       	movw	r28, r24
    174a:	88 81       	ld	r24, Y
    174c:	99 81       	ldd	r25, Y+1	; 0x01
    174e:	00 97       	sbiw	r24, 0x00	; 0
    1750:	11 f0       	breq	.+4      	; 0x1756 <_ZN6String10invalidateEv+0x12>
    1752:	0e 94 0d 14 	call	0x281a	; 0x281a <free>
    1756:	19 82       	std	Y+1, r1	; 0x01
    1758:	18 82       	st	Y, r1
    175a:	1d 82       	std	Y+5, r1	; 0x05
    175c:	1c 82       	std	Y+4, r1	; 0x04
    175e:	1b 82       	std	Y+3, r1	; 0x03
    1760:	1a 82       	std	Y+2, r1	; 0x02
    1762:	df 91       	pop	r29
    1764:	cf 91       	pop	r28
    1766:	08 95       	ret

00001768 <_ZN6String12changeBufferEj>:
    1768:	0f 93       	push	r16
    176a:	1f 93       	push	r17
    176c:	cf 93       	push	r28
    176e:	df 93       	push	r29
    1770:	ec 01       	movw	r28, r24
    1772:	8b 01       	movw	r16, r22
    1774:	6f 5f       	subi	r22, 0xFF	; 255
    1776:	7f 4f       	sbci	r23, 0xFF	; 255
    1778:	88 81       	ld	r24, Y
    177a:	99 81       	ldd	r25, Y+1	; 0x01
    177c:	0e 94 ab 14 	call	0x2956	; 0x2956 <realloc>
    1780:	00 97       	sbiw	r24, 0x00	; 0
    1782:	31 f0       	breq	.+12     	; 0x1790 <_ZN6String12changeBufferEj+0x28>
    1784:	99 83       	std	Y+1, r25	; 0x01
    1786:	88 83       	st	Y, r24
    1788:	1b 83       	std	Y+3, r17	; 0x03
    178a:	0a 83       	std	Y+2, r16	; 0x02
    178c:	81 e0       	ldi	r24, 0x01	; 1
    178e:	01 c0       	rjmp	.+2      	; 0x1792 <_ZN6String12changeBufferEj+0x2a>
    1790:	80 e0       	ldi	r24, 0x00	; 0
    1792:	df 91       	pop	r29
    1794:	cf 91       	pop	r28
    1796:	1f 91       	pop	r17
    1798:	0f 91       	pop	r16
    179a:	08 95       	ret

0000179c <_ZN6String7reserveEj>:
    179c:	cf 93       	push	r28
    179e:	df 93       	push	r29
    17a0:	ec 01       	movw	r28, r24
    17a2:	88 81       	ld	r24, Y
    17a4:	99 81       	ldd	r25, Y+1	; 0x01
    17a6:	89 2b       	or	r24, r25
    17a8:	31 f0       	breq	.+12     	; 0x17b6 <_ZN6String7reserveEj+0x1a>
    17aa:	8a 81       	ldd	r24, Y+2	; 0x02
    17ac:	9b 81       	ldd	r25, Y+3	; 0x03
    17ae:	86 17       	cp	r24, r22
    17b0:	97 07       	cpc	r25, r23
    17b2:	08 f0       	brcs	.+2      	; 0x17b6 <_ZN6String7reserveEj+0x1a>
    17b4:	0c c0       	rjmp	.+24     	; 0x17ce <_ZN6String7reserveEj+0x32>
    17b6:	ce 01       	movw	r24, r28
    17b8:	0e 94 b4 0b 	call	0x1768	; 0x1768 <_ZN6String12changeBufferEj>
    17bc:	88 23       	and	r24, r24
    17be:	49 f0       	breq	.+18     	; 0x17d2 <_ZN6String7reserveEj+0x36>
    17c0:	8c 81       	ldd	r24, Y+4	; 0x04
    17c2:	9d 81       	ldd	r25, Y+5	; 0x05
    17c4:	89 2b       	or	r24, r25
    17c6:	19 f4       	brne	.+6      	; 0x17ce <_ZN6String7reserveEj+0x32>
    17c8:	e8 81       	ld	r30, Y
    17ca:	f9 81       	ldd	r31, Y+1	; 0x01
    17cc:	10 82       	st	Z, r1
    17ce:	81 e0       	ldi	r24, 0x01	; 1
    17d0:	01 c0       	rjmp	.+2      	; 0x17d4 <_ZN6String7reserveEj+0x38>
    17d2:	80 e0       	ldi	r24, 0x00	; 0
    17d4:	df 91       	pop	r29
    17d6:	cf 91       	pop	r28
    17d8:	08 95       	ret

000017da <_ZN6String4copyEPKcj>:
    17da:	ef 92       	push	r14
    17dc:	ff 92       	push	r15
    17de:	0f 93       	push	r16
    17e0:	1f 93       	push	r17
    17e2:	cf 93       	push	r28
    17e4:	df 93       	push	r29
    17e6:	ec 01       	movw	r28, r24
    17e8:	7b 01       	movw	r14, r22
    17ea:	8a 01       	movw	r16, r20
    17ec:	ba 01       	movw	r22, r20
    17ee:	0e 94 ce 0b 	call	0x179c	; 0x179c <_ZN6String7reserveEj>
    17f2:	81 11       	cpse	r24, r1
    17f4:	04 c0       	rjmp	.+8      	; 0x17fe <_ZN6String4copyEPKcj+0x24>
    17f6:	ce 01       	movw	r24, r28
    17f8:	0e 94 a2 0b 	call	0x1744	; 0x1744 <_ZN6String10invalidateEv>
    17fc:	07 c0       	rjmp	.+14     	; 0x180c <_ZN6String4copyEPKcj+0x32>
    17fe:	1d 83       	std	Y+5, r17	; 0x05
    1800:	0c 83       	std	Y+4, r16	; 0x04
    1802:	b7 01       	movw	r22, r14
    1804:	88 81       	ld	r24, Y
    1806:	99 81       	ldd	r25, Y+1	; 0x01
    1808:	0e 94 f3 45 	call	0x8be6	; 0x8be6 <strcpy>
    180c:	ce 01       	movw	r24, r28
    180e:	df 91       	pop	r29
    1810:	cf 91       	pop	r28
    1812:	1f 91       	pop	r17
    1814:	0f 91       	pop	r16
    1816:	ff 90       	pop	r15
    1818:	ef 90       	pop	r14
    181a:	08 95       	ret

0000181c <_ZN6StringC1EPKc>:
    181c:	dc 01       	movw	r26, r24
    181e:	11 96       	adiw	r26, 0x01	; 1
    1820:	1c 92       	st	X, r1
    1822:	1e 92       	st	-X, r1
    1824:	13 96       	adiw	r26, 0x03	; 3
    1826:	1c 92       	st	X, r1
    1828:	1e 92       	st	-X, r1
    182a:	12 97       	sbiw	r26, 0x02	; 2
    182c:	15 96       	adiw	r26, 0x05	; 5
    182e:	1c 92       	st	X, r1
    1830:	1e 92       	st	-X, r1
    1832:	14 97       	sbiw	r26, 0x04	; 4
    1834:	16 96       	adiw	r26, 0x06	; 6
    1836:	1c 92       	st	X, r1
    1838:	61 15       	cp	r22, r1
    183a:	71 05       	cpc	r23, r1
    183c:	59 f0       	breq	.+22     	; 0x1854 <_ZN6StringC1EPKc+0x38>
    183e:	db 01       	movw	r26, r22
    1840:	0d 90       	ld	r0, X+
    1842:	00 20       	and	r0, r0
    1844:	e9 f7       	brne	.-6      	; 0x1840 <_ZN6StringC1EPKc+0x24>
    1846:	ad 01       	movw	r20, r26
    1848:	41 50       	subi	r20, 0x01	; 1
    184a:	51 09       	sbc	r21, r1
    184c:	46 1b       	sub	r20, r22
    184e:	57 0b       	sbc	r21, r23
    1850:	0c 94 ed 0b 	jmp	0x17da	; 0x17da <_ZN6String4copyEPKcj>
    1854:	08 95       	ret

00001856 <_ZN6StringaSERKS_>:
    1856:	cf 93       	push	r28
    1858:	df 93       	push	r29
    185a:	ec 01       	movw	r28, r24
    185c:	fb 01       	movw	r30, r22
    185e:	86 17       	cp	r24, r22
    1860:	97 07       	cpc	r25, r23
    1862:	61 f0       	breq	.+24     	; 0x187c <_ZN6StringaSERKS_+0x26>
    1864:	60 81       	ld	r22, Z
    1866:	71 81       	ldd	r23, Z+1	; 0x01
    1868:	61 15       	cp	r22, r1
    186a:	71 05       	cpc	r23, r1
    186c:	29 f0       	breq	.+10     	; 0x1878 <_ZN6StringaSERKS_+0x22>
    186e:	44 81       	ldd	r20, Z+4	; 0x04
    1870:	55 81       	ldd	r21, Z+5	; 0x05
    1872:	0e 94 ed 0b 	call	0x17da	; 0x17da <_ZN6String4copyEPKcj>
    1876:	02 c0       	rjmp	.+4      	; 0x187c <_ZN6StringaSERKS_+0x26>
    1878:	0e 94 a2 0b 	call	0x1744	; 0x1744 <_ZN6String10invalidateEv>
    187c:	ce 01       	movw	r24, r28
    187e:	df 91       	pop	r29
    1880:	cf 91       	pop	r28
    1882:	08 95       	ret

00001884 <_ZN6StringC1ERKS_>:
    1884:	fc 01       	movw	r30, r24
    1886:	11 82       	std	Z+1, r1	; 0x01
    1888:	10 82       	st	Z, r1
    188a:	13 82       	std	Z+3, r1	; 0x03
    188c:	12 82       	std	Z+2, r1	; 0x02
    188e:	15 82       	std	Z+5, r1	; 0x05
    1890:	14 82       	std	Z+4, r1	; 0x04
    1892:	16 82       	std	Z+6, r1	; 0x06
    1894:	0c 94 2b 0c 	jmp	0x1856	; 0x1856 <_ZN6StringaSERKS_>

00001898 <_ZN6StringaSEPKc>:
    1898:	cf 93       	push	r28
    189a:	df 93       	push	r29
    189c:	d8 2f       	mov	r29, r24
    189e:	c9 2f       	mov	r28, r25
    18a0:	61 15       	cp	r22, r1
    18a2:	71 05       	cpc	r23, r1
    18a4:	61 f0       	breq	.+24     	; 0x18be <_ZN6StringaSEPKc+0x26>
    18a6:	db 01       	movw	r26, r22
    18a8:	0d 90       	ld	r0, X+
    18aa:	00 20       	and	r0, r0
    18ac:	e9 f7       	brne	.-6      	; 0x18a8 <_ZN6StringaSEPKc+0x10>
    18ae:	ad 01       	movw	r20, r26
    18b0:	41 50       	subi	r20, 0x01	; 1
    18b2:	51 09       	sbc	r21, r1
    18b4:	46 1b       	sub	r20, r22
    18b6:	57 0b       	sbc	r21, r23
    18b8:	0e 94 ed 0b 	call	0x17da	; 0x17da <_ZN6String4copyEPKcj>
    18bc:	02 c0       	rjmp	.+4      	; 0x18c2 <_ZN6StringaSEPKc+0x2a>
    18be:	0e 94 a2 0b 	call	0x1744	; 0x1744 <_ZN6String10invalidateEv>
    18c2:	8d 2f       	mov	r24, r29
    18c4:	9c 2f       	mov	r25, r28
    18c6:	df 91       	pop	r29
    18c8:	cf 91       	pop	r28
    18ca:	08 95       	ret

000018cc <_ZN6StringC1Emh>:
    18cc:	0f 93       	push	r16
    18ce:	1f 93       	push	r17
    18d0:	cf 93       	push	r28
    18d2:	df 93       	push	r29
    18d4:	cd b7       	in	r28, 0x3d	; 61
    18d6:	de b7       	in	r29, 0x3e	; 62
    18d8:	a1 97       	sbiw	r28, 0x21	; 33
    18da:	0f b6       	in	r0, 0x3f	; 63
    18dc:	f8 94       	cli
    18de:	de bf       	out	0x3e, r29	; 62
    18e0:	0f be       	out	0x3f, r0	; 63
    18e2:	cd bf       	out	0x3d, r28	; 61
    18e4:	8c 01       	movw	r16, r24
    18e6:	cb 01       	movw	r24, r22
    18e8:	ba 01       	movw	r22, r20
    18ea:	f8 01       	movw	r30, r16
    18ec:	11 82       	std	Z+1, r1	; 0x01
    18ee:	10 82       	st	Z, r1
    18f0:	13 82       	std	Z+3, r1	; 0x03
    18f2:	12 82       	std	Z+2, r1	; 0x02
    18f4:	15 82       	std	Z+5, r1	; 0x05
    18f6:	14 82       	std	Z+4, r1	; 0x04
    18f8:	16 82       	std	Z+6, r1	; 0x06
    18fa:	30 e0       	ldi	r19, 0x00	; 0
    18fc:	ae 01       	movw	r20, r28
    18fe:	4f 5f       	subi	r20, 0xFF	; 255
    1900:	5f 4f       	sbci	r21, 0xFF	; 255
    1902:	0e 94 d5 46 	call	0x8daa	; 0x8daa <ultoa>
    1906:	be 01       	movw	r22, r28
    1908:	6f 5f       	subi	r22, 0xFF	; 255
    190a:	7f 4f       	sbci	r23, 0xFF	; 255
    190c:	c8 01       	movw	r24, r16
    190e:	0e 94 4c 0c 	call	0x1898	; 0x1898 <_ZN6StringaSEPKc>
    1912:	a1 96       	adiw	r28, 0x21	; 33
    1914:	0f b6       	in	r0, 0x3f	; 63
    1916:	f8 94       	cli
    1918:	de bf       	out	0x3e, r29	; 62
    191a:	0f be       	out	0x3f, r0	; 63
    191c:	cd bf       	out	0x3d, r28	; 61
    191e:	df 91       	pop	r29
    1920:	cf 91       	pop	r28
    1922:	1f 91       	pop	r17
    1924:	0f 91       	pop	r16
    1926:	08 95       	ret

00001928 <_ZN6StringC1Elh>:
    1928:	0f 93       	push	r16
    192a:	1f 93       	push	r17
    192c:	cf 93       	push	r28
    192e:	df 93       	push	r29
    1930:	cd b7       	in	r28, 0x3d	; 61
    1932:	de b7       	in	r29, 0x3e	; 62
    1934:	a2 97       	sbiw	r28, 0x22	; 34
    1936:	0f b6       	in	r0, 0x3f	; 63
    1938:	f8 94       	cli
    193a:	de bf       	out	0x3e, r29	; 62
    193c:	0f be       	out	0x3f, r0	; 63
    193e:	cd bf       	out	0x3d, r28	; 61
    1940:	8c 01       	movw	r16, r24
    1942:	cb 01       	movw	r24, r22
    1944:	ba 01       	movw	r22, r20
    1946:	f8 01       	movw	r30, r16
    1948:	11 82       	std	Z+1, r1	; 0x01
    194a:	10 82       	st	Z, r1
    194c:	13 82       	std	Z+3, r1	; 0x03
    194e:	12 82       	std	Z+2, r1	; 0x02
    1950:	15 82       	std	Z+5, r1	; 0x05
    1952:	14 82       	std	Z+4, r1	; 0x04
    1954:	16 82       	std	Z+6, r1	; 0x06
    1956:	30 e0       	ldi	r19, 0x00	; 0
    1958:	ae 01       	movw	r20, r28
    195a:	4f 5f       	subi	r20, 0xFF	; 255
    195c:	5f 4f       	sbci	r21, 0xFF	; 255
    195e:	0e 94 84 46 	call	0x8d08	; 0x8d08 <ltoa>
    1962:	be 01       	movw	r22, r28
    1964:	6f 5f       	subi	r22, 0xFF	; 255
    1966:	7f 4f       	sbci	r23, 0xFF	; 255
    1968:	c8 01       	movw	r24, r16
    196a:	0e 94 4c 0c 	call	0x1898	; 0x1898 <_ZN6StringaSEPKc>
    196e:	a2 96       	adiw	r28, 0x22	; 34
    1970:	0f b6       	in	r0, 0x3f	; 63
    1972:	f8 94       	cli
    1974:	de bf       	out	0x3e, r29	; 62
    1976:	0f be       	out	0x3f, r0	; 63
    1978:	cd bf       	out	0x3d, r28	; 61
    197a:	df 91       	pop	r29
    197c:	cf 91       	pop	r28
    197e:	1f 91       	pop	r17
    1980:	0f 91       	pop	r16
    1982:	08 95       	ret

00001984 <_ZN6StringC1Ejh>:
    1984:	0f 93       	push	r16
    1986:	1f 93       	push	r17
    1988:	cf 93       	push	r28
    198a:	df 93       	push	r29
    198c:	cd b7       	in	r28, 0x3d	; 61
    198e:	de b7       	in	r29, 0x3e	; 62
    1990:	61 97       	sbiw	r28, 0x11	; 17
    1992:	0f b6       	in	r0, 0x3f	; 63
    1994:	f8 94       	cli
    1996:	de bf       	out	0x3e, r29	; 62
    1998:	0f be       	out	0x3f, r0	; 63
    199a:	cd bf       	out	0x3d, r28	; 61
    199c:	8c 01       	movw	r16, r24
    199e:	cb 01       	movw	r24, r22
    19a0:	f8 01       	movw	r30, r16
    19a2:	11 82       	std	Z+1, r1	; 0x01
    19a4:	10 82       	st	Z, r1
    19a6:	13 82       	std	Z+3, r1	; 0x03
    19a8:	12 82       	std	Z+2, r1	; 0x02
    19aa:	15 82       	std	Z+5, r1	; 0x05
    19ac:	14 82       	std	Z+4, r1	; 0x04
    19ae:	16 82       	std	Z+6, r1	; 0x06
    19b0:	50 e0       	ldi	r21, 0x00	; 0
    19b2:	be 01       	movw	r22, r28
    19b4:	6f 5f       	subi	r22, 0xFF	; 255
    19b6:	7f 4f       	sbci	r23, 0xFF	; 255
    19b8:	0e 94 fa 46 	call	0x8df4	; 0x8df4 <utoa>
    19bc:	be 01       	movw	r22, r28
    19be:	6f 5f       	subi	r22, 0xFF	; 255
    19c0:	7f 4f       	sbci	r23, 0xFF	; 255
    19c2:	c8 01       	movw	r24, r16
    19c4:	0e 94 4c 0c 	call	0x1898	; 0x1898 <_ZN6StringaSEPKc>
    19c8:	61 96       	adiw	r28, 0x11	; 17
    19ca:	0f b6       	in	r0, 0x3f	; 63
    19cc:	f8 94       	cli
    19ce:	de bf       	out	0x3e, r29	; 62
    19d0:	0f be       	out	0x3f, r0	; 63
    19d2:	cd bf       	out	0x3d, r28	; 61
    19d4:	df 91       	pop	r29
    19d6:	cf 91       	pop	r28
    19d8:	1f 91       	pop	r17
    19da:	0f 91       	pop	r16
    19dc:	08 95       	ret

000019de <_ZN6StringC1Eih>:
    19de:	0f 93       	push	r16
    19e0:	1f 93       	push	r17
    19e2:	cf 93       	push	r28
    19e4:	df 93       	push	r29
    19e6:	cd b7       	in	r28, 0x3d	; 61
    19e8:	de b7       	in	r29, 0x3e	; 62
    19ea:	62 97       	sbiw	r28, 0x12	; 18
    19ec:	0f b6       	in	r0, 0x3f	; 63
    19ee:	f8 94       	cli
    19f0:	de bf       	out	0x3e, r29	; 62
    19f2:	0f be       	out	0x3f, r0	; 63
    19f4:	cd bf       	out	0x3d, r28	; 61
    19f6:	8c 01       	movw	r16, r24
    19f8:	cb 01       	movw	r24, r22
    19fa:	f8 01       	movw	r30, r16
    19fc:	11 82       	std	Z+1, r1	; 0x01
    19fe:	10 82       	st	Z, r1
    1a00:	13 82       	std	Z+3, r1	; 0x03
    1a02:	12 82       	std	Z+2, r1	; 0x02
    1a04:	15 82       	std	Z+5, r1	; 0x05
    1a06:	14 82       	std	Z+4, r1	; 0x04
    1a08:	16 82       	std	Z+6, r1	; 0x06
    1a0a:	50 e0       	ldi	r21, 0x00	; 0
    1a0c:	be 01       	movw	r22, r28
    1a0e:	6f 5f       	subi	r22, 0xFF	; 255
    1a10:	7f 4f       	sbci	r23, 0xFF	; 255
    1a12:	0e 94 63 46 	call	0x8cc6	; 0x8cc6 <itoa>
    1a16:	be 01       	movw	r22, r28
    1a18:	6f 5f       	subi	r22, 0xFF	; 255
    1a1a:	7f 4f       	sbci	r23, 0xFF	; 255
    1a1c:	c8 01       	movw	r24, r16
    1a1e:	0e 94 4c 0c 	call	0x1898	; 0x1898 <_ZN6StringaSEPKc>
    1a22:	62 96       	adiw	r28, 0x12	; 18
    1a24:	0f b6       	in	r0, 0x3f	; 63
    1a26:	f8 94       	cli
    1a28:	de bf       	out	0x3e, r29	; 62
    1a2a:	0f be       	out	0x3f, r0	; 63
    1a2c:	cd bf       	out	0x3d, r28	; 61
    1a2e:	df 91       	pop	r29
    1a30:	cf 91       	pop	r28
    1a32:	1f 91       	pop	r17
    1a34:	0f 91       	pop	r16
    1a36:	08 95       	ret

00001a38 <_ZN6StringC1Ehh>:
    1a38:	0f 93       	push	r16
    1a3a:	1f 93       	push	r17
    1a3c:	cf 93       	push	r28
    1a3e:	df 93       	push	r29
    1a40:	cd b7       	in	r28, 0x3d	; 61
    1a42:	de b7       	in	r29, 0x3e	; 62
    1a44:	29 97       	sbiw	r28, 0x09	; 9
    1a46:	0f b6       	in	r0, 0x3f	; 63
    1a48:	f8 94       	cli
    1a4a:	de bf       	out	0x3e, r29	; 62
    1a4c:	0f be       	out	0x3f, r0	; 63
    1a4e:	cd bf       	out	0x3d, r28	; 61
    1a50:	8c 01       	movw	r16, r24
    1a52:	86 2f       	mov	r24, r22
    1a54:	f8 01       	movw	r30, r16
    1a56:	11 82       	std	Z+1, r1	; 0x01
    1a58:	10 82       	st	Z, r1
    1a5a:	13 82       	std	Z+3, r1	; 0x03
    1a5c:	12 82       	std	Z+2, r1	; 0x02
    1a5e:	15 82       	std	Z+5, r1	; 0x05
    1a60:	14 82       	std	Z+4, r1	; 0x04
    1a62:	16 82       	std	Z+6, r1	; 0x06
    1a64:	50 e0       	ldi	r21, 0x00	; 0
    1a66:	be 01       	movw	r22, r28
    1a68:	6f 5f       	subi	r22, 0xFF	; 255
    1a6a:	7f 4f       	sbci	r23, 0xFF	; 255
    1a6c:	90 e0       	ldi	r25, 0x00	; 0
    1a6e:	0e 94 fa 46 	call	0x8df4	; 0x8df4 <utoa>
    1a72:	be 01       	movw	r22, r28
    1a74:	6f 5f       	subi	r22, 0xFF	; 255
    1a76:	7f 4f       	sbci	r23, 0xFF	; 255
    1a78:	c8 01       	movw	r24, r16
    1a7a:	0e 94 4c 0c 	call	0x1898	; 0x1898 <_ZN6StringaSEPKc>
    1a7e:	29 96       	adiw	r28, 0x09	; 9
    1a80:	0f b6       	in	r0, 0x3f	; 63
    1a82:	f8 94       	cli
    1a84:	de bf       	out	0x3e, r29	; 62
    1a86:	0f be       	out	0x3f, r0	; 63
    1a88:	cd bf       	out	0x3d, r28	; 61
    1a8a:	df 91       	pop	r29
    1a8c:	cf 91       	pop	r28
    1a8e:	1f 91       	pop	r17
    1a90:	0f 91       	pop	r16
    1a92:	08 95       	ret

00001a94 <_ZN6StringC1Ec>:
    1a94:	cf 93       	push	r28
    1a96:	df 93       	push	r29
    1a98:	1f 92       	push	r1
    1a9a:	1f 92       	push	r1
    1a9c:	cd b7       	in	r28, 0x3d	; 61
    1a9e:	de b7       	in	r29, 0x3e	; 62
    1aa0:	fc 01       	movw	r30, r24
    1aa2:	11 82       	std	Z+1, r1	; 0x01
    1aa4:	10 82       	st	Z, r1
    1aa6:	13 82       	std	Z+3, r1	; 0x03
    1aa8:	12 82       	std	Z+2, r1	; 0x02
    1aaa:	15 82       	std	Z+5, r1	; 0x05
    1aac:	14 82       	std	Z+4, r1	; 0x04
    1aae:	16 82       	std	Z+6, r1	; 0x06
    1ab0:	69 83       	std	Y+1, r22	; 0x01
    1ab2:	1a 82       	std	Y+2, r1	; 0x02
    1ab4:	be 01       	movw	r22, r28
    1ab6:	6f 5f       	subi	r22, 0xFF	; 255
    1ab8:	7f 4f       	sbci	r23, 0xFF	; 255
    1aba:	0e 94 4c 0c 	call	0x1898	; 0x1898 <_ZN6StringaSEPKc>
    1abe:	0f 90       	pop	r0
    1ac0:	0f 90       	pop	r0
    1ac2:	df 91       	pop	r29
    1ac4:	cf 91       	pop	r28
    1ac6:	08 95       	ret

00001ac8 <_ZN6String6concatEPKcj>:
    1ac8:	ef 92       	push	r14
    1aca:	ff 92       	push	r15
    1acc:	0f 93       	push	r16
    1ace:	1f 93       	push	r17
    1ad0:	cf 93       	push	r28
    1ad2:	df 93       	push	r29
    1ad4:	ec 01       	movw	r28, r24
    1ad6:	7b 01       	movw	r14, r22
    1ad8:	0c 81       	ldd	r16, Y+4	; 0x04
    1ada:	1d 81       	ldd	r17, Y+5	; 0x05
    1adc:	61 15       	cp	r22, r1
    1ade:	71 05       	cpc	r23, r1
    1ae0:	11 f4       	brne	.+4      	; 0x1ae6 <_ZN6String6concatEPKcj+0x1e>
    1ae2:	80 e0       	ldi	r24, 0x00	; 0
    1ae4:	16 c0       	rjmp	.+44     	; 0x1b12 <_ZN6String6concatEPKcj+0x4a>
    1ae6:	41 15       	cp	r20, r1
    1ae8:	51 05       	cpc	r21, r1
    1aea:	91 f0       	breq	.+36     	; 0x1b10 <_ZN6String6concatEPKcj+0x48>
    1aec:	04 0f       	add	r16, r20
    1aee:	15 1f       	adc	r17, r21
    1af0:	b8 01       	movw	r22, r16
    1af2:	0e 94 ce 0b 	call	0x179c	; 0x179c <_ZN6String7reserveEj>
    1af6:	88 23       	and	r24, r24
    1af8:	a1 f3       	breq	.-24     	; 0x1ae2 <_ZN6String6concatEPKcj+0x1a>
    1afa:	28 81       	ld	r18, Y
    1afc:	39 81       	ldd	r19, Y+1	; 0x01
    1afe:	8c 81       	ldd	r24, Y+4	; 0x04
    1b00:	9d 81       	ldd	r25, Y+5	; 0x05
    1b02:	b7 01       	movw	r22, r14
    1b04:	82 0f       	add	r24, r18
    1b06:	93 1f       	adc	r25, r19
    1b08:	0e 94 f3 45 	call	0x8be6	; 0x8be6 <strcpy>
    1b0c:	1d 83       	std	Y+5, r17	; 0x05
    1b0e:	0c 83       	std	Y+4, r16	; 0x04
    1b10:	81 e0       	ldi	r24, 0x01	; 1
    1b12:	df 91       	pop	r29
    1b14:	cf 91       	pop	r28
    1b16:	1f 91       	pop	r17
    1b18:	0f 91       	pop	r16
    1b1a:	ff 90       	pop	r15
    1b1c:	ef 90       	pop	r14
    1b1e:	08 95       	ret

00001b20 <_ZN6String6concatERKS_>:
    1b20:	fb 01       	movw	r30, r22
    1b22:	44 81       	ldd	r20, Z+4	; 0x04
    1b24:	55 81       	ldd	r21, Z+5	; 0x05
    1b26:	60 81       	ld	r22, Z
    1b28:	71 81       	ldd	r23, Z+1	; 0x01
    1b2a:	0c 94 64 0d 	jmp	0x1ac8	; 0x1ac8 <_ZN6String6concatEPKcj>

00001b2e <_ZN6String6concatEPKc>:
    1b2e:	61 15       	cp	r22, r1
    1b30:	71 05       	cpc	r23, r1
    1b32:	59 f0       	breq	.+22     	; 0x1b4a <_ZN6String6concatEPKc+0x1c>
    1b34:	db 01       	movw	r26, r22
    1b36:	0d 90       	ld	r0, X+
    1b38:	00 20       	and	r0, r0
    1b3a:	e9 f7       	brne	.-6      	; 0x1b36 <_ZN6String6concatEPKc+0x8>
    1b3c:	ad 01       	movw	r20, r26
    1b3e:	41 50       	subi	r20, 0x01	; 1
    1b40:	51 09       	sbc	r21, r1
    1b42:	46 1b       	sub	r20, r22
    1b44:	57 0b       	sbc	r21, r23
    1b46:	0c 94 64 0d 	jmp	0x1ac8	; 0x1ac8 <_ZN6String6concatEPKcj>
    1b4a:	80 e0       	ldi	r24, 0x00	; 0
    1b4c:	08 95       	ret

00001b4e <_ZN6String6concatEc>:
    1b4e:	cf 93       	push	r28
    1b50:	df 93       	push	r29
    1b52:	1f 92       	push	r1
    1b54:	1f 92       	push	r1
    1b56:	cd b7       	in	r28, 0x3d	; 61
    1b58:	de b7       	in	r29, 0x3e	; 62
    1b5a:	69 83       	std	Y+1, r22	; 0x01
    1b5c:	1a 82       	std	Y+2, r1	; 0x02
    1b5e:	41 e0       	ldi	r20, 0x01	; 1
    1b60:	50 e0       	ldi	r21, 0x00	; 0
    1b62:	be 01       	movw	r22, r28
    1b64:	6f 5f       	subi	r22, 0xFF	; 255
    1b66:	7f 4f       	sbci	r23, 0xFF	; 255
    1b68:	0e 94 64 0d 	call	0x1ac8	; 0x1ac8 <_ZN6String6concatEPKcj>
    1b6c:	0f 90       	pop	r0
    1b6e:	0f 90       	pop	r0
    1b70:	df 91       	pop	r29
    1b72:	cf 91       	pop	r28
    1b74:	08 95       	ret

00001b76 <_ZN6String6concatEh>:
    1b76:	ef 92       	push	r14
    1b78:	ff 92       	push	r15
    1b7a:	0f 93       	push	r16
    1b7c:	1f 93       	push	r17
    1b7e:	cf 93       	push	r28
    1b80:	df 93       	push	r29
    1b82:	00 d0       	rcall	.+0      	; 0x1b84 <_ZN6String6concatEh+0xe>
    1b84:	1f 92       	push	r1
    1b86:	cd b7       	in	r28, 0x3d	; 61
    1b88:	de b7       	in	r29, 0x3e	; 62
    1b8a:	7c 01       	movw	r14, r24
    1b8c:	86 2f       	mov	r24, r22
    1b8e:	4a e0       	ldi	r20, 0x0A	; 10
    1b90:	50 e0       	ldi	r21, 0x00	; 0
    1b92:	8e 01       	movw	r16, r28
    1b94:	0f 5f       	subi	r16, 0xFF	; 255
    1b96:	1f 4f       	sbci	r17, 0xFF	; 255
    1b98:	b8 01       	movw	r22, r16
    1b9a:	90 e0       	ldi	r25, 0x00	; 0
    1b9c:	0e 94 63 46 	call	0x8cc6	; 0x8cc6 <itoa>
    1ba0:	f8 01       	movw	r30, r16
    1ba2:	01 90       	ld	r0, Z+
    1ba4:	00 20       	and	r0, r0
    1ba6:	e9 f7       	brne	.-6      	; 0x1ba2 <_ZN6String6concatEh+0x2c>
    1ba8:	af 01       	movw	r20, r30
    1baa:	41 50       	subi	r20, 0x01	; 1
    1bac:	51 09       	sbc	r21, r1
    1bae:	40 1b       	sub	r20, r16
    1bb0:	51 0b       	sbc	r21, r17
    1bb2:	b8 01       	movw	r22, r16
    1bb4:	c7 01       	movw	r24, r14
    1bb6:	0e 94 64 0d 	call	0x1ac8	; 0x1ac8 <_ZN6String6concatEPKcj>
    1bba:	0f 90       	pop	r0
    1bbc:	0f 90       	pop	r0
    1bbe:	0f 90       	pop	r0
    1bc0:	0f 90       	pop	r0
    1bc2:	df 91       	pop	r29
    1bc4:	cf 91       	pop	r28
    1bc6:	1f 91       	pop	r17
    1bc8:	0f 91       	pop	r16
    1bca:	ff 90       	pop	r15
    1bcc:	ef 90       	pop	r14
    1bce:	08 95       	ret

00001bd0 <_ZN6String6concatEi>:
    1bd0:	ef 92       	push	r14
    1bd2:	ff 92       	push	r15
    1bd4:	0f 93       	push	r16
    1bd6:	1f 93       	push	r17
    1bd8:	cf 93       	push	r28
    1bda:	df 93       	push	r29
    1bdc:	cd b7       	in	r28, 0x3d	; 61
    1bde:	de b7       	in	r29, 0x3e	; 62
    1be0:	27 97       	sbiw	r28, 0x07	; 7
    1be2:	0f b6       	in	r0, 0x3f	; 63
    1be4:	f8 94       	cli
    1be6:	de bf       	out	0x3e, r29	; 62
    1be8:	0f be       	out	0x3f, r0	; 63
    1bea:	cd bf       	out	0x3d, r28	; 61
    1bec:	7c 01       	movw	r14, r24
    1bee:	cb 01       	movw	r24, r22
    1bf0:	4a e0       	ldi	r20, 0x0A	; 10
    1bf2:	50 e0       	ldi	r21, 0x00	; 0
    1bf4:	8e 01       	movw	r16, r28
    1bf6:	0f 5f       	subi	r16, 0xFF	; 255
    1bf8:	1f 4f       	sbci	r17, 0xFF	; 255
    1bfa:	b8 01       	movw	r22, r16
    1bfc:	0e 94 63 46 	call	0x8cc6	; 0x8cc6 <itoa>
    1c00:	f8 01       	movw	r30, r16
    1c02:	01 90       	ld	r0, Z+
    1c04:	00 20       	and	r0, r0
    1c06:	e9 f7       	brne	.-6      	; 0x1c02 <_ZN6String6concatEi+0x32>
    1c08:	af 01       	movw	r20, r30
    1c0a:	41 50       	subi	r20, 0x01	; 1
    1c0c:	51 09       	sbc	r21, r1
    1c0e:	40 1b       	sub	r20, r16
    1c10:	51 0b       	sbc	r21, r17
    1c12:	b8 01       	movw	r22, r16
    1c14:	c7 01       	movw	r24, r14
    1c16:	0e 94 64 0d 	call	0x1ac8	; 0x1ac8 <_ZN6String6concatEPKcj>
    1c1a:	27 96       	adiw	r28, 0x07	; 7
    1c1c:	0f b6       	in	r0, 0x3f	; 63
    1c1e:	f8 94       	cli
    1c20:	de bf       	out	0x3e, r29	; 62
    1c22:	0f be       	out	0x3f, r0	; 63
    1c24:	cd bf       	out	0x3d, r28	; 61
    1c26:	df 91       	pop	r29
    1c28:	cf 91       	pop	r28
    1c2a:	1f 91       	pop	r17
    1c2c:	0f 91       	pop	r16
    1c2e:	ff 90       	pop	r15
    1c30:	ef 90       	pop	r14
    1c32:	08 95       	ret

00001c34 <_ZN6String6concatEj>:
    1c34:	ef 92       	push	r14
    1c36:	ff 92       	push	r15
    1c38:	0f 93       	push	r16
    1c3a:	1f 93       	push	r17
    1c3c:	cf 93       	push	r28
    1c3e:	df 93       	push	r29
    1c40:	00 d0       	rcall	.+0      	; 0x1c42 <_ZN6String6concatEj+0xe>
    1c42:	00 d0       	rcall	.+0      	; 0x1c44 <_ZN6String6concatEj+0x10>
    1c44:	cd b7       	in	r28, 0x3d	; 61
    1c46:	de b7       	in	r29, 0x3e	; 62
    1c48:	7c 01       	movw	r14, r24
    1c4a:	cb 01       	movw	r24, r22
    1c4c:	4a e0       	ldi	r20, 0x0A	; 10
    1c4e:	50 e0       	ldi	r21, 0x00	; 0
    1c50:	8e 01       	movw	r16, r28
    1c52:	0f 5f       	subi	r16, 0xFF	; 255
    1c54:	1f 4f       	sbci	r17, 0xFF	; 255
    1c56:	b8 01       	movw	r22, r16
    1c58:	0e 94 fa 46 	call	0x8df4	; 0x8df4 <utoa>
    1c5c:	f8 01       	movw	r30, r16
    1c5e:	01 90       	ld	r0, Z+
    1c60:	00 20       	and	r0, r0
    1c62:	e9 f7       	brne	.-6      	; 0x1c5e <_ZN6String6concatEj+0x2a>
    1c64:	af 01       	movw	r20, r30
    1c66:	41 50       	subi	r20, 0x01	; 1
    1c68:	51 09       	sbc	r21, r1
    1c6a:	40 1b       	sub	r20, r16
    1c6c:	51 0b       	sbc	r21, r17
    1c6e:	b8 01       	movw	r22, r16
    1c70:	c7 01       	movw	r24, r14
    1c72:	0e 94 64 0d 	call	0x1ac8	; 0x1ac8 <_ZN6String6concatEPKcj>
    1c76:	26 96       	adiw	r28, 0x06	; 6
    1c78:	0f b6       	in	r0, 0x3f	; 63
    1c7a:	f8 94       	cli
    1c7c:	de bf       	out	0x3e, r29	; 62
    1c7e:	0f be       	out	0x3f, r0	; 63
    1c80:	cd bf       	out	0x3d, r28	; 61
    1c82:	df 91       	pop	r29
    1c84:	cf 91       	pop	r28
    1c86:	1f 91       	pop	r17
    1c88:	0f 91       	pop	r16
    1c8a:	ff 90       	pop	r15
    1c8c:	ef 90       	pop	r14
    1c8e:	08 95       	ret

00001c90 <_ZN6String6concatEl>:
    1c90:	ef 92       	push	r14
    1c92:	ff 92       	push	r15
    1c94:	0f 93       	push	r16
    1c96:	1f 93       	push	r17
    1c98:	cf 93       	push	r28
    1c9a:	df 93       	push	r29
    1c9c:	cd b7       	in	r28, 0x3d	; 61
    1c9e:	de b7       	in	r29, 0x3e	; 62
    1ca0:	2c 97       	sbiw	r28, 0x0c	; 12
    1ca2:	0f b6       	in	r0, 0x3f	; 63
    1ca4:	f8 94       	cli
    1ca6:	de bf       	out	0x3e, r29	; 62
    1ca8:	0f be       	out	0x3f, r0	; 63
    1caa:	cd bf       	out	0x3d, r28	; 61
    1cac:	7c 01       	movw	r14, r24
    1cae:	cb 01       	movw	r24, r22
    1cb0:	ba 01       	movw	r22, r20
    1cb2:	2a e0       	ldi	r18, 0x0A	; 10
    1cb4:	30 e0       	ldi	r19, 0x00	; 0
    1cb6:	8e 01       	movw	r16, r28
    1cb8:	0f 5f       	subi	r16, 0xFF	; 255
    1cba:	1f 4f       	sbci	r17, 0xFF	; 255
    1cbc:	a8 01       	movw	r20, r16
    1cbe:	0e 94 84 46 	call	0x8d08	; 0x8d08 <ltoa>
    1cc2:	f8 01       	movw	r30, r16
    1cc4:	01 90       	ld	r0, Z+
    1cc6:	00 20       	and	r0, r0
    1cc8:	e9 f7       	brne	.-6      	; 0x1cc4 <_ZN6String6concatEl+0x34>
    1cca:	af 01       	movw	r20, r30
    1ccc:	41 50       	subi	r20, 0x01	; 1
    1cce:	51 09       	sbc	r21, r1
    1cd0:	40 1b       	sub	r20, r16
    1cd2:	51 0b       	sbc	r21, r17
    1cd4:	b8 01       	movw	r22, r16
    1cd6:	c7 01       	movw	r24, r14
    1cd8:	0e 94 64 0d 	call	0x1ac8	; 0x1ac8 <_ZN6String6concatEPKcj>
    1cdc:	2c 96       	adiw	r28, 0x0c	; 12
    1cde:	0f b6       	in	r0, 0x3f	; 63
    1ce0:	f8 94       	cli
    1ce2:	de bf       	out	0x3e, r29	; 62
    1ce4:	0f be       	out	0x3f, r0	; 63
    1ce6:	cd bf       	out	0x3d, r28	; 61
    1ce8:	df 91       	pop	r29
    1cea:	cf 91       	pop	r28
    1cec:	1f 91       	pop	r17
    1cee:	0f 91       	pop	r16
    1cf0:	ff 90       	pop	r15
    1cf2:	ef 90       	pop	r14
    1cf4:	08 95       	ret

00001cf6 <_ZN6String6concatEm>:
    1cf6:	ef 92       	push	r14
    1cf8:	ff 92       	push	r15
    1cfa:	0f 93       	push	r16
    1cfc:	1f 93       	push	r17
    1cfe:	cf 93       	push	r28
    1d00:	df 93       	push	r29
    1d02:	cd b7       	in	r28, 0x3d	; 61
    1d04:	de b7       	in	r29, 0x3e	; 62
    1d06:	2b 97       	sbiw	r28, 0x0b	; 11
    1d08:	0f b6       	in	r0, 0x3f	; 63
    1d0a:	f8 94       	cli
    1d0c:	de bf       	out	0x3e, r29	; 62
    1d0e:	0f be       	out	0x3f, r0	; 63
    1d10:	cd bf       	out	0x3d, r28	; 61
    1d12:	7c 01       	movw	r14, r24
    1d14:	cb 01       	movw	r24, r22
    1d16:	ba 01       	movw	r22, r20
    1d18:	2a e0       	ldi	r18, 0x0A	; 10
    1d1a:	30 e0       	ldi	r19, 0x00	; 0
    1d1c:	8e 01       	movw	r16, r28
    1d1e:	0f 5f       	subi	r16, 0xFF	; 255
    1d20:	1f 4f       	sbci	r17, 0xFF	; 255
    1d22:	a8 01       	movw	r20, r16
    1d24:	0e 94 d5 46 	call	0x8daa	; 0x8daa <ultoa>
    1d28:	f8 01       	movw	r30, r16
    1d2a:	01 90       	ld	r0, Z+
    1d2c:	00 20       	and	r0, r0
    1d2e:	e9 f7       	brne	.-6      	; 0x1d2a <_ZN6String6concatEm+0x34>
    1d30:	af 01       	movw	r20, r30
    1d32:	41 50       	subi	r20, 0x01	; 1
    1d34:	51 09       	sbc	r21, r1
    1d36:	40 1b       	sub	r20, r16
    1d38:	51 0b       	sbc	r21, r17
    1d3a:	b8 01       	movw	r22, r16
    1d3c:	c7 01       	movw	r24, r14
    1d3e:	0e 94 64 0d 	call	0x1ac8	; 0x1ac8 <_ZN6String6concatEPKcj>
    1d42:	2b 96       	adiw	r28, 0x0b	; 11
    1d44:	0f b6       	in	r0, 0x3f	; 63
    1d46:	f8 94       	cli
    1d48:	de bf       	out	0x3e, r29	; 62
    1d4a:	0f be       	out	0x3f, r0	; 63
    1d4c:	cd bf       	out	0x3d, r28	; 61
    1d4e:	df 91       	pop	r29
    1d50:	cf 91       	pop	r28
    1d52:	1f 91       	pop	r17
    1d54:	0f 91       	pop	r16
    1d56:	ff 90       	pop	r15
    1d58:	ef 90       	pop	r14
    1d5a:	08 95       	ret

00001d5c <_ZplRK15StringSumHelperRK6String>:
    1d5c:	cf 93       	push	r28
    1d5e:	df 93       	push	r29
    1d60:	d8 2f       	mov	r29, r24
    1d62:	c9 2f       	mov	r28, r25
    1d64:	fb 01       	movw	r30, r22
    1d66:	44 81       	ldd	r20, Z+4	; 0x04
    1d68:	55 81       	ldd	r21, Z+5	; 0x05
    1d6a:	60 81       	ld	r22, Z
    1d6c:	71 81       	ldd	r23, Z+1	; 0x01
    1d6e:	0e 94 64 0d 	call	0x1ac8	; 0x1ac8 <_ZN6String6concatEPKcj>
    1d72:	81 11       	cpse	r24, r1
    1d74:	04 c0       	rjmp	.+8      	; 0x1d7e <_ZplRK15StringSumHelperRK6String+0x22>
    1d76:	8d 2f       	mov	r24, r29
    1d78:	9c 2f       	mov	r25, r28
    1d7a:	0e 94 a2 0b 	call	0x1744	; 0x1744 <_ZN6String10invalidateEv>
    1d7e:	8d 2f       	mov	r24, r29
    1d80:	9c 2f       	mov	r25, r28
    1d82:	df 91       	pop	r29
    1d84:	cf 91       	pop	r28
    1d86:	08 95       	ret

00001d88 <_ZplRK15StringSumHelperPKc>:
    1d88:	cf 93       	push	r28
    1d8a:	df 93       	push	r29
    1d8c:	d8 2f       	mov	r29, r24
    1d8e:	c9 2f       	mov	r28, r25
    1d90:	61 15       	cp	r22, r1
    1d92:	71 05       	cpc	r23, r1
    1d94:	69 f0       	breq	.+26     	; 0x1db0 <_ZplRK15StringSumHelperPKc+0x28>
    1d96:	db 01       	movw	r26, r22
    1d98:	0d 90       	ld	r0, X+
    1d9a:	00 20       	and	r0, r0
    1d9c:	e9 f7       	brne	.-6      	; 0x1d98 <_ZplRK15StringSumHelperPKc+0x10>
    1d9e:	ad 01       	movw	r20, r26
    1da0:	41 50       	subi	r20, 0x01	; 1
    1da2:	51 09       	sbc	r21, r1
    1da4:	46 1b       	sub	r20, r22
    1da6:	57 0b       	sbc	r21, r23
    1da8:	0e 94 64 0d 	call	0x1ac8	; 0x1ac8 <_ZN6String6concatEPKcj>
    1dac:	81 11       	cpse	r24, r1
    1dae:	04 c0       	rjmp	.+8      	; 0x1db8 <_ZplRK15StringSumHelperPKc+0x30>
    1db0:	8d 2f       	mov	r24, r29
    1db2:	9c 2f       	mov	r25, r28
    1db4:	0e 94 a2 0b 	call	0x1744	; 0x1744 <_ZN6String10invalidateEv>
    1db8:	8d 2f       	mov	r24, r29
    1dba:	9c 2f       	mov	r25, r28
    1dbc:	df 91       	pop	r29
    1dbe:	cf 91       	pop	r28
    1dc0:	08 95       	ret

00001dc2 <_ZplRK15StringSumHelperc>:
    1dc2:	cf 93       	push	r28
    1dc4:	df 93       	push	r29
    1dc6:	d8 2f       	mov	r29, r24
    1dc8:	c9 2f       	mov	r28, r25
    1dca:	0e 94 a7 0d 	call	0x1b4e	; 0x1b4e <_ZN6String6concatEc>
    1dce:	81 11       	cpse	r24, r1
    1dd0:	04 c0       	rjmp	.+8      	; 0x1dda <_ZplRK15StringSumHelperc+0x18>
    1dd2:	8d 2f       	mov	r24, r29
    1dd4:	9c 2f       	mov	r25, r28
    1dd6:	0e 94 a2 0b 	call	0x1744	; 0x1744 <_ZN6String10invalidateEv>
    1dda:	8d 2f       	mov	r24, r29
    1ddc:	9c 2f       	mov	r25, r28
    1dde:	df 91       	pop	r29
    1de0:	cf 91       	pop	r28
    1de2:	08 95       	ret

00001de4 <_ZplRK15StringSumHelperh>:
    1de4:	cf 93       	push	r28
    1de6:	df 93       	push	r29
    1de8:	d8 2f       	mov	r29, r24
    1dea:	c9 2f       	mov	r28, r25
    1dec:	0e 94 bb 0d 	call	0x1b76	; 0x1b76 <_ZN6String6concatEh>
    1df0:	81 11       	cpse	r24, r1
    1df2:	04 c0       	rjmp	.+8      	; 0x1dfc <_ZplRK15StringSumHelperh+0x18>
    1df4:	8d 2f       	mov	r24, r29
    1df6:	9c 2f       	mov	r25, r28
    1df8:	0e 94 a2 0b 	call	0x1744	; 0x1744 <_ZN6String10invalidateEv>
    1dfc:	8d 2f       	mov	r24, r29
    1dfe:	9c 2f       	mov	r25, r28
    1e00:	df 91       	pop	r29
    1e02:	cf 91       	pop	r28
    1e04:	08 95       	ret

00001e06 <_ZplRK15StringSumHelperi>:
    1e06:	cf 93       	push	r28
    1e08:	df 93       	push	r29
    1e0a:	d8 2f       	mov	r29, r24
    1e0c:	c9 2f       	mov	r28, r25
    1e0e:	0e 94 e8 0d 	call	0x1bd0	; 0x1bd0 <_ZN6String6concatEi>
    1e12:	81 11       	cpse	r24, r1
    1e14:	04 c0       	rjmp	.+8      	; 0x1e1e <_ZplRK15StringSumHelperi+0x18>
    1e16:	8d 2f       	mov	r24, r29
    1e18:	9c 2f       	mov	r25, r28
    1e1a:	0e 94 a2 0b 	call	0x1744	; 0x1744 <_ZN6String10invalidateEv>
    1e1e:	8d 2f       	mov	r24, r29
    1e20:	9c 2f       	mov	r25, r28
    1e22:	df 91       	pop	r29
    1e24:	cf 91       	pop	r28
    1e26:	08 95       	ret

00001e28 <_ZplRK15StringSumHelperj>:
    1e28:	cf 93       	push	r28
    1e2a:	df 93       	push	r29
    1e2c:	d8 2f       	mov	r29, r24
    1e2e:	c9 2f       	mov	r28, r25
    1e30:	0e 94 1a 0e 	call	0x1c34	; 0x1c34 <_ZN6String6concatEj>
    1e34:	81 11       	cpse	r24, r1
    1e36:	04 c0       	rjmp	.+8      	; 0x1e40 <_ZplRK15StringSumHelperj+0x18>
    1e38:	8d 2f       	mov	r24, r29
    1e3a:	9c 2f       	mov	r25, r28
    1e3c:	0e 94 a2 0b 	call	0x1744	; 0x1744 <_ZN6String10invalidateEv>
    1e40:	8d 2f       	mov	r24, r29
    1e42:	9c 2f       	mov	r25, r28
    1e44:	df 91       	pop	r29
    1e46:	cf 91       	pop	r28
    1e48:	08 95       	ret

00001e4a <_ZplRK15StringSumHelperl>:
    1e4a:	cf 93       	push	r28
    1e4c:	df 93       	push	r29
    1e4e:	d8 2f       	mov	r29, r24
    1e50:	c9 2f       	mov	r28, r25
    1e52:	0e 94 48 0e 	call	0x1c90	; 0x1c90 <_ZN6String6concatEl>
    1e56:	81 11       	cpse	r24, r1
    1e58:	04 c0       	rjmp	.+8      	; 0x1e62 <_ZplRK15StringSumHelperl+0x18>
    1e5a:	8d 2f       	mov	r24, r29
    1e5c:	9c 2f       	mov	r25, r28
    1e5e:	0e 94 a2 0b 	call	0x1744	; 0x1744 <_ZN6String10invalidateEv>
    1e62:	8d 2f       	mov	r24, r29
    1e64:	9c 2f       	mov	r25, r28
    1e66:	df 91       	pop	r29
    1e68:	cf 91       	pop	r28
    1e6a:	08 95       	ret

00001e6c <_ZplRK15StringSumHelperm>:
    1e6c:	cf 93       	push	r28
    1e6e:	df 93       	push	r29
    1e70:	d8 2f       	mov	r29, r24
    1e72:	c9 2f       	mov	r28, r25
    1e74:	0e 94 7b 0e 	call	0x1cf6	; 0x1cf6 <_ZN6String6concatEm>
    1e78:	81 11       	cpse	r24, r1
    1e7a:	04 c0       	rjmp	.+8      	; 0x1e84 <_ZplRK15StringSumHelperm+0x18>
    1e7c:	8d 2f       	mov	r24, r29
    1e7e:	9c 2f       	mov	r25, r28
    1e80:	0e 94 a2 0b 	call	0x1744	; 0x1744 <_ZN6String10invalidateEv>
    1e84:	8d 2f       	mov	r24, r29
    1e86:	9c 2f       	mov	r25, r28
    1e88:	df 91       	pop	r29
    1e8a:	cf 91       	pop	r28
    1e8c:	08 95       	ret

00001e8e <_ZNK6String9compareToERKS_>:
    1e8e:	cf 93       	push	r28
    1e90:	df 93       	push	r29
    1e92:	dc 01       	movw	r26, r24
    1e94:	ed 91       	ld	r30, X+
    1e96:	fc 91       	ld	r31, X
    1e98:	eb 01       	movw	r28, r22
    1e9a:	a8 81       	ld	r26, Y
    1e9c:	b9 81       	ldd	r27, Y+1	; 0x01
    1e9e:	30 97       	sbiw	r30, 0x00	; 0
    1ea0:	11 f0       	breq	.+4      	; 0x1ea6 <_ZNK6String9compareToERKS_+0x18>
    1ea2:	10 97       	sbiw	r26, 0x00	; 0
    1ea4:	c9 f4       	brne	.+50     	; 0x1ed8 <_ZNK6String9compareToERKS_+0x4a>
    1ea6:	10 97       	sbiw	r26, 0x00	; 0
    1ea8:	59 f0       	breq	.+22     	; 0x1ec0 <_ZNK6String9compareToERKS_+0x32>
    1eaa:	eb 01       	movw	r28, r22
    1eac:	2c 81       	ldd	r18, Y+4	; 0x04
    1eae:	3d 81       	ldd	r19, Y+5	; 0x05
    1eb0:	23 2b       	or	r18, r19
    1eb2:	31 f0       	breq	.+12     	; 0x1ec0 <_ZNK6String9compareToERKS_+0x32>
    1eb4:	2c 91       	ld	r18, X
    1eb6:	30 e0       	ldi	r19, 0x00	; 0
    1eb8:	31 95       	neg	r19
    1eba:	21 95       	neg	r18
    1ebc:	31 09       	sbc	r19, r1
    1ebe:	14 c0       	rjmp	.+40     	; 0x1ee8 <_ZNK6String9compareToERKS_+0x5a>
    1ec0:	30 97       	sbiw	r30, 0x00	; 0
    1ec2:	81 f0       	breq	.+32     	; 0x1ee4 <_ZNK6String9compareToERKS_+0x56>
    1ec4:	dc 01       	movw	r26, r24
    1ec6:	14 96       	adiw	r26, 0x04	; 4
    1ec8:	8d 91       	ld	r24, X+
    1eca:	9c 91       	ld	r25, X
    1ecc:	15 97       	sbiw	r26, 0x05	; 5
    1ece:	89 2b       	or	r24, r25
    1ed0:	49 f0       	breq	.+18     	; 0x1ee4 <_ZNK6String9compareToERKS_+0x56>
    1ed2:	20 81       	ld	r18, Z
    1ed4:	30 e0       	ldi	r19, 0x00	; 0
    1ed6:	08 c0       	rjmp	.+16     	; 0x1ee8 <_ZNK6String9compareToERKS_+0x5a>
    1ed8:	bd 01       	movw	r22, r26
    1eda:	cf 01       	movw	r24, r30
    1edc:	df 91       	pop	r29
    1ede:	cf 91       	pop	r28
    1ee0:	0c 94 ea 45 	jmp	0x8bd4	; 0x8bd4 <strcmp>
    1ee4:	20 e0       	ldi	r18, 0x00	; 0
    1ee6:	30 e0       	ldi	r19, 0x00	; 0
    1ee8:	c9 01       	movw	r24, r18
    1eea:	df 91       	pop	r29
    1eec:	cf 91       	pop	r28
    1eee:	08 95       	ret

00001ef0 <_ZNK6String6equalsERKS_>:
    1ef0:	fc 01       	movw	r30, r24
    1ef2:	44 81       	ldd	r20, Z+4	; 0x04
    1ef4:	55 81       	ldd	r21, Z+5	; 0x05
    1ef6:	fb 01       	movw	r30, r22
    1ef8:	24 81       	ldd	r18, Z+4	; 0x04
    1efa:	35 81       	ldd	r19, Z+5	; 0x05
    1efc:	42 17       	cp	r20, r18
    1efe:	53 07       	cpc	r21, r19
    1f00:	29 f4       	brne	.+10     	; 0x1f0c <_ZNK6String6equalsERKS_+0x1c>
    1f02:	0e 94 47 0f 	call	0x1e8e	; 0x1e8e <_ZNK6String9compareToERKS_>
    1f06:	21 e0       	ldi	r18, 0x01	; 1
    1f08:	89 2b       	or	r24, r25
    1f0a:	09 f0       	breq	.+2      	; 0x1f0e <_ZNK6String6equalsERKS_+0x1e>
    1f0c:	20 e0       	ldi	r18, 0x00	; 0
    1f0e:	82 2f       	mov	r24, r18
    1f10:	08 95       	ret

00001f12 <_ZNK6String6equalsEPKc>:
    1f12:	dc 01       	movw	r26, r24
    1f14:	14 96       	adiw	r26, 0x04	; 4
    1f16:	2d 91       	ld	r18, X+
    1f18:	3c 91       	ld	r19, X
    1f1a:	15 97       	sbiw	r26, 0x05	; 5
    1f1c:	23 2b       	or	r18, r19
    1f1e:	39 f4       	brne	.+14     	; 0x1f2e <_ZNK6String6equalsEPKc+0x1c>
    1f20:	81 e0       	ldi	r24, 0x01	; 1
    1f22:	61 15       	cp	r22, r1
    1f24:	71 05       	cpc	r23, r1
    1f26:	11 f0       	breq	.+4      	; 0x1f2c <_ZNK6String6equalsEPKc+0x1a>
    1f28:	fb 01       	movw	r30, r22
    1f2a:	08 c0       	rjmp	.+16     	; 0x1f3c <_ZNK6String6equalsEPKc+0x2a>
    1f2c:	08 95       	ret
    1f2e:	dc 01       	movw	r26, r24
    1f30:	ed 91       	ld	r30, X+
    1f32:	fc 91       	ld	r31, X
    1f34:	61 15       	cp	r22, r1
    1f36:	71 05       	cpc	r23, r1
    1f38:	29 f4       	brne	.+10     	; 0x1f44 <_ZNK6String6equalsEPKc+0x32>
    1f3a:	81 e0       	ldi	r24, 0x01	; 1
    1f3c:	90 81       	ld	r25, Z
    1f3e:	99 23       	and	r25, r25
    1f40:	49 f0       	breq	.+18     	; 0x1f54 <_ZNK6String6equalsEPKc+0x42>
    1f42:	07 c0       	rjmp	.+14     	; 0x1f52 <_ZNK6String6equalsEPKc+0x40>
    1f44:	cf 01       	movw	r24, r30
    1f46:	0e 94 ea 45 	call	0x8bd4	; 0x8bd4 <strcmp>
    1f4a:	9c 01       	movw	r18, r24
    1f4c:	81 e0       	ldi	r24, 0x01	; 1
    1f4e:	23 2b       	or	r18, r19
    1f50:	09 f0       	breq	.+2      	; 0x1f54 <_ZNK6String6equalsEPKc+0x42>
    1f52:	80 e0       	ldi	r24, 0x00	; 0
    1f54:	08 95       	ret

00001f56 <_ZNK6StringltERKS_>:
    1f56:	0e 94 47 0f 	call	0x1e8e	; 0x1e8e <_ZNK6String9compareToERKS_>
    1f5a:	89 2f       	mov	r24, r25
    1f5c:	88 1f       	adc	r24, r24
    1f5e:	88 27       	eor	r24, r24
    1f60:	88 1f       	adc	r24, r24
    1f62:	08 95       	ret

00001f64 <_ZNK6StringgtERKS_>:
    1f64:	0e 94 47 0f 	call	0x1e8e	; 0x1e8e <_ZNK6String9compareToERKS_>
    1f68:	21 e0       	ldi	r18, 0x01	; 1
    1f6a:	18 16       	cp	r1, r24
    1f6c:	19 06       	cpc	r1, r25
    1f6e:	0c f0       	brlt	.+2      	; 0x1f72 <_ZNK6StringgtERKS_+0xe>
    1f70:	20 e0       	ldi	r18, 0x00	; 0
    1f72:	82 2f       	mov	r24, r18
    1f74:	08 95       	ret

00001f76 <_ZNK6StringleERKS_>:
    1f76:	0e 94 47 0f 	call	0x1e8e	; 0x1e8e <_ZNK6String9compareToERKS_>
    1f7a:	21 e0       	ldi	r18, 0x01	; 1
    1f7c:	18 16       	cp	r1, r24
    1f7e:	19 06       	cpc	r1, r25
    1f80:	0c f4       	brge	.+2      	; 0x1f84 <_ZNK6StringleERKS_+0xe>
    1f82:	20 e0       	ldi	r18, 0x00	; 0
    1f84:	82 2f       	mov	r24, r18
    1f86:	08 95       	ret

00001f88 <_ZNK6StringgeERKS_>:
    1f88:	0e 94 47 0f 	call	0x1e8e	; 0x1e8e <_ZNK6String9compareToERKS_>
    1f8c:	89 2f       	mov	r24, r25
    1f8e:	80 95       	com	r24
    1f90:	88 1f       	adc	r24, r24
    1f92:	88 27       	eor	r24, r24
    1f94:	88 1f       	adc	r24, r24
    1f96:	08 95       	ret

00001f98 <_ZNK6String16equalsIgnoreCaseERKS_>:
    1f98:	ef 92       	push	r14
    1f9a:	ff 92       	push	r15
    1f9c:	0f 93       	push	r16
    1f9e:	1f 93       	push	r17
    1fa0:	cf 93       	push	r28
    1fa2:	df 93       	push	r29
    1fa4:	86 17       	cp	r24, r22
    1fa6:	97 07       	cpc	r25, r23
    1fa8:	09 f1       	breq	.+66     	; 0x1fec <_ZNK6String16equalsIgnoreCaseERKS_+0x54>
    1faa:	fc 01       	movw	r30, r24
    1fac:	24 81       	ldd	r18, Z+4	; 0x04
    1fae:	35 81       	ldd	r19, Z+5	; 0x05
    1fb0:	fb 01       	movw	r30, r22
    1fb2:	44 81       	ldd	r20, Z+4	; 0x04
    1fb4:	55 81       	ldd	r21, Z+5	; 0x05
    1fb6:	24 17       	cp	r18, r20
    1fb8:	35 07       	cpc	r19, r21
    1fba:	d1 f4       	brne	.+52     	; 0x1ff0 <_ZNK6String16equalsIgnoreCaseERKS_+0x58>
    1fbc:	23 2b       	or	r18, r19
    1fbe:	b1 f0       	breq	.+44     	; 0x1fec <_ZNK6String16equalsIgnoreCaseERKS_+0x54>
    1fc0:	c0 81       	ld	r28, Z
    1fc2:	d1 81       	ldd	r29, Z+1	; 0x01
    1fc4:	fc 01       	movw	r30, r24
    1fc6:	00 81       	ld	r16, Z
    1fc8:	11 81       	ldd	r17, Z+1	; 0x01
    1fca:	0b c0       	rjmp	.+22     	; 0x1fe2 <_ZNK6String16equalsIgnoreCaseERKS_+0x4a>
    1fcc:	90 e0       	ldi	r25, 0x00	; 0
    1fce:	0e 94 b0 45 	call	0x8b60	; 0x8b60 <tolower>
    1fd2:	7c 01       	movw	r14, r24
    1fd4:	89 91       	ld	r24, Y+
    1fd6:	90 e0       	ldi	r25, 0x00	; 0
    1fd8:	0e 94 b0 45 	call	0x8b60	; 0x8b60 <tolower>
    1fdc:	e8 16       	cp	r14, r24
    1fde:	f9 06       	cpc	r15, r25
    1fe0:	39 f4       	brne	.+14     	; 0x1ff0 <_ZNK6String16equalsIgnoreCaseERKS_+0x58>
    1fe2:	f8 01       	movw	r30, r16
    1fe4:	81 91       	ld	r24, Z+
    1fe6:	8f 01       	movw	r16, r30
    1fe8:	81 11       	cpse	r24, r1
    1fea:	f0 cf       	rjmp	.-32     	; 0x1fcc <_ZNK6String16equalsIgnoreCaseERKS_+0x34>
    1fec:	81 e0       	ldi	r24, 0x01	; 1
    1fee:	01 c0       	rjmp	.+2      	; 0x1ff2 <_ZNK6String16equalsIgnoreCaseERKS_+0x5a>
    1ff0:	80 e0       	ldi	r24, 0x00	; 0
    1ff2:	df 91       	pop	r29
    1ff4:	cf 91       	pop	r28
    1ff6:	1f 91       	pop	r17
    1ff8:	0f 91       	pop	r16
    1ffa:	ff 90       	pop	r15
    1ffc:	ef 90       	pop	r14
    1ffe:	08 95       	ret

00002000 <_ZNK6String10startsWithERKS_j>:
    2000:	fa 01       	movw	r30, r20
    2002:	db 01       	movw	r26, r22
    2004:	14 96       	adiw	r26, 0x04	; 4
    2006:	4d 91       	ld	r20, X+
    2008:	5c 91       	ld	r21, X
    200a:	15 97       	sbiw	r26, 0x05	; 5
    200c:	dc 01       	movw	r26, r24
    200e:	14 96       	adiw	r26, 0x04	; 4
    2010:	2d 91       	ld	r18, X+
    2012:	3c 91       	ld	r19, X
    2014:	15 97       	sbiw	r26, 0x05	; 5
    2016:	24 1b       	sub	r18, r20
    2018:	35 0b       	sbc	r19, r21
    201a:	2e 17       	cp	r18, r30
    201c:	3f 07       	cpc	r19, r31
    201e:	90 f0       	brcs	.+36     	; 0x2044 <_ZNK6String10startsWithERKS_j+0x44>
    2020:	8d 91       	ld	r24, X+
    2022:	9c 91       	ld	r25, X
    2024:	00 97       	sbiw	r24, 0x00	; 0
    2026:	71 f0       	breq	.+28     	; 0x2044 <_ZNK6String10startsWithERKS_j+0x44>
    2028:	db 01       	movw	r26, r22
    202a:	6d 91       	ld	r22, X+
    202c:	7c 91       	ld	r23, X
    202e:	61 15       	cp	r22, r1
    2030:	71 05       	cpc	r23, r1
    2032:	41 f0       	breq	.+16     	; 0x2044 <_ZNK6String10startsWithERKS_j+0x44>
    2034:	8e 0f       	add	r24, r30
    2036:	9f 1f       	adc	r25, r31
    2038:	0e 94 fa 45 	call	0x8bf4	; 0x8bf4 <strncmp>
    203c:	9c 01       	movw	r18, r24
    203e:	81 e0       	ldi	r24, 0x01	; 1
    2040:	23 2b       	or	r18, r19
    2042:	09 f0       	breq	.+2      	; 0x2046 <_ZNK6String10startsWithERKS_j+0x46>
    2044:	80 e0       	ldi	r24, 0x00	; 0
    2046:	08 95       	ret

00002048 <_ZNK6String10startsWithERKS_>:
    2048:	fc 01       	movw	r30, r24
    204a:	44 81       	ldd	r20, Z+4	; 0x04
    204c:	55 81       	ldd	r21, Z+5	; 0x05
    204e:	fb 01       	movw	r30, r22
    2050:	24 81       	ldd	r18, Z+4	; 0x04
    2052:	35 81       	ldd	r19, Z+5	; 0x05
    2054:	42 17       	cp	r20, r18
    2056:	53 07       	cpc	r21, r19
    2058:	20 f0       	brcs	.+8      	; 0x2062 <_ZNK6String10startsWithERKS_+0x1a>
    205a:	40 e0       	ldi	r20, 0x00	; 0
    205c:	50 e0       	ldi	r21, 0x00	; 0
    205e:	0c 94 00 10 	jmp	0x2000	; 0x2000 <_ZNK6String10startsWithERKS_j>
    2062:	80 e0       	ldi	r24, 0x00	; 0
    2064:	08 95       	ret

00002066 <_ZNK6String8endsWithERKS_>:
    2066:	fc 01       	movw	r30, r24
    2068:	84 81       	ldd	r24, Z+4	; 0x04
    206a:	95 81       	ldd	r25, Z+5	; 0x05
    206c:	db 01       	movw	r26, r22
    206e:	14 96       	adiw	r26, 0x04	; 4
    2070:	4d 91       	ld	r20, X+
    2072:	5c 91       	ld	r21, X
    2074:	15 97       	sbiw	r26, 0x05	; 5
    2076:	84 17       	cp	r24, r20
    2078:	95 07       	cpc	r25, r21
    207a:	a0 f0       	brcs	.+40     	; 0x20a4 <_ZNK6String8endsWithERKS_+0x3e>
    207c:	20 81       	ld	r18, Z
    207e:	31 81       	ldd	r19, Z+1	; 0x01
    2080:	21 15       	cp	r18, r1
    2082:	31 05       	cpc	r19, r1
    2084:	79 f0       	breq	.+30     	; 0x20a4 <_ZNK6String8endsWithERKS_+0x3e>
    2086:	6d 91       	ld	r22, X+
    2088:	7c 91       	ld	r23, X
    208a:	61 15       	cp	r22, r1
    208c:	71 05       	cpc	r23, r1
    208e:	51 f0       	breq	.+20     	; 0x20a4 <_ZNK6String8endsWithERKS_+0x3e>
    2090:	84 1b       	sub	r24, r20
    2092:	95 0b       	sbc	r25, r21
    2094:	82 0f       	add	r24, r18
    2096:	93 1f       	adc	r25, r19
    2098:	0e 94 ea 45 	call	0x8bd4	; 0x8bd4 <strcmp>
    209c:	9c 01       	movw	r18, r24
    209e:	81 e0       	ldi	r24, 0x01	; 1
    20a0:	23 2b       	or	r18, r19
    20a2:	09 f0       	breq	.+2      	; 0x20a6 <_ZNK6String8endsWithERKS_+0x40>
    20a4:	80 e0       	ldi	r24, 0x00	; 0
    20a6:	08 95       	ret

000020a8 <_ZN6String9setCharAtEjc>:
    20a8:	dc 01       	movw	r26, r24
    20aa:	14 96       	adiw	r26, 0x04	; 4
    20ac:	2d 91       	ld	r18, X+
    20ae:	3c 91       	ld	r19, X
    20b0:	15 97       	sbiw	r26, 0x05	; 5
    20b2:	62 17       	cp	r22, r18
    20b4:	73 07       	cpc	r23, r19
    20b6:	28 f4       	brcc	.+10     	; 0x20c2 <_ZN6String9setCharAtEjc+0x1a>
    20b8:	ed 91       	ld	r30, X+
    20ba:	fc 91       	ld	r31, X
    20bc:	e6 0f       	add	r30, r22
    20be:	f7 1f       	adc	r31, r23
    20c0:	40 83       	st	Z, r20
    20c2:	08 95       	ret

000020c4 <_ZN6StringixEj>:
    20c4:	fc 01       	movw	r30, r24
    20c6:	24 81       	ldd	r18, Z+4	; 0x04
    20c8:	35 81       	ldd	r19, Z+5	; 0x05
    20ca:	62 17       	cp	r22, r18
    20cc:	73 07       	cpc	r23, r19
    20ce:	20 f4       	brcc	.+8      	; 0x20d8 <_ZN6StringixEj+0x14>
    20d0:	80 81       	ld	r24, Z
    20d2:	91 81       	ldd	r25, Z+1	; 0x01
    20d4:	00 97       	sbiw	r24, 0x00	; 0
    20d6:	29 f4       	brne	.+10     	; 0x20e2 <_ZN6StringixEj+0x1e>
    20d8:	10 92 2c 09 	sts	0x092C, r1
    20dc:	6c e2       	ldi	r22, 0x2C	; 44
    20de:	79 e0       	ldi	r23, 0x09	; 9
    20e0:	02 c0       	rjmp	.+4      	; 0x20e6 <_ZN6StringixEj+0x22>
    20e2:	68 0f       	add	r22, r24
    20e4:	79 1f       	adc	r23, r25
    20e6:	cb 01       	movw	r24, r22
    20e8:	08 95       	ret

000020ea <_ZNK6StringixEj>:
    20ea:	fc 01       	movw	r30, r24
    20ec:	24 81       	ldd	r18, Z+4	; 0x04
    20ee:	35 81       	ldd	r19, Z+5	; 0x05
    20f0:	62 17       	cp	r22, r18
    20f2:	73 07       	cpc	r23, r19
    20f4:	48 f4       	brcc	.+18     	; 0x2108 <_ZNK6StringixEj+0x1e>
    20f6:	80 81       	ld	r24, Z
    20f8:	91 81       	ldd	r25, Z+1	; 0x01
    20fa:	00 97       	sbiw	r24, 0x00	; 0
    20fc:	29 f0       	breq	.+10     	; 0x2108 <_ZNK6StringixEj+0x1e>
    20fe:	fc 01       	movw	r30, r24
    2100:	e6 0f       	add	r30, r22
    2102:	f7 1f       	adc	r31, r23
    2104:	80 81       	ld	r24, Z
    2106:	08 95       	ret
    2108:	80 e0       	ldi	r24, 0x00	; 0
    210a:	08 95       	ret

0000210c <_ZNK6String6charAtEj>:
    210c:	0c 94 75 10 	jmp	0x20ea	; 0x20ea <_ZNK6StringixEj>

00002110 <_ZNK6String8getBytesEPhjj>:
    2110:	0f 93       	push	r16
    2112:	1f 93       	push	r17
    2114:	cf 93       	push	r28
    2116:	df 93       	push	r29
    2118:	eb 01       	movw	r28, r22
    211a:	41 15       	cp	r20, r1
    211c:	51 05       	cpc	r21, r1
    211e:	e9 f0       	breq	.+58     	; 0x215a <_ZNK6String8getBytesEPhjj+0x4a>
    2120:	20 97       	sbiw	r28, 0x00	; 0
    2122:	d9 f0       	breq	.+54     	; 0x215a <_ZNK6String8getBytesEPhjj+0x4a>
    2124:	fc 01       	movw	r30, r24
    2126:	04 81       	ldd	r16, Z+4	; 0x04
    2128:	15 81       	ldd	r17, Z+5	; 0x05
    212a:	20 17       	cp	r18, r16
    212c:	31 07       	cpc	r19, r17
    212e:	08 f0       	brcs	.+2      	; 0x2132 <_ZNK6String8getBytesEPhjj+0x22>
    2130:	13 c0       	rjmp	.+38     	; 0x2158 <_ZNK6String8getBytesEPhjj+0x48>
    2132:	41 50       	subi	r20, 0x01	; 1
    2134:	51 09       	sbc	r21, r1
    2136:	02 1b       	sub	r16, r18
    2138:	13 0b       	sbc	r17, r19
    213a:	40 17       	cp	r20, r16
    213c:	51 07       	cpc	r21, r17
    213e:	08 f4       	brcc	.+2      	; 0x2142 <_ZNK6String8getBytesEPhjj+0x32>
    2140:	8a 01       	movw	r16, r20
    2142:	fc 01       	movw	r30, r24
    2144:	60 81       	ld	r22, Z
    2146:	71 81       	ldd	r23, Z+1	; 0x01
    2148:	62 0f       	add	r22, r18
    214a:	73 1f       	adc	r23, r19
    214c:	a8 01       	movw	r20, r16
    214e:	ce 01       	movw	r24, r28
    2150:	0e 94 08 46 	call	0x8c10	; 0x8c10 <strncpy>
    2154:	c0 0f       	add	r28, r16
    2156:	d1 1f       	adc	r29, r17
    2158:	18 82       	st	Y, r1
    215a:	df 91       	pop	r29
    215c:	cf 91       	pop	r28
    215e:	1f 91       	pop	r17
    2160:	0f 91       	pop	r16
    2162:	08 95       	ret

00002164 <_ZNK6String7indexOfEcj>:
    2164:	cf 93       	push	r28
    2166:	df 93       	push	r29
    2168:	fc 01       	movw	r30, r24
    216a:	84 81       	ldd	r24, Z+4	; 0x04
    216c:	95 81       	ldd	r25, Z+5	; 0x05
    216e:	48 17       	cp	r20, r24
    2170:	59 07       	cpc	r21, r25
    2172:	70 f4       	brcc	.+28     	; 0x2190 <_ZNK6String7indexOfEcj+0x2c>
    2174:	c0 81       	ld	r28, Z
    2176:	d1 81       	ldd	r29, Z+1	; 0x01
    2178:	70 e0       	ldi	r23, 0x00	; 0
    217a:	ce 01       	movw	r24, r28
    217c:	84 0f       	add	r24, r20
    217e:	95 1f       	adc	r25, r21
    2180:	0e 94 df 45 	call	0x8bbe	; 0x8bbe <strchr>
    2184:	00 97       	sbiw	r24, 0x00	; 0
    2186:	21 f0       	breq	.+8      	; 0x2190 <_ZNK6String7indexOfEcj+0x2c>
    2188:	9c 01       	movw	r18, r24
    218a:	2c 1b       	sub	r18, r28
    218c:	3d 0b       	sbc	r19, r29
    218e:	02 c0       	rjmp	.+4      	; 0x2194 <_ZNK6String7indexOfEcj+0x30>
    2190:	2f ef       	ldi	r18, 0xFF	; 255
    2192:	3f ef       	ldi	r19, 0xFF	; 255
    2194:	c9 01       	movw	r24, r18
    2196:	df 91       	pop	r29
    2198:	cf 91       	pop	r28
    219a:	08 95       	ret

0000219c <_ZNK6String7indexOfEc>:
    219c:	40 e0       	ldi	r20, 0x00	; 0
    219e:	50 e0       	ldi	r21, 0x00	; 0
    21a0:	0c 94 b2 10 	jmp	0x2164	; 0x2164 <_ZNK6String7indexOfEcj>

000021a4 <_ZNK6String7indexOfERKS_j>:
    21a4:	cf 93       	push	r28
    21a6:	df 93       	push	r29
    21a8:	fc 01       	movw	r30, r24
    21aa:	84 81       	ldd	r24, Z+4	; 0x04
    21ac:	95 81       	ldd	r25, Z+5	; 0x05
    21ae:	48 17       	cp	r20, r24
    21b0:	59 07       	cpc	r21, r25
    21b2:	80 f4       	brcc	.+32     	; 0x21d4 <_ZNK6String7indexOfERKS_j+0x30>
    21b4:	c0 81       	ld	r28, Z
    21b6:	d1 81       	ldd	r29, Z+1	; 0x01
    21b8:	fb 01       	movw	r30, r22
    21ba:	60 81       	ld	r22, Z
    21bc:	71 81       	ldd	r23, Z+1	; 0x01
    21be:	ce 01       	movw	r24, r28
    21c0:	84 0f       	add	r24, r20
    21c2:	95 1f       	adc	r25, r21
    21c4:	0e 94 22 46 	call	0x8c44	; 0x8c44 <strstr>
    21c8:	00 97       	sbiw	r24, 0x00	; 0
    21ca:	21 f0       	breq	.+8      	; 0x21d4 <_ZNK6String7indexOfERKS_j+0x30>
    21cc:	9c 01       	movw	r18, r24
    21ce:	2c 1b       	sub	r18, r28
    21d0:	3d 0b       	sbc	r19, r29
    21d2:	02 c0       	rjmp	.+4      	; 0x21d8 <_ZNK6String7indexOfERKS_j+0x34>
    21d4:	2f ef       	ldi	r18, 0xFF	; 255
    21d6:	3f ef       	ldi	r19, 0xFF	; 255
    21d8:	c9 01       	movw	r24, r18
    21da:	df 91       	pop	r29
    21dc:	cf 91       	pop	r28
    21de:	08 95       	ret

000021e0 <_ZNK6String7indexOfERKS_>:
    21e0:	40 e0       	ldi	r20, 0x00	; 0
    21e2:	50 e0       	ldi	r21, 0x00	; 0
    21e4:	0c 94 d2 10 	jmp	0x21a4	; 0x21a4 <_ZNK6String7indexOfERKS_j>

000021e8 <_ZNK6String11lastIndexOfEcj>:
    21e8:	df 92       	push	r13
    21ea:	ef 92       	push	r14
    21ec:	ff 92       	push	r15
    21ee:	0f 93       	push	r16
    21f0:	1f 93       	push	r17
    21f2:	cf 93       	push	r28
    21f4:	df 93       	push	r29
    21f6:	ec 01       	movw	r28, r24
    21f8:	8c 81       	ldd	r24, Y+4	; 0x04
    21fa:	9d 81       	ldd	r25, Y+5	; 0x05
    21fc:	48 17       	cp	r20, r24
    21fe:	59 07       	cpc	r21, r25
    2200:	18 f0       	brcs	.+6      	; 0x2208 <__stack+0x9>
    2202:	2f ef       	ldi	r18, 0xFF	; 255
    2204:	3f ef       	ldi	r19, 0xFF	; 255
    2206:	1b c0       	rjmp	.+54     	; 0x223e <__stack+0x3f>
    2208:	8a 01       	movw	r16, r20
    220a:	0f 5f       	subi	r16, 0xFF	; 255
    220c:	1f 4f       	sbci	r17, 0xFF	; 255
    220e:	e8 81       	ld	r30, Y
    2210:	f9 81       	ldd	r31, Y+1	; 0x01
    2212:	e0 0f       	add	r30, r16
    2214:	f1 1f       	adc	r31, r17
    2216:	d0 80       	ld	r13, Z
    2218:	10 82       	st	Z, r1
    221a:	e8 80       	ld	r14, Y
    221c:	f9 80       	ldd	r15, Y+1	; 0x01
    221e:	70 e0       	ldi	r23, 0x00	; 0
    2220:	c7 01       	movw	r24, r14
    2222:	0e 94 17 46 	call	0x8c2e	; 0x8c2e <strrchr>
    2226:	f7 01       	movw	r30, r14
    2228:	e0 0f       	add	r30, r16
    222a:	f1 1f       	adc	r31, r17
    222c:	d0 82       	st	Z, r13
    222e:	00 97       	sbiw	r24, 0x00	; 0
    2230:	41 f3       	breq	.-48     	; 0x2202 <__stack+0x3>
    2232:	28 81       	ld	r18, Y
    2234:	39 81       	ldd	r19, Y+1	; 0x01
    2236:	ac 01       	movw	r20, r24
    2238:	42 1b       	sub	r20, r18
    223a:	53 0b       	sbc	r21, r19
    223c:	9a 01       	movw	r18, r20
    223e:	c9 01       	movw	r24, r18
    2240:	df 91       	pop	r29
    2242:	cf 91       	pop	r28
    2244:	1f 91       	pop	r17
    2246:	0f 91       	pop	r16
    2248:	ff 90       	pop	r15
    224a:	ef 90       	pop	r14
    224c:	df 90       	pop	r13
    224e:	08 95       	ret

00002250 <_ZNK6String11lastIndexOfEc>:
    2250:	fc 01       	movw	r30, r24
    2252:	44 81       	ldd	r20, Z+4	; 0x04
    2254:	55 81       	ldd	r21, Z+5	; 0x05
    2256:	41 50       	subi	r20, 0x01	; 1
    2258:	51 09       	sbc	r21, r1
    225a:	0c 94 f4 10 	jmp	0x21e8	; 0x21e8 <_ZNK6String11lastIndexOfEcj>

0000225e <_ZNK6String11lastIndexOfERKS_j>:
    225e:	af 92       	push	r10
    2260:	bf 92       	push	r11
    2262:	cf 92       	push	r12
    2264:	df 92       	push	r13
    2266:	ef 92       	push	r14
    2268:	ff 92       	push	r15
    226a:	0f 93       	push	r16
    226c:	1f 93       	push	r17
    226e:	cf 93       	push	r28
    2270:	df 93       	push	r29
    2272:	6b 01       	movw	r12, r22
    2274:	8a 01       	movw	r16, r20
    2276:	fb 01       	movw	r30, r22
    2278:	44 81       	ldd	r20, Z+4	; 0x04
    227a:	55 81       	ldd	r21, Z+5	; 0x05
    227c:	41 15       	cp	r20, r1
    227e:	51 05       	cpc	r21, r1
    2280:	69 f1       	breq	.+90     	; 0x22dc <_ZNK6String11lastIndexOfERKS_j+0x7e>
    2282:	fc 01       	movw	r30, r24
    2284:	24 81       	ldd	r18, Z+4	; 0x04
    2286:	35 81       	ldd	r19, Z+5	; 0x05
    2288:	21 15       	cp	r18, r1
    228a:	31 05       	cpc	r19, r1
    228c:	39 f1       	breq	.+78     	; 0x22dc <_ZNK6String11lastIndexOfERKS_j+0x7e>
    228e:	24 17       	cp	r18, r20
    2290:	35 07       	cpc	r19, r21
    2292:	20 f1       	brcs	.+72     	; 0x22dc <_ZNK6String11lastIndexOfERKS_j+0x7e>
    2294:	02 17       	cp	r16, r18
    2296:	13 07       	cpc	r17, r19
    2298:	18 f0       	brcs	.+6      	; 0x22a0 <_ZNK6String11lastIndexOfERKS_j+0x42>
    229a:	89 01       	movw	r16, r18
    229c:	01 50       	subi	r16, 0x01	; 1
    229e:	11 09       	sbc	r17, r1
    22a0:	fc 01       	movw	r30, r24
    22a2:	e0 80       	ld	r14, Z
    22a4:	f1 80       	ldd	r15, Z+1	; 0x01
    22a6:	c7 01       	movw	r24, r14
    22a8:	cf ef       	ldi	r28, 0xFF	; 255
    22aa:	df ef       	ldi	r29, 0xFF	; 255
    22ac:	57 01       	movw	r10, r14
    22ae:	a0 0e       	add	r10, r16
    22b0:	b1 1e       	adc	r11, r17
    22b2:	10 c0       	rjmp	.+32     	; 0x22d4 <_ZNK6String11lastIndexOfERKS_j+0x76>
    22b4:	f6 01       	movw	r30, r12
    22b6:	60 81       	ld	r22, Z
    22b8:	71 81       	ldd	r23, Z+1	; 0x01
    22ba:	0e 94 22 46 	call	0x8c44	; 0x8c44 <strstr>
    22be:	00 97       	sbiw	r24, 0x00	; 0
    22c0:	79 f0       	breq	.+30     	; 0x22e0 <_ZNK6String11lastIndexOfERKS_j+0x82>
    22c2:	9c 01       	movw	r18, r24
    22c4:	2e 19       	sub	r18, r14
    22c6:	3f 09       	sbc	r19, r15
    22c8:	02 17       	cp	r16, r18
    22ca:	13 07       	cpc	r17, r19
    22cc:	08 f4       	brcc	.+2      	; 0x22d0 <_ZNK6String11lastIndexOfERKS_j+0x72>
    22ce:	9e 01       	movw	r18, r28
    22d0:	01 96       	adiw	r24, 0x01	; 1
    22d2:	e9 01       	movw	r28, r18
    22d4:	a8 16       	cp	r10, r24
    22d6:	b9 06       	cpc	r11, r25
    22d8:	68 f7       	brcc	.-38     	; 0x22b4 <_ZNK6String11lastIndexOfERKS_j+0x56>
    22da:	02 c0       	rjmp	.+4      	; 0x22e0 <_ZNK6String11lastIndexOfERKS_j+0x82>
    22dc:	cf ef       	ldi	r28, 0xFF	; 255
    22de:	df ef       	ldi	r29, 0xFF	; 255
    22e0:	ce 01       	movw	r24, r28
    22e2:	df 91       	pop	r29
    22e4:	cf 91       	pop	r28
    22e6:	1f 91       	pop	r17
    22e8:	0f 91       	pop	r16
    22ea:	ff 90       	pop	r15
    22ec:	ef 90       	pop	r14
    22ee:	df 90       	pop	r13
    22f0:	cf 90       	pop	r12
    22f2:	bf 90       	pop	r11
    22f4:	af 90       	pop	r10
    22f6:	08 95       	ret

000022f8 <_ZNK6String11lastIndexOfERKS_>:
    22f8:	fc 01       	movw	r30, r24
    22fa:	44 81       	ldd	r20, Z+4	; 0x04
    22fc:	55 81       	ldd	r21, Z+5	; 0x05
    22fe:	fb 01       	movw	r30, r22
    2300:	24 81       	ldd	r18, Z+4	; 0x04
    2302:	35 81       	ldd	r19, Z+5	; 0x05
    2304:	42 1b       	sub	r20, r18
    2306:	53 0b       	sbc	r21, r19
    2308:	0c 94 2f 11 	jmp	0x225e	; 0x225e <_ZNK6String11lastIndexOfERKS_j>

0000230c <_ZNK6String9substringEjj>:
    230c:	bf 92       	push	r11
    230e:	cf 92       	push	r12
    2310:	df 92       	push	r13
    2312:	ef 92       	push	r14
    2314:	ff 92       	push	r15
    2316:	0f 93       	push	r16
    2318:	1f 93       	push	r17
    231a:	cf 93       	push	r28
    231c:	df 93       	push	r29
    231e:	6c 01       	movw	r12, r24
    2320:	7b 01       	movw	r14, r22
    2322:	ea 01       	movw	r28, r20
    2324:	89 01       	movw	r16, r18
    2326:	24 17       	cp	r18, r20
    2328:	35 07       	cpc	r19, r21
    232a:	20 f4       	brcc	.+8      	; 0x2334 <_ZNK6String9substringEjj+0x28>
    232c:	8d 2f       	mov	r24, r29
    232e:	e9 01       	movw	r28, r18
    2330:	04 2f       	mov	r16, r20
    2332:	18 2f       	mov	r17, r24
    2334:	6e e3       	ldi	r22, 0x3E	; 62
    2336:	74 e0       	ldi	r23, 0x04	; 4
    2338:	c6 01       	movw	r24, r12
    233a:	0e 94 0e 0c 	call	0x181c	; 0x181c <_ZN6StringC1EPKc>
    233e:	d7 01       	movw	r26, r14
    2340:	14 96       	adiw	r26, 0x04	; 4
    2342:	8d 91       	ld	r24, X+
    2344:	9c 91       	ld	r25, X
    2346:	15 97       	sbiw	r26, 0x05	; 5
    2348:	8c 17       	cp	r24, r28
    234a:	9d 07       	cpc	r25, r29
    234c:	c8 f0       	brcs	.+50     	; 0x2380 <_ZNK6String9substringEjj+0x74>
    234e:	80 17       	cp	r24, r16
    2350:	91 07       	cpc	r25, r17
    2352:	08 f4       	brcc	.+2      	; 0x2356 <_ZNK6String9substringEjj+0x4a>
    2354:	8c 01       	movw	r16, r24
    2356:	d7 01       	movw	r26, r14
    2358:	ed 91       	ld	r30, X+
    235a:	fc 91       	ld	r31, X
    235c:	11 97       	sbiw	r26, 0x01	; 1
    235e:	e0 0f       	add	r30, r16
    2360:	f1 1f       	adc	r31, r17
    2362:	b0 80       	ld	r11, Z
    2364:	10 82       	st	Z, r1
    2366:	6d 91       	ld	r22, X+
    2368:	7c 91       	ld	r23, X
    236a:	6c 0f       	add	r22, r28
    236c:	7d 1f       	adc	r23, r29
    236e:	c6 01       	movw	r24, r12
    2370:	0e 94 4c 0c 	call	0x1898	; 0x1898 <_ZN6StringaSEPKc>
    2374:	d7 01       	movw	r26, r14
    2376:	ed 91       	ld	r30, X+
    2378:	fc 91       	ld	r31, X
    237a:	e0 0f       	add	r30, r16
    237c:	f1 1f       	adc	r31, r17
    237e:	b0 82       	st	Z, r11
    2380:	c6 01       	movw	r24, r12
    2382:	df 91       	pop	r29
    2384:	cf 91       	pop	r28
    2386:	1f 91       	pop	r17
    2388:	0f 91       	pop	r16
    238a:	ff 90       	pop	r15
    238c:	ef 90       	pop	r14
    238e:	df 90       	pop	r13
    2390:	cf 90       	pop	r12
    2392:	bf 90       	pop	r11
    2394:	08 95       	ret

00002396 <_ZNK6String9substringEj>:
    2396:	cf 93       	push	r28
    2398:	df 93       	push	r29
    239a:	ec 01       	movw	r28, r24
    239c:	fb 01       	movw	r30, r22
    239e:	24 81       	ldd	r18, Z+4	; 0x04
    23a0:	35 81       	ldd	r19, Z+5	; 0x05
    23a2:	0e 94 86 11 	call	0x230c	; 0x230c <_ZNK6String9substringEjj>
    23a6:	ce 01       	movw	r24, r28
    23a8:	df 91       	pop	r29
    23aa:	cf 91       	pop	r28
    23ac:	08 95       	ret

000023ae <_ZN6String7replaceEcc>:
    23ae:	dc 01       	movw	r26, r24
    23b0:	ed 91       	ld	r30, X+
    23b2:	fc 91       	ld	r31, X
    23b4:	30 97       	sbiw	r30, 0x00	; 0
    23b6:	29 f4       	brne	.+10     	; 0x23c2 <_ZN6String7replaceEcc+0x14>
    23b8:	08 95       	ret
    23ba:	86 13       	cpse	r24, r22
    23bc:	01 c0       	rjmp	.+2      	; 0x23c0 <_ZN6String7replaceEcc+0x12>
    23be:	40 83       	st	Z, r20
    23c0:	31 96       	adiw	r30, 0x01	; 1
    23c2:	80 81       	ld	r24, Z
    23c4:	81 11       	cpse	r24, r1
    23c6:	f9 cf       	rjmp	.-14     	; 0x23ba <_ZN6String7replaceEcc+0xc>
    23c8:	08 95       	ret

000023ca <_ZN6String7replaceERKS_S1_>:
    23ca:	2f 92       	push	r2
    23cc:	3f 92       	push	r3
    23ce:	4f 92       	push	r4
    23d0:	5f 92       	push	r5
    23d2:	6f 92       	push	r6
    23d4:	7f 92       	push	r7
    23d6:	8f 92       	push	r8
    23d8:	9f 92       	push	r9
    23da:	af 92       	push	r10
    23dc:	bf 92       	push	r11
    23de:	cf 92       	push	r12
    23e0:	df 92       	push	r13
    23e2:	ef 92       	push	r14
    23e4:	ff 92       	push	r15
    23e6:	0f 93       	push	r16
    23e8:	1f 93       	push	r17
    23ea:	cf 93       	push	r28
    23ec:	df 93       	push	r29
    23ee:	8c 01       	movw	r16, r24
    23f0:	5b 01       	movw	r10, r22
    23f2:	7a 01       	movw	r14, r20
    23f4:	dc 01       	movw	r26, r24
    23f6:	14 96       	adiw	r26, 0x04	; 4
    23f8:	6d 90       	ld	r6, X+
    23fa:	7c 90       	ld	r7, X
    23fc:	15 97       	sbiw	r26, 0x05	; 5
    23fe:	61 14       	cp	r6, r1
    2400:	71 04       	cpc	r7, r1
    2402:	09 f4       	brne	.+2      	; 0x2406 <_ZN6String7replaceERKS_S1_+0x3c>
    2404:	e1 c0       	rjmp	.+450    	; 0x25c8 <_ZN6String7replaceERKS_S1_+0x1fe>
    2406:	fb 01       	movw	r30, r22
    2408:	44 80       	ldd	r4, Z+4	; 0x04
    240a:	55 80       	ldd	r5, Z+5	; 0x05
    240c:	41 14       	cp	r4, r1
    240e:	51 04       	cpc	r5, r1
    2410:	09 f4       	brne	.+2      	; 0x2414 <_ZN6String7replaceERKS_S1_+0x4a>
    2412:	da c0       	rjmp	.+436    	; 0x25c8 <_ZN6String7replaceERKS_S1_+0x1fe>
    2414:	da 01       	movw	r26, r20
    2416:	14 96       	adiw	r26, 0x04	; 4
    2418:	cd 90       	ld	r12, X+
    241a:	dc 90       	ld	r13, X
    241c:	15 97       	sbiw	r26, 0x05	; 5
    241e:	c4 18       	sub	r12, r4
    2420:	d5 08       	sbc	r13, r5
    2422:	fc 01       	movw	r30, r24
    2424:	c0 81       	ld	r28, Z
    2426:	d1 81       	ldd	r29, Z+1	; 0x01
    2428:	c1 14       	cp	r12, r1
    242a:	d1 04       	cpc	r13, r1
    242c:	e1 f4       	brne	.+56     	; 0x2466 <_ZN6String7replaceERKS_S1_+0x9c>
    242e:	11 c0       	rjmp	.+34     	; 0x2452 <_ZN6String7replaceERKS_S1_+0x88>
    2430:	d7 01       	movw	r26, r14
    2432:	6c 91       	ld	r22, X
    2434:	11 96       	adiw	r26, 0x01	; 1
    2436:	7c 91       	ld	r23, X
    2438:	11 97       	sbiw	r26, 0x01	; 1
    243a:	14 96       	adiw	r26, 0x04	; 4
    243c:	4d 91       	ld	r20, X+
    243e:	5c 91       	ld	r21, X
    2440:	15 97       	sbiw	r26, 0x05	; 5
    2442:	c8 01       	movw	r24, r16
    2444:	0e 94 c4 45 	call	0x8b88	; 0x8b88 <memcpy>
    2448:	f7 01       	movw	r30, r14
    244a:	c4 81       	ldd	r28, Z+4	; 0x04
    244c:	d5 81       	ldd	r29, Z+5	; 0x05
    244e:	c0 0f       	add	r28, r16
    2450:	d1 1f       	adc	r29, r17
    2452:	d5 01       	movw	r26, r10
    2454:	6d 91       	ld	r22, X+
    2456:	7c 91       	ld	r23, X
    2458:	ce 01       	movw	r24, r28
    245a:	0e 94 22 46 	call	0x8c44	; 0x8c44 <strstr>
    245e:	8c 01       	movw	r16, r24
    2460:	00 97       	sbiw	r24, 0x00	; 0
    2462:	31 f7       	brne	.-52     	; 0x2430 <_ZN6String7replaceERKS_S1_+0x66>
    2464:	b1 c0       	rjmp	.+354    	; 0x25c8 <_ZN6String7replaceERKS_S1_+0x1fe>
    2466:	d7 fe       	sbrs	r13, 7
    2468:	02 c0       	rjmp	.+4      	; 0x246e <_ZN6String7replaceERKS_S1_+0xa4>
    246a:	4e 01       	movw	r8, r28
    246c:	2f c0       	rjmp	.+94     	; 0x24cc <_ZN6String7replaceERKS_S1_+0x102>
    246e:	fb 01       	movw	r30, r22
    2470:	20 80       	ld	r2, Z
    2472:	31 80       	ldd	r3, Z+1	; 0x01
    2474:	43 01       	movw	r8, r6
    2476:	4e c0       	rjmp	.+156    	; 0x2514 <_ZN6String7replaceERKS_S1_+0x14a>
    2478:	23 01       	movw	r4, r6
    247a:	4c 1a       	sub	r4, r28
    247c:	5d 0a       	sbc	r5, r29
    247e:	a2 01       	movw	r20, r4
    2480:	be 01       	movw	r22, r28
    2482:	c4 01       	movw	r24, r8
    2484:	0e 94 c4 45 	call	0x8b88	; 0x8b88 <memcpy>
    2488:	e4 01       	movw	r28, r8
    248a:	c4 0d       	add	r28, r4
    248c:	d5 1d       	adc	r29, r5
    248e:	d7 01       	movw	r26, r14
    2490:	6c 91       	ld	r22, X
    2492:	11 96       	adiw	r26, 0x01	; 1
    2494:	7c 91       	ld	r23, X
    2496:	11 97       	sbiw	r26, 0x01	; 1
    2498:	14 96       	adiw	r26, 0x04	; 4
    249a:	4d 91       	ld	r20, X+
    249c:	5c 91       	ld	r21, X
    249e:	15 97       	sbiw	r26, 0x05	; 5
    24a0:	ce 01       	movw	r24, r28
    24a2:	0e 94 c4 45 	call	0x8b88	; 0x8b88 <memcpy>
    24a6:	f7 01       	movw	r30, r14
    24a8:	84 80       	ldd	r8, Z+4	; 0x04
    24aa:	95 80       	ldd	r9, Z+5	; 0x05
    24ac:	8c 0e       	add	r8, r28
    24ae:	9d 1e       	adc	r9, r29
    24b0:	d5 01       	movw	r26, r10
    24b2:	14 96       	adiw	r26, 0x04	; 4
    24b4:	cd 91       	ld	r28, X+
    24b6:	dc 91       	ld	r29, X
    24b8:	15 97       	sbiw	r26, 0x05	; 5
    24ba:	c6 0d       	add	r28, r6
    24bc:	d7 1d       	adc	r29, r7
    24be:	f8 01       	movw	r30, r16
    24c0:	84 81       	ldd	r24, Z+4	; 0x04
    24c2:	95 81       	ldd	r25, Z+5	; 0x05
    24c4:	8c 0d       	add	r24, r12
    24c6:	9d 1d       	adc	r25, r13
    24c8:	95 83       	std	Z+5, r25	; 0x05
    24ca:	84 83       	std	Z+4, r24	; 0x04
    24cc:	d5 01       	movw	r26, r10
    24ce:	6d 91       	ld	r22, X+
    24d0:	7c 91       	ld	r23, X
    24d2:	ce 01       	movw	r24, r28
    24d4:	0e 94 22 46 	call	0x8c44	; 0x8c44 <strstr>
    24d8:	3c 01       	movw	r6, r24
    24da:	00 97       	sbiw	r24, 0x00	; 0
    24dc:	69 f6       	brne	.-102    	; 0x2478 <_ZN6String7replaceERKS_S1_+0xae>
    24de:	be 01       	movw	r22, r28
    24e0:	c4 01       	movw	r24, r8
    24e2:	df 91       	pop	r29
    24e4:	cf 91       	pop	r28
    24e6:	1f 91       	pop	r17
    24e8:	0f 91       	pop	r16
    24ea:	ff 90       	pop	r15
    24ec:	ef 90       	pop	r14
    24ee:	df 90       	pop	r13
    24f0:	cf 90       	pop	r12
    24f2:	bf 90       	pop	r11
    24f4:	af 90       	pop	r10
    24f6:	9f 90       	pop	r9
    24f8:	8f 90       	pop	r8
    24fa:	7f 90       	pop	r7
    24fc:	6f 90       	pop	r6
    24fe:	5f 90       	pop	r5
    2500:	4f 90       	pop	r4
    2502:	3f 90       	pop	r3
    2504:	2f 90       	pop	r2
    2506:	0c 94 f3 45 	jmp	0x8be6	; 0x8be6 <strcpy>
    250a:	ec 01       	movw	r28, r24
    250c:	c4 0d       	add	r28, r4
    250e:	d5 1d       	adc	r29, r5
    2510:	8c 0c       	add	r8, r12
    2512:	9d 1c       	adc	r9, r13
    2514:	b1 01       	movw	r22, r2
    2516:	ce 01       	movw	r24, r28
    2518:	0e 94 22 46 	call	0x8c44	; 0x8c44 <strstr>
    251c:	00 97       	sbiw	r24, 0x00	; 0
    251e:	a9 f7       	brne	.-22     	; 0x250a <_ZN6String7replaceERKS_S1_+0x140>
    2520:	86 14       	cp	r8, r6
    2522:	97 04       	cpc	r9, r7
    2524:	09 f4       	brne	.+2      	; 0x2528 <_ZN6String7replaceERKS_S1_+0x15e>
    2526:	50 c0       	rjmp	.+160    	; 0x25c8 <_ZN6String7replaceERKS_S1_+0x1fe>
    2528:	f8 01       	movw	r30, r16
    252a:	82 81       	ldd	r24, Z+2	; 0x02
    252c:	93 81       	ldd	r25, Z+3	; 0x03
    252e:	88 15       	cp	r24, r8
    2530:	99 05       	cpc	r25, r9
    2532:	98 f4       	brcc	.+38     	; 0x255a <_ZN6String7replaceERKS_S1_+0x190>
    2534:	b4 01       	movw	r22, r8
    2536:	c8 01       	movw	r24, r16
    2538:	0e 94 b4 0b 	call	0x1768	; 0x1768 <_ZN6String12changeBufferEj>
    253c:	88 23       	and	r24, r24
    253e:	09 f4       	brne	.+2      	; 0x2542 <_ZN6String7replaceERKS_S1_+0x178>
    2540:	43 c0       	rjmp	.+134    	; 0x25c8 <_ZN6String7replaceERKS_S1_+0x1fe>
    2542:	0b c0       	rjmp	.+22     	; 0x255a <_ZN6String7replaceERKS_S1_+0x190>
    2544:	d7 fd       	sbrc	r29, 7
    2546:	40 c0       	rjmp	.+128    	; 0x25c8 <_ZN6String7replaceERKS_S1_+0x1fe>
    2548:	ae 01       	movw	r20, r28
    254a:	b5 01       	movw	r22, r10
    254c:	c8 01       	movw	r24, r16
    254e:	0e 94 2f 11 	call	0x225e	; 0x225e <_ZNK6String11lastIndexOfERKS_j>
    2552:	ec 01       	movw	r28, r24
    2554:	97 ff       	sbrs	r25, 7
    2556:	07 c0       	rjmp	.+14     	; 0x2566 <_ZN6String7replaceERKS_S1_+0x19c>
    2558:	37 c0       	rjmp	.+110    	; 0x25c8 <_ZN6String7replaceERKS_S1_+0x1fe>
    255a:	d8 01       	movw	r26, r16
    255c:	14 96       	adiw	r26, 0x04	; 4
    255e:	cd 91       	ld	r28, X+
    2560:	dc 91       	ld	r29, X
    2562:	15 97       	sbiw	r26, 0x05	; 5
    2564:	2f c0       	rjmp	.+94     	; 0x25c4 <_ZN6String7replaceERKS_S1_+0x1fa>
    2566:	f8 01       	movw	r30, r16
    2568:	80 81       	ld	r24, Z
    256a:	91 81       	ldd	r25, Z+1	; 0x01
    256c:	d5 01       	movw	r26, r10
    256e:	14 96       	adiw	r26, 0x04	; 4
    2570:	2d 91       	ld	r18, X+
    2572:	3c 91       	ld	r19, X
    2574:	15 97       	sbiw	r26, 0x05	; 5
    2576:	2c 0f       	add	r18, r28
    2578:	3d 1f       	adc	r19, r29
    257a:	82 0f       	add	r24, r18
    257c:	93 1f       	adc	r25, r19
    257e:	44 81       	ldd	r20, Z+4	; 0x04
    2580:	55 81       	ldd	r21, Z+5	; 0x05
    2582:	42 1b       	sub	r20, r18
    2584:	53 0b       	sbc	r21, r19
    2586:	bc 01       	movw	r22, r24
    2588:	8c 0d       	add	r24, r12
    258a:	9d 1d       	adc	r25, r13
    258c:	0e 94 cd 45 	call	0x8b9a	; 0x8b9a <memmove>
    2590:	f8 01       	movw	r30, r16
    2592:	84 81       	ldd	r24, Z+4	; 0x04
    2594:	95 81       	ldd	r25, Z+5	; 0x05
    2596:	8c 0d       	add	r24, r12
    2598:	9d 1d       	adc	r25, r13
    259a:	95 83       	std	Z+5, r25	; 0x05
    259c:	84 83       	std	Z+4, r24	; 0x04
    259e:	01 90       	ld	r0, Z+
    25a0:	f0 81       	ld	r31, Z
    25a2:	e0 2d       	mov	r30, r0
    25a4:	e8 0f       	add	r30, r24
    25a6:	f9 1f       	adc	r31, r25
    25a8:	10 82       	st	Z, r1
    25aa:	d8 01       	movw	r26, r16
    25ac:	2d 91       	ld	r18, X+
    25ae:	3c 91       	ld	r19, X
    25b0:	2c 0f       	add	r18, r28
    25b2:	3d 1f       	adc	r19, r29
    25b4:	f7 01       	movw	r30, r14
    25b6:	60 81       	ld	r22, Z
    25b8:	71 81       	ldd	r23, Z+1	; 0x01
    25ba:	44 81       	ldd	r20, Z+4	; 0x04
    25bc:	55 81       	ldd	r21, Z+5	; 0x05
    25be:	c9 01       	movw	r24, r18
    25c0:	0e 94 c4 45 	call	0x8b88	; 0x8b88 <memcpy>
    25c4:	21 97       	sbiw	r28, 0x01	; 1
    25c6:	be cf       	rjmp	.-132    	; 0x2544 <_ZN6String7replaceERKS_S1_+0x17a>
    25c8:	df 91       	pop	r29
    25ca:	cf 91       	pop	r28
    25cc:	1f 91       	pop	r17
    25ce:	0f 91       	pop	r16
    25d0:	ff 90       	pop	r15
    25d2:	ef 90       	pop	r14
    25d4:	df 90       	pop	r13
    25d6:	cf 90       	pop	r12
    25d8:	bf 90       	pop	r11
    25da:	af 90       	pop	r10
    25dc:	9f 90       	pop	r9
    25de:	8f 90       	pop	r8
    25e0:	7f 90       	pop	r7
    25e2:	6f 90       	pop	r6
    25e4:	5f 90       	pop	r5
    25e6:	4f 90       	pop	r4
    25e8:	3f 90       	pop	r3
    25ea:	2f 90       	pop	r2
    25ec:	08 95       	ret

000025ee <_ZN6String11toLowerCaseEv>:
    25ee:	cf 93       	push	r28
    25f0:	df 93       	push	r29
    25f2:	fc 01       	movw	r30, r24
    25f4:	c0 81       	ld	r28, Z
    25f6:	d1 81       	ldd	r29, Z+1	; 0x01
    25f8:	20 97       	sbiw	r28, 0x00	; 0
    25fa:	29 f4       	brne	.+10     	; 0x2606 <_ZN6String11toLowerCaseEv+0x18>
    25fc:	07 c0       	rjmp	.+14     	; 0x260c <_ZN6String11toLowerCaseEv+0x1e>
    25fe:	90 e0       	ldi	r25, 0x00	; 0
    2600:	0e 94 b0 45 	call	0x8b60	; 0x8b60 <tolower>
    2604:	89 93       	st	Y+, r24
    2606:	88 81       	ld	r24, Y
    2608:	81 11       	cpse	r24, r1
    260a:	f9 cf       	rjmp	.-14     	; 0x25fe <_ZN6String11toLowerCaseEv+0x10>
    260c:	df 91       	pop	r29
    260e:	cf 91       	pop	r28
    2610:	08 95       	ret

00002612 <_ZN6String11toUpperCaseEv>:
    2612:	cf 93       	push	r28
    2614:	df 93       	push	r29
    2616:	fc 01       	movw	r30, r24
    2618:	c0 81       	ld	r28, Z
    261a:	d1 81       	ldd	r29, Z+1	; 0x01
    261c:	20 97       	sbiw	r28, 0x00	; 0
    261e:	29 f4       	brne	.+10     	; 0x262a <_ZN6String11toUpperCaseEv+0x18>
    2620:	07 c0       	rjmp	.+14     	; 0x2630 <_ZN6String11toUpperCaseEv+0x1e>
    2622:	90 e0       	ldi	r25, 0x00	; 0
    2624:	0e 94 b8 45 	call	0x8b70	; 0x8b70 <toupper>
    2628:	89 93       	st	Y+, r24
    262a:	88 81       	ld	r24, Y
    262c:	81 11       	cpse	r24, r1
    262e:	f9 cf       	rjmp	.-14     	; 0x2622 <_ZN6String11toUpperCaseEv+0x10>
    2630:	df 91       	pop	r29
    2632:	cf 91       	pop	r28
    2634:	08 95       	ret

00002636 <_ZN6String4trimEv>:
    2636:	af 92       	push	r10
    2638:	bf 92       	push	r11
    263a:	cf 92       	push	r12
    263c:	df 92       	push	r13
    263e:	ef 92       	push	r14
    2640:	ff 92       	push	r15
    2642:	0f 93       	push	r16
    2644:	1f 93       	push	r17
    2646:	cf 93       	push	r28
    2648:	df 93       	push	r29
    264a:	6c 01       	movw	r12, r24
    264c:	dc 01       	movw	r26, r24
    264e:	ed 90       	ld	r14, X+
    2650:	fc 90       	ld	r15, X
    2652:	11 97       	sbiw	r26, 0x01	; 1
    2654:	e1 14       	cp	r14, r1
    2656:	f1 04       	cpc	r15, r1
    2658:	09 f4       	brne	.+2      	; 0x265c <_ZN6String4trimEv+0x26>
    265a:	42 c0       	rjmp	.+132    	; 0x26e0 <_ZN6String4trimEv+0xaa>
    265c:	14 96       	adiw	r26, 0x04	; 4
    265e:	0d 91       	ld	r16, X+
    2660:	1c 91       	ld	r17, X
    2662:	15 97       	sbiw	r26, 0x05	; 5
    2664:	01 15       	cp	r16, r1
    2666:	11 05       	cpc	r17, r1
    2668:	d9 f1       	breq	.+118    	; 0x26e0 <_ZN6String4trimEv+0xaa>
    266a:	57 01       	movw	r10, r14
    266c:	e5 01       	movw	r28, r10
    266e:	bf ef       	ldi	r27, 0xFF	; 255
    2670:	ab 1a       	sub	r10, r27
    2672:	bb 0a       	sbc	r11, r27
    2674:	88 81       	ld	r24, Y
    2676:	90 e0       	ldi	r25, 0x00	; 0
    2678:	0e 94 a8 45 	call	0x8b50	; 0x8b50 <isspace>
    267c:	89 2b       	or	r24, r25
    267e:	b1 f7       	brne	.-20     	; 0x266c <_ZN6String4trimEv+0x36>
    2680:	01 50       	subi	r16, 0x01	; 1
    2682:	11 09       	sbc	r17, r1
    2684:	0e 0d       	add	r16, r14
    2686:	1f 1d       	adc	r17, r15
    2688:	f8 01       	movw	r30, r16
    268a:	80 81       	ld	r24, Z
    268c:	90 e0       	ldi	r25, 0x00	; 0
    268e:	0e 94 a8 45 	call	0x8b50	; 0x8b50 <isspace>
    2692:	89 2b       	or	r24, r25
    2694:	69 f4       	brne	.+26     	; 0x26b0 <_ZN6String4trimEv+0x7a>
    2696:	0f 5f       	subi	r16, 0xFF	; 255
    2698:	1f 4f       	sbci	r17, 0xFF	; 255
    269a:	0c 1b       	sub	r16, r28
    269c:	1d 0b       	sbc	r17, r29
    269e:	d6 01       	movw	r26, r12
    26a0:	15 96       	adiw	r26, 0x05	; 5
    26a2:	1c 93       	st	X, r17
    26a4:	0e 93       	st	-X, r16
    26a6:	14 97       	sbiw	r26, 0x04	; 4
    26a8:	ec 16       	cp	r14, r28
    26aa:	fd 06       	cpc	r15, r29
    26ac:	50 f4       	brcc	.+20     	; 0x26c2 <_ZN6String4trimEv+0x8c>
    26ae:	04 c0       	rjmp	.+8      	; 0x26b8 <_ZN6String4trimEv+0x82>
    26b0:	0c 17       	cp	r16, r28
    26b2:	1d 07       	cpc	r17, r29
    26b4:	90 f4       	brcc	.+36     	; 0x26da <_ZN6String4trimEv+0xa4>
    26b6:	ef cf       	rjmp	.-34     	; 0x2696 <_ZN6String4trimEv+0x60>
    26b8:	a8 01       	movw	r20, r16
    26ba:	be 01       	movw	r22, r28
    26bc:	c7 01       	movw	r24, r14
    26be:	0e 94 c4 45 	call	0x8b88	; 0x8b88 <memcpy>
    26c2:	d6 01       	movw	r26, r12
    26c4:	ed 91       	ld	r30, X+
    26c6:	fc 91       	ld	r31, X
    26c8:	11 97       	sbiw	r26, 0x01	; 1
    26ca:	14 96       	adiw	r26, 0x04	; 4
    26cc:	8d 91       	ld	r24, X+
    26ce:	9c 91       	ld	r25, X
    26d0:	15 97       	sbiw	r26, 0x05	; 5
    26d2:	e8 0f       	add	r30, r24
    26d4:	f9 1f       	adc	r31, r25
    26d6:	10 82       	st	Z, r1
    26d8:	03 c0       	rjmp	.+6      	; 0x26e0 <_ZN6String4trimEv+0xaa>
    26da:	01 50       	subi	r16, 0x01	; 1
    26dc:	11 09       	sbc	r17, r1
    26de:	d4 cf       	rjmp	.-88     	; 0x2688 <_ZN6String4trimEv+0x52>
    26e0:	df 91       	pop	r29
    26e2:	cf 91       	pop	r28
    26e4:	1f 91       	pop	r17
    26e6:	0f 91       	pop	r16
    26e8:	ff 90       	pop	r15
    26ea:	ef 90       	pop	r14
    26ec:	df 90       	pop	r13
    26ee:	cf 90       	pop	r12
    26f0:	bf 90       	pop	r11
    26f2:	af 90       	pop	r10
    26f4:	08 95       	ret

000026f6 <_ZNK6String5toIntEv>:
    26f6:	fc 01       	movw	r30, r24
    26f8:	80 81       	ld	r24, Z
    26fa:	91 81       	ldd	r25, Z+1	; 0x01
    26fc:	00 97       	sbiw	r24, 0x00	; 0
    26fe:	11 f0       	breq	.+4      	; 0x2704 <_ZNK6String5toIntEv+0xe>
    2700:	0c 94 81 45 	jmp	0x8b02	; 0x8b02 <atol>
    2704:	60 e0       	ldi	r22, 0x00	; 0
    2706:	70 e0       	ldi	r23, 0x00	; 0
    2708:	80 e0       	ldi	r24, 0x00	; 0
    270a:	90 e0       	ldi	r25, 0x00	; 0
    270c:	08 95       	ret

0000270e <malloc>:
    270e:	0f 93       	push	r16
    2710:	1f 93       	push	r17
    2712:	cf 93       	push	r28
    2714:	df 93       	push	r29
    2716:	82 30       	cpi	r24, 0x02	; 2
    2718:	91 05       	cpc	r25, r1
    271a:	10 f4       	brcc	.+4      	; 0x2720 <malloc+0x12>
    271c:	82 e0       	ldi	r24, 0x02	; 2
    271e:	90 e0       	ldi	r25, 0x00	; 0
    2720:	e0 91 9c 11 	lds	r30, 0x119C
    2724:	f0 91 9d 11 	lds	r31, 0x119D
    2728:	20 e0       	ldi	r18, 0x00	; 0
    272a:	30 e0       	ldi	r19, 0x00	; 0
    272c:	c0 e0       	ldi	r28, 0x00	; 0
    272e:	d0 e0       	ldi	r29, 0x00	; 0
    2730:	23 c0       	rjmp	.+70     	; 0x2778 <malloc+0x6a>
    2732:	40 81       	ld	r20, Z
    2734:	51 81       	ldd	r21, Z+1	; 0x01
    2736:	48 17       	cp	r20, r24
    2738:	59 07       	cpc	r21, r25
    273a:	a8 f0       	brcs	.+42     	; 0x2766 <malloc+0x58>
    273c:	48 17       	cp	r20, r24
    273e:	59 07       	cpc	r21, r25
    2740:	61 f4       	brne	.+24     	; 0x275a <malloc+0x4c>
    2742:	82 81       	ldd	r24, Z+2	; 0x02
    2744:	93 81       	ldd	r25, Z+3	; 0x03
    2746:	20 97       	sbiw	r28, 0x00	; 0
    2748:	19 f0       	breq	.+6      	; 0x2750 <malloc+0x42>
    274a:	9b 83       	std	Y+3, r25	; 0x03
    274c:	8a 83       	std	Y+2, r24	; 0x02
    274e:	2e c0       	rjmp	.+92     	; 0x27ac <malloc+0x9e>
    2750:	90 93 9d 11 	sts	0x119D, r25
    2754:	80 93 9c 11 	sts	0x119C, r24
    2758:	29 c0       	rjmp	.+82     	; 0x27ac <malloc+0x9e>
    275a:	21 15       	cp	r18, r1
    275c:	31 05       	cpc	r19, r1
    275e:	29 f0       	breq	.+10     	; 0x276a <malloc+0x5c>
    2760:	42 17       	cp	r20, r18
    2762:	53 07       	cpc	r21, r19
    2764:	10 f0       	brcs	.+4      	; 0x276a <malloc+0x5c>
    2766:	a9 01       	movw	r20, r18
    2768:	02 c0       	rjmp	.+4      	; 0x276e <malloc+0x60>
    276a:	be 01       	movw	r22, r28
    276c:	df 01       	movw	r26, r30
    276e:	02 81       	ldd	r16, Z+2	; 0x02
    2770:	13 81       	ldd	r17, Z+3	; 0x03
    2772:	ef 01       	movw	r28, r30
    2774:	9a 01       	movw	r18, r20
    2776:	f8 01       	movw	r30, r16
    2778:	30 97       	sbiw	r30, 0x00	; 0
    277a:	d9 f6       	brne	.-74     	; 0x2732 <malloc+0x24>
    277c:	21 15       	cp	r18, r1
    277e:	31 05       	cpc	r19, r1
    2780:	09 f1       	breq	.+66     	; 0x27c4 <malloc+0xb6>
    2782:	28 1b       	sub	r18, r24
    2784:	39 0b       	sbc	r19, r25
    2786:	24 30       	cpi	r18, 0x04	; 4
    2788:	31 05       	cpc	r19, r1
    278a:	90 f4       	brcc	.+36     	; 0x27b0 <malloc+0xa2>
    278c:	12 96       	adiw	r26, 0x02	; 2
    278e:	8d 91       	ld	r24, X+
    2790:	9c 91       	ld	r25, X
    2792:	13 97       	sbiw	r26, 0x03	; 3
    2794:	61 15       	cp	r22, r1
    2796:	71 05       	cpc	r23, r1
    2798:	21 f0       	breq	.+8      	; 0x27a2 <malloc+0x94>
    279a:	fb 01       	movw	r30, r22
    279c:	93 83       	std	Z+3, r25	; 0x03
    279e:	82 83       	std	Z+2, r24	; 0x02
    27a0:	04 c0       	rjmp	.+8      	; 0x27aa <malloc+0x9c>
    27a2:	90 93 9d 11 	sts	0x119D, r25
    27a6:	80 93 9c 11 	sts	0x119C, r24
    27aa:	fd 01       	movw	r30, r26
    27ac:	32 96       	adiw	r30, 0x02	; 2
    27ae:	2f c0       	rjmp	.+94     	; 0x280e <malloc+0x100>
    27b0:	fd 01       	movw	r30, r26
    27b2:	e2 0f       	add	r30, r18
    27b4:	f3 1f       	adc	r31, r19
    27b6:	81 93       	st	Z+, r24
    27b8:	91 93       	st	Z+, r25
    27ba:	22 50       	subi	r18, 0x02	; 2
    27bc:	31 09       	sbc	r19, r1
    27be:	2d 93       	st	X+, r18
    27c0:	3c 93       	st	X, r19
    27c2:	25 c0       	rjmp	.+74     	; 0x280e <malloc+0x100>
    27c4:	4d b7       	in	r20, 0x3d	; 61
    27c6:	5e b7       	in	r21, 0x3e	; 62
    27c8:	48 57       	subi	r20, 0x78	; 120
    27ca:	51 09       	sbc	r21, r1
    27cc:	e0 91 02 02 	lds	r30, 0x0202
    27d0:	f0 91 03 02 	lds	r31, 0x0203
    27d4:	e4 17       	cp	r30, r20
    27d6:	f5 07       	cpc	r31, r21
    27d8:	c0 f4       	brcc	.+48     	; 0x280a <malloc+0xfc>
    27da:	4e 1b       	sub	r20, r30
    27dc:	5f 0b       	sbc	r21, r31
    27de:	48 17       	cp	r20, r24
    27e0:	59 07       	cpc	r21, r25
    27e2:	98 f0       	brcs	.+38     	; 0x280a <malloc+0xfc>
    27e4:	9c 01       	movw	r18, r24
    27e6:	2e 5f       	subi	r18, 0xFE	; 254
    27e8:	3f 4f       	sbci	r19, 0xFF	; 255
    27ea:	42 17       	cp	r20, r18
    27ec:	53 07       	cpc	r21, r19
    27ee:	68 f0       	brcs	.+26     	; 0x280a <malloc+0xfc>
    27f0:	2e 0f       	add	r18, r30
    27f2:	3f 1f       	adc	r19, r31
    27f4:	30 93 03 02 	sts	0x0203, r19
    27f8:	20 93 02 02 	sts	0x0202, r18
    27fc:	30 93 01 02 	sts	0x0201, r19
    2800:	20 93 00 02 	sts	0x0200, r18
    2804:	81 93       	st	Z+, r24
    2806:	91 93       	st	Z+, r25
    2808:	02 c0       	rjmp	.+4      	; 0x280e <malloc+0x100>
    280a:	e0 e0       	ldi	r30, 0x00	; 0
    280c:	f0 e0       	ldi	r31, 0x00	; 0
    280e:	cf 01       	movw	r24, r30
    2810:	df 91       	pop	r29
    2812:	cf 91       	pop	r28
    2814:	1f 91       	pop	r17
    2816:	0f 91       	pop	r16
    2818:	08 95       	ret

0000281a <free>:
    281a:	ef 92       	push	r14
    281c:	ff 92       	push	r15
    281e:	0f 93       	push	r16
    2820:	1f 93       	push	r17
    2822:	cf 93       	push	r28
    2824:	df 93       	push	r29
    2826:	00 97       	sbiw	r24, 0x00	; 0
    2828:	09 f4       	brne	.+2      	; 0x282c <free+0x12>
    282a:	8e c0       	rjmp	.+284    	; 0x2948 <free+0x12e>
    282c:	dc 01       	movw	r26, r24
    282e:	12 97       	sbiw	r26, 0x02	; 2
    2830:	13 96       	adiw	r26, 0x03	; 3
    2832:	1c 92       	st	X, r1
    2834:	1e 92       	st	-X, r1
    2836:	12 97       	sbiw	r26, 0x02	; 2
    2838:	e0 90 9c 11 	lds	r14, 0x119C
    283c:	f0 90 9d 11 	lds	r15, 0x119D
    2840:	e1 14       	cp	r14, r1
    2842:	f1 04       	cpc	r15, r1
    2844:	89 f4       	brne	.+34     	; 0x2868 <free+0x4e>
    2846:	2d 91       	ld	r18, X+
    2848:	3c 91       	ld	r19, X
    284a:	11 97       	sbiw	r26, 0x01	; 1
    284c:	28 0f       	add	r18, r24
    284e:	39 1f       	adc	r19, r25
    2850:	80 91 02 02 	lds	r24, 0x0202
    2854:	90 91 03 02 	lds	r25, 0x0203
    2858:	82 17       	cp	r24, r18
    285a:	93 07       	cpc	r25, r19
    285c:	89 f5       	brne	.+98     	; 0x28c0 <free+0xa6>
    285e:	b0 93 03 02 	sts	0x0203, r27
    2862:	a0 93 02 02 	sts	0x0202, r26
    2866:	70 c0       	rjmp	.+224    	; 0x2948 <free+0x12e>
    2868:	e7 01       	movw	r28, r14
    286a:	20 e0       	ldi	r18, 0x00	; 0
    286c:	30 e0       	ldi	r19, 0x00	; 0
    286e:	01 c0       	rjmp	.+2      	; 0x2872 <free+0x58>
    2870:	ea 01       	movw	r28, r20
    2872:	ca 17       	cp	r28, r26
    2874:	db 07       	cpc	r29, r27
    2876:	38 f4       	brcc	.+14     	; 0x2886 <free+0x6c>
    2878:	4a 81       	ldd	r20, Y+2	; 0x02
    287a:	5b 81       	ldd	r21, Y+3	; 0x03
    287c:	9e 01       	movw	r18, r28
    287e:	41 15       	cp	r20, r1
    2880:	51 05       	cpc	r21, r1
    2882:	b1 f7       	brne	.-20     	; 0x2870 <free+0x56>
    2884:	22 c0       	rjmp	.+68     	; 0x28ca <free+0xb0>
    2886:	ac 01       	movw	r20, r24
    2888:	42 50       	subi	r20, 0x02	; 2
    288a:	51 09       	sbc	r21, r1
    288c:	fa 01       	movw	r30, r20
    288e:	d3 83       	std	Z+3, r29	; 0x03
    2890:	c2 83       	std	Z+2, r28	; 0x02
    2892:	00 81       	ld	r16, Z
    2894:	11 81       	ldd	r17, Z+1	; 0x01
    2896:	bc 01       	movw	r22, r24
    2898:	60 0f       	add	r22, r16
    289a:	71 1f       	adc	r23, r17
    289c:	6c 17       	cp	r22, r28
    289e:	7d 07       	cpc	r23, r29
    28a0:	61 f4       	brne	.+24     	; 0x28ba <free+0xa0>
    28a2:	68 81       	ld	r22, Y
    28a4:	79 81       	ldd	r23, Y+1	; 0x01
    28a6:	60 0f       	add	r22, r16
    28a8:	71 1f       	adc	r23, r17
    28aa:	6e 5f       	subi	r22, 0xFE	; 254
    28ac:	7f 4f       	sbci	r23, 0xFF	; 255
    28ae:	71 83       	std	Z+1, r23	; 0x01
    28b0:	60 83       	st	Z, r22
    28b2:	6a 81       	ldd	r22, Y+2	; 0x02
    28b4:	7b 81       	ldd	r23, Y+3	; 0x03
    28b6:	73 83       	std	Z+3, r23	; 0x03
    28b8:	62 83       	std	Z+2, r22	; 0x02
    28ba:	21 15       	cp	r18, r1
    28bc:	31 05       	cpc	r19, r1
    28be:	29 f4       	brne	.+10     	; 0x28ca <free+0xb0>
    28c0:	b0 93 9d 11 	sts	0x119D, r27
    28c4:	a0 93 9c 11 	sts	0x119C, r26
    28c8:	3f c0       	rjmp	.+126    	; 0x2948 <free+0x12e>
    28ca:	f9 01       	movw	r30, r18
    28cc:	b3 83       	std	Z+3, r27	; 0x03
    28ce:	a2 83       	std	Z+2, r26	; 0x02
    28d0:	e9 01       	movw	r28, r18
    28d2:	49 91       	ld	r20, Y+
    28d4:	59 91       	ld	r21, Y+
    28d6:	c4 0f       	add	r28, r20
    28d8:	d5 1f       	adc	r29, r21
    28da:	ac 17       	cp	r26, r28
    28dc:	bd 07       	cpc	r27, r29
    28de:	71 f4       	brne	.+28     	; 0x28fc <free+0xe2>
    28e0:	dc 01       	movw	r26, r24
    28e2:	9e 91       	ld	r25, -X
    28e4:	8e 91       	ld	r24, -X
    28e6:	84 0f       	add	r24, r20
    28e8:	95 1f       	adc	r25, r21
    28ea:	02 96       	adiw	r24, 0x02	; 2
    28ec:	91 83       	std	Z+1, r25	; 0x01
    28ee:	80 83       	st	Z, r24
    28f0:	12 96       	adiw	r26, 0x02	; 2
    28f2:	8d 91       	ld	r24, X+
    28f4:	9c 91       	ld	r25, X
    28f6:	13 97       	sbiw	r26, 0x03	; 3
    28f8:	93 83       	std	Z+3, r25	; 0x03
    28fa:	82 83       	std	Z+2, r24	; 0x02
    28fc:	a0 e0       	ldi	r26, 0x00	; 0
    28fe:	b0 e0       	ldi	r27, 0x00	; 0
    2900:	02 c0       	rjmp	.+4      	; 0x2906 <free+0xec>
    2902:	d7 01       	movw	r26, r14
    2904:	7c 01       	movw	r14, r24
    2906:	f7 01       	movw	r30, r14
    2908:	82 81       	ldd	r24, Z+2	; 0x02
    290a:	93 81       	ldd	r25, Z+3	; 0x03
    290c:	00 97       	sbiw	r24, 0x00	; 0
    290e:	c9 f7       	brne	.-14     	; 0x2902 <free+0xe8>
    2910:	c7 01       	movw	r24, r14
    2912:	02 96       	adiw	r24, 0x02	; 2
    2914:	20 81       	ld	r18, Z
    2916:	31 81       	ldd	r19, Z+1	; 0x01
    2918:	82 0f       	add	r24, r18
    291a:	93 1f       	adc	r25, r19
    291c:	20 91 02 02 	lds	r18, 0x0202
    2920:	30 91 03 02 	lds	r19, 0x0203
    2924:	28 17       	cp	r18, r24
    2926:	39 07       	cpc	r19, r25
    2928:	79 f4       	brne	.+30     	; 0x2948 <free+0x12e>
    292a:	10 97       	sbiw	r26, 0x00	; 0
    292c:	29 f4       	brne	.+10     	; 0x2938 <free+0x11e>
    292e:	10 92 9d 11 	sts	0x119D, r1
    2932:	10 92 9c 11 	sts	0x119C, r1
    2936:	04 c0       	rjmp	.+8      	; 0x2940 <free+0x126>
    2938:	13 96       	adiw	r26, 0x03	; 3
    293a:	1c 92       	st	X, r1
    293c:	1e 92       	st	-X, r1
    293e:	12 97       	sbiw	r26, 0x02	; 2
    2940:	f0 92 03 02 	sts	0x0203, r15
    2944:	e0 92 02 02 	sts	0x0202, r14
    2948:	df 91       	pop	r29
    294a:	cf 91       	pop	r28
    294c:	1f 91       	pop	r17
    294e:	0f 91       	pop	r16
    2950:	ff 90       	pop	r15
    2952:	ef 90       	pop	r14
    2954:	08 95       	ret

00002956 <realloc>:
    2956:	8f 92       	push	r8
    2958:	9f 92       	push	r9
    295a:	af 92       	push	r10
    295c:	bf 92       	push	r11
    295e:	cf 92       	push	r12
    2960:	df 92       	push	r13
    2962:	ef 92       	push	r14
    2964:	ff 92       	push	r15
    2966:	0f 93       	push	r16
    2968:	1f 93       	push	r17
    296a:	cf 93       	push	r28
    296c:	df 93       	push	r29
    296e:	ec 01       	movw	r28, r24
    2970:	00 97       	sbiw	r24, 0x00	; 0
    2972:	79 f4       	brne	.+30     	; 0x2992 <realloc+0x3c>
    2974:	cb 01       	movw	r24, r22
    2976:	df 91       	pop	r29
    2978:	cf 91       	pop	r28
    297a:	1f 91       	pop	r17
    297c:	0f 91       	pop	r16
    297e:	ff 90       	pop	r15
    2980:	ef 90       	pop	r14
    2982:	df 90       	pop	r13
    2984:	cf 90       	pop	r12
    2986:	bf 90       	pop	r11
    2988:	af 90       	pop	r10
    298a:	9f 90       	pop	r9
    298c:	8f 90       	pop	r8
    298e:	0c 94 87 13 	jmp	0x270e	; 0x270e <malloc>
    2992:	dc 01       	movw	r26, r24
    2994:	a6 0f       	add	r26, r22
    2996:	b7 1f       	adc	r27, r23
    2998:	fc 01       	movw	r30, r24
    299a:	32 97       	sbiw	r30, 0x02	; 2
    299c:	ae 17       	cp	r26, r30
    299e:	bf 07       	cpc	r27, r31
    29a0:	18 f4       	brcc	.+6      	; 0x29a8 <realloc+0x52>
    29a2:	c0 e0       	ldi	r28, 0x00	; 0
    29a4:	d0 e0       	ldi	r29, 0x00	; 0
    29a6:	a3 c0       	rjmp	.+326    	; 0x2aee <realloc+0x198>
    29a8:	00 81       	ld	r16, Z
    29aa:	11 81       	ldd	r17, Z+1	; 0x01
    29ac:	06 17       	cp	r16, r22
    29ae:	17 07       	cpc	r17, r23
    29b0:	b0 f0       	brcs	.+44     	; 0x29de <realloc+0x88>
    29b2:	05 30       	cpi	r16, 0x05	; 5
    29b4:	11 05       	cpc	r17, r1
    29b6:	08 f4       	brcc	.+2      	; 0x29ba <realloc+0x64>
    29b8:	9a c0       	rjmp	.+308    	; 0x2aee <realloc+0x198>
    29ba:	c8 01       	movw	r24, r16
    29bc:	04 97       	sbiw	r24, 0x04	; 4
    29be:	86 17       	cp	r24, r22
    29c0:	97 07       	cpc	r25, r23
    29c2:	08 f4       	brcc	.+2      	; 0x29c6 <realloc+0x70>
    29c4:	94 c0       	rjmp	.+296    	; 0x2aee <realloc+0x198>
    29c6:	02 50       	subi	r16, 0x02	; 2
    29c8:	11 09       	sbc	r17, r1
    29ca:	06 1b       	sub	r16, r22
    29cc:	17 0b       	sbc	r17, r23
    29ce:	0d 93       	st	X+, r16
    29d0:	1d 93       	st	X+, r17
    29d2:	71 83       	std	Z+1, r23	; 0x01
    29d4:	60 83       	st	Z, r22
    29d6:	cd 01       	movw	r24, r26
    29d8:	0e 94 0d 14 	call	0x281a	; 0x281a <free>
    29dc:	88 c0       	rjmp	.+272    	; 0x2aee <realloc+0x198>
    29de:	6b 01       	movw	r12, r22
    29e0:	c0 1a       	sub	r12, r16
    29e2:	d1 0a       	sbc	r13, r17
    29e4:	7c 01       	movw	r14, r24
    29e6:	e0 0e       	add	r14, r16
    29e8:	f1 1e       	adc	r15, r17
    29ea:	e0 91 9c 11 	lds	r30, 0x119C
    29ee:	f0 91 9d 11 	lds	r31, 0x119D
    29f2:	20 e0       	ldi	r18, 0x00	; 0
    29f4:	30 e0       	ldi	r19, 0x00	; 0
    29f6:	80 e0       	ldi	r24, 0x00	; 0
    29f8:	90 e0       	ldi	r25, 0x00	; 0
    29fa:	48 c0       	rjmp	.+144    	; 0x2a8c <realloc+0x136>
    29fc:	ee 15       	cp	r30, r14
    29fe:	ff 05       	cpc	r31, r15
    2a00:	d1 f5       	brne	.+116    	; 0x2a76 <realloc+0x120>
    2a02:	80 80       	ld	r8, Z
    2a04:	91 80       	ldd	r9, Z+1	; 0x01
    2a06:	54 01       	movw	r10, r8
    2a08:	42 e0       	ldi	r20, 0x02	; 2
    2a0a:	a4 0e       	add	r10, r20
    2a0c:	b1 1c       	adc	r11, r1
    2a0e:	ac 14       	cp	r10, r12
    2a10:	bd 04       	cpc	r11, r13
    2a12:	88 f1       	brcs	.+98     	; 0x2a76 <realloc+0x120>
    2a14:	74 01       	movw	r14, r8
    2a16:	ec 18       	sub	r14, r12
    2a18:	fd 08       	sbc	r15, r13
    2a1a:	67 01       	movw	r12, r14
    2a1c:	22 e0       	ldi	r18, 0x02	; 2
    2a1e:	c2 0e       	add	r12, r18
    2a20:	d1 1c       	adc	r13, r1
    2a22:	9e 01       	movw	r18, r28
    2a24:	22 50       	subi	r18, 0x02	; 2
    2a26:	31 09       	sbc	r19, r1
    2a28:	45 e0       	ldi	r20, 0x05	; 5
    2a2a:	c4 16       	cp	r12, r20
    2a2c:	d1 04       	cpc	r13, r1
    2a2e:	78 f0       	brcs	.+30     	; 0x2a4e <realloc+0xf8>
    2a30:	42 81       	ldd	r20, Z+2	; 0x02
    2a32:	53 81       	ldd	r21, Z+3	; 0x03
    2a34:	13 96       	adiw	r26, 0x03	; 3
    2a36:	5c 93       	st	X, r21
    2a38:	4e 93       	st	-X, r20
    2a3a:	12 97       	sbiw	r26, 0x02	; 2
    2a3c:	11 96       	adiw	r26, 0x01	; 1
    2a3e:	fc 92       	st	X, r15
    2a40:	ee 92       	st	-X, r14
    2a42:	f9 01       	movw	r30, r18
    2a44:	71 83       	std	Z+1, r23	; 0x01
    2a46:	60 83       	st	Z, r22
    2a48:	3a 2f       	mov	r19, r26
    2a4a:	2b 2f       	mov	r18, r27
    2a4c:	09 c0       	rjmp	.+18     	; 0x2a60 <realloc+0x10a>
    2a4e:	0e 5f       	subi	r16, 0xFE	; 254
    2a50:	1f 4f       	sbci	r17, 0xFF	; 255
    2a52:	08 0d       	add	r16, r8
    2a54:	19 1d       	adc	r17, r9
    2a56:	d9 01       	movw	r26, r18
    2a58:	0d 93       	st	X+, r16
    2a5a:	1c 93       	st	X, r17
    2a5c:	32 81       	ldd	r19, Z+2	; 0x02
    2a5e:	23 81       	ldd	r18, Z+3	; 0x03
    2a60:	00 97       	sbiw	r24, 0x00	; 0
    2a62:	21 f0       	breq	.+8      	; 0x2a6c <realloc+0x116>
    2a64:	fc 01       	movw	r30, r24
    2a66:	32 83       	std	Z+2, r19	; 0x02
    2a68:	23 83       	std	Z+3, r18	; 0x03
    2a6a:	41 c0       	rjmp	.+130    	; 0x2aee <realloc+0x198>
    2a6c:	30 93 9c 11 	sts	0x119C, r19
    2a70:	20 93 9d 11 	sts	0x119D, r18
    2a74:	3c c0       	rjmp	.+120    	; 0x2aee <realloc+0x198>
    2a76:	80 81       	ld	r24, Z
    2a78:	91 81       	ldd	r25, Z+1	; 0x01
    2a7a:	28 17       	cp	r18, r24
    2a7c:	39 07       	cpc	r19, r25
    2a7e:	08 f4       	brcc	.+2      	; 0x2a82 <realloc+0x12c>
    2a80:	9c 01       	movw	r18, r24
    2a82:	52 81       	ldd	r21, Z+2	; 0x02
    2a84:	43 81       	ldd	r20, Z+3	; 0x03
    2a86:	cf 01       	movw	r24, r30
    2a88:	e5 2f       	mov	r30, r21
    2a8a:	f4 2f       	mov	r31, r20
    2a8c:	30 97       	sbiw	r30, 0x00	; 0
    2a8e:	09 f0       	breq	.+2      	; 0x2a92 <realloc+0x13c>
    2a90:	b5 cf       	rjmp	.-150    	; 0x29fc <realloc+0xa6>
    2a92:	80 91 02 02 	lds	r24, 0x0202
    2a96:	90 91 03 02 	lds	r25, 0x0203
    2a9a:	8e 15       	cp	r24, r14
    2a9c:	9f 05       	cpc	r25, r15
    2a9e:	c1 f4       	brne	.+48     	; 0x2ad0 <realloc+0x17a>
    2aa0:	26 17       	cp	r18, r22
    2aa2:	37 07       	cpc	r19, r23
    2aa4:	a8 f4       	brcc	.+42     	; 0x2ad0 <realloc+0x17a>
    2aa6:	8d b7       	in	r24, 0x3d	; 61
    2aa8:	9e b7       	in	r25, 0x3e	; 62
    2aaa:	88 57       	subi	r24, 0x78	; 120
    2aac:	91 09       	sbc	r25, r1
    2aae:	a8 17       	cp	r26, r24
    2ab0:	b9 07       	cpc	r27, r25
    2ab2:	08 f0       	brcs	.+2      	; 0x2ab6 <realloc+0x160>
    2ab4:	76 cf       	rjmp	.-276    	; 0x29a2 <realloc+0x4c>
    2ab6:	b0 93 03 02 	sts	0x0203, r27
    2aba:	a0 93 02 02 	sts	0x0202, r26
    2abe:	b0 93 01 02 	sts	0x0201, r27
    2ac2:	a0 93 00 02 	sts	0x0200, r26
    2ac6:	fe 01       	movw	r30, r28
    2ac8:	32 97       	sbiw	r30, 0x02	; 2
    2aca:	71 83       	std	Z+1, r23	; 0x01
    2acc:	60 83       	st	Z, r22
    2ace:	0f c0       	rjmp	.+30     	; 0x2aee <realloc+0x198>
    2ad0:	cb 01       	movw	r24, r22
    2ad2:	0e 94 87 13 	call	0x270e	; 0x270e <malloc>
    2ad6:	7c 01       	movw	r14, r24
    2ad8:	00 97       	sbiw	r24, 0x00	; 0
    2ada:	09 f4       	brne	.+2      	; 0x2ade <realloc+0x188>
    2adc:	62 cf       	rjmp	.-316    	; 0x29a2 <realloc+0x4c>
    2ade:	a8 01       	movw	r20, r16
    2ae0:	be 01       	movw	r22, r28
    2ae2:	0e 94 c4 45 	call	0x8b88	; 0x8b88 <memcpy>
    2ae6:	ce 01       	movw	r24, r28
    2ae8:	0e 94 0d 14 	call	0x281a	; 0x281a <free>
    2aec:	e7 01       	movw	r28, r14
    2aee:	ce 01       	movw	r24, r28
    2af0:	df 91       	pop	r29
    2af2:	cf 91       	pop	r28
    2af4:	1f 91       	pop	r17
    2af6:	0f 91       	pop	r16
    2af8:	ff 90       	pop	r15
    2afa:	ef 90       	pop	r14
    2afc:	df 90       	pop	r13
    2afe:	cf 90       	pop	r12
    2b00:	bf 90       	pop	r11
    2b02:	af 90       	pop	r10
    2b04:	9f 90       	pop	r9
    2b06:	8f 90       	pop	r8
    2b08:	08 95       	ret

00002b0a <_Znwj>:
    2b0a:	0c 94 87 13 	jmp	0x270e	; 0x270e <malloc>

00002b0e <_Znaj>:
    2b0e:	0c 94 87 13 	jmp	0x270e	; 0x270e <malloc>

00002b12 <_ZdlPv>:
    2b12:	0c 94 0d 14 	jmp	0x281a	; 0x281a <free>

00002b16 <_ZdaPv>:
    2b16:	0c 94 0d 14 	jmp	0x281a	; 0x281a <free>

00002b1a <__cxa_guard_acquire>:
    2b1a:	21 e0       	ldi	r18, 0x01	; 1
    2b1c:	30 e0       	ldi	r19, 0x00	; 0
    2b1e:	fc 01       	movw	r30, r24
    2b20:	80 81       	ld	r24, Z
    2b22:	88 23       	and	r24, r24
    2b24:	11 f0       	breq	.+4      	; 0x2b2a <__cxa_guard_acquire+0x10>
    2b26:	20 e0       	ldi	r18, 0x00	; 0
    2b28:	30 e0       	ldi	r19, 0x00	; 0
    2b2a:	c9 01       	movw	r24, r18
    2b2c:	08 95       	ret

00002b2e <__cxa_guard_release>:
    2b2e:	21 e0       	ldi	r18, 0x01	; 1
    2b30:	fc 01       	movw	r30, r24
    2b32:	20 83       	st	Z, r18
    2b34:	08 95       	ret

00002b36 <__cxa_guard_abort>:
    2b36:	08 95       	ret

00002b38 <__cxa_pure_virtual>:
    2b38:	08 95       	ret

00002b3a <__vector_23>:
    2b3a:	1f 92       	push	r1
    2b3c:	0f 92       	push	r0
    2b3e:	0f b6       	in	r0, 0x3f	; 63
    2b40:	0f 92       	push	r0
    2b42:	11 24       	eor	r1, r1
    2b44:	2f 93       	push	r18
    2b46:	3f 93       	push	r19
    2b48:	8f 93       	push	r24
    2b4a:	9f 93       	push	r25
    2b4c:	af 93       	push	r26
    2b4e:	bf 93       	push	r27
    2b50:	80 91 2d 09 	lds	r24, 0x092D
    2b54:	90 91 2e 09 	lds	r25, 0x092E
    2b58:	a0 91 2f 09 	lds	r26, 0x092F
    2b5c:	b0 91 30 09 	lds	r27, 0x0930
    2b60:	30 91 35 09 	lds	r19, 0x0935
    2b64:	23 2f       	mov	r18, r19
    2b66:	2d 5f       	subi	r18, 0xFD	; 253
    2b68:	2d 37       	cpi	r18, 0x7D	; 125
    2b6a:	20 f4       	brcc	.+8      	; 0x2b74 <__vector_23+0x3a>
    2b6c:	01 96       	adiw	r24, 0x01	; 1
    2b6e:	a1 1d       	adc	r26, r1
    2b70:	b1 1d       	adc	r27, r1
    2b72:	05 c0       	rjmp	.+10     	; 0x2b7e <__vector_23+0x44>
    2b74:	23 2f       	mov	r18, r19
    2b76:	2a 57       	subi	r18, 0x7A	; 122
    2b78:	02 96       	adiw	r24, 0x02	; 2
    2b7a:	a1 1d       	adc	r26, r1
    2b7c:	b1 1d       	adc	r27, r1
    2b7e:	20 93 35 09 	sts	0x0935, r18
    2b82:	80 93 2d 09 	sts	0x092D, r24
    2b86:	90 93 2e 09 	sts	0x092E, r25
    2b8a:	a0 93 2f 09 	sts	0x092F, r26
    2b8e:	b0 93 30 09 	sts	0x0930, r27
    2b92:	80 91 31 09 	lds	r24, 0x0931
    2b96:	90 91 32 09 	lds	r25, 0x0932
    2b9a:	a0 91 33 09 	lds	r26, 0x0933
    2b9e:	b0 91 34 09 	lds	r27, 0x0934
    2ba2:	01 96       	adiw	r24, 0x01	; 1
    2ba4:	a1 1d       	adc	r26, r1
    2ba6:	b1 1d       	adc	r27, r1
    2ba8:	80 93 31 09 	sts	0x0931, r24
    2bac:	90 93 32 09 	sts	0x0932, r25
    2bb0:	a0 93 33 09 	sts	0x0933, r26
    2bb4:	b0 93 34 09 	sts	0x0934, r27
    2bb8:	bf 91       	pop	r27
    2bba:	af 91       	pop	r26
    2bbc:	9f 91       	pop	r25
    2bbe:	8f 91       	pop	r24
    2bc0:	3f 91       	pop	r19
    2bc2:	2f 91       	pop	r18
    2bc4:	0f 90       	pop	r0
    2bc6:	0f be       	out	0x3f, r0	; 63
    2bc8:	0f 90       	pop	r0
    2bca:	1f 90       	pop	r1
    2bcc:	18 95       	reti

00002bce <millis>:
    2bce:	0f 93       	push	r16
    2bd0:	1f 93       	push	r17
    2bd2:	8f b7       	in	r24, 0x3f	; 63
    2bd4:	f8 94       	cli
    2bd6:	00 91 2d 09 	lds	r16, 0x092D
    2bda:	10 91 2e 09 	lds	r17, 0x092E
    2bde:	20 91 2f 09 	lds	r18, 0x092F
    2be2:	30 91 30 09 	lds	r19, 0x0930
    2be6:	8f bf       	out	0x3f, r24	; 63
    2be8:	b8 01       	movw	r22, r16
    2bea:	c9 01       	movw	r24, r18
    2bec:	1f 91       	pop	r17
    2bee:	0f 91       	pop	r16
    2bf0:	08 95       	ret

00002bf2 <micros>:
    2bf2:	0f 93       	push	r16
    2bf4:	1f 93       	push	r17
    2bf6:	9f b7       	in	r25, 0x3f	; 63
    2bf8:	f8 94       	cli
    2bfa:	00 91 31 09 	lds	r16, 0x0931
    2bfe:	10 91 32 09 	lds	r17, 0x0932
    2c02:	20 91 33 09 	lds	r18, 0x0933
    2c06:	30 91 34 09 	lds	r19, 0x0934
    2c0a:	86 b5       	in	r24, 0x26	; 38
    2c0c:	a8 9b       	sbis	0x15, 0	; 21
    2c0e:	06 c0       	rjmp	.+12     	; 0x2c1c <micros+0x2a>
    2c10:	8f 3f       	cpi	r24, 0xFF	; 255
    2c12:	21 f0       	breq	.+8      	; 0x2c1c <micros+0x2a>
    2c14:	0f 5f       	subi	r16, 0xFF	; 255
    2c16:	1f 4f       	sbci	r17, 0xFF	; 255
    2c18:	2f 4f       	sbci	r18, 0xFF	; 255
    2c1a:	3f 4f       	sbci	r19, 0xFF	; 255
    2c1c:	9f bf       	out	0x3f, r25	; 63
    2c1e:	32 2f       	mov	r19, r18
    2c20:	21 2f       	mov	r18, r17
    2c22:	10 2f       	mov	r17, r16
    2c24:	00 27       	eor	r16, r16
    2c26:	08 0f       	add	r16, r24
    2c28:	11 1d       	adc	r17, r1
    2c2a:	21 1d       	adc	r18, r1
    2c2c:	31 1d       	adc	r19, r1
    2c2e:	42 e0       	ldi	r20, 0x02	; 2
    2c30:	00 0f       	add	r16, r16
    2c32:	11 1f       	adc	r17, r17
    2c34:	22 1f       	adc	r18, r18
    2c36:	33 1f       	adc	r19, r19
    2c38:	4a 95       	dec	r20
    2c3a:	d1 f7       	brne	.-12     	; 0x2c30 <micros+0x3e>
    2c3c:	b8 01       	movw	r22, r16
    2c3e:	c9 01       	movw	r24, r18
    2c40:	1f 91       	pop	r17
    2c42:	0f 91       	pop	r16
    2c44:	08 95       	ret

00002c46 <delay>:
    2c46:	cf 92       	push	r12
    2c48:	df 92       	push	r13
    2c4a:	ef 92       	push	r14
    2c4c:	ff 92       	push	r15
    2c4e:	cf 93       	push	r28
    2c50:	df 93       	push	r29
    2c52:	6b 01       	movw	r12, r22
    2c54:	7c 01       	movw	r14, r24
    2c56:	0e 94 f9 15 	call	0x2bf2	; 0x2bf2 <micros>
    2c5a:	eb 01       	movw	r28, r22
    2c5c:	10 c0       	rjmp	.+32     	; 0x2c7e <delay+0x38>
    2c5e:	0e 94 bb 17 	call	0x2f76	; 0x2f76 <yield>
    2c62:	0e 94 f9 15 	call	0x2bf2	; 0x2bf2 <micros>
    2c66:	6c 1b       	sub	r22, r28
    2c68:	7d 0b       	sbc	r23, r29
    2c6a:	68 3e       	cpi	r22, 0xE8	; 232
    2c6c:	73 40       	sbci	r23, 0x03	; 3
    2c6e:	38 f0       	brcs	.+14     	; 0x2c7e <delay+0x38>
    2c70:	81 e0       	ldi	r24, 0x01	; 1
    2c72:	c8 1a       	sub	r12, r24
    2c74:	d1 08       	sbc	r13, r1
    2c76:	e1 08       	sbc	r14, r1
    2c78:	f1 08       	sbc	r15, r1
    2c7a:	c8 51       	subi	r28, 0x18	; 24
    2c7c:	dc 4f       	sbci	r29, 0xFC	; 252
    2c7e:	c1 14       	cp	r12, r1
    2c80:	d1 04       	cpc	r13, r1
    2c82:	e1 04       	cpc	r14, r1
    2c84:	f1 04       	cpc	r15, r1
    2c86:	59 f7       	brne	.-42     	; 0x2c5e <delay+0x18>
    2c88:	df 91       	pop	r29
    2c8a:	cf 91       	pop	r28
    2c8c:	ff 90       	pop	r15
    2c8e:	ef 90       	pop	r14
    2c90:	df 90       	pop	r13
    2c92:	cf 90       	pop	r12
    2c94:	08 95       	ret

00002c96 <delayMicroseconds>:
    2c96:	01 97       	sbiw	r24, 0x01	; 1
    2c98:	39 f0       	breq	.+14     	; 0x2ca8 <delayMicroseconds+0x12>
    2c9a:	88 0f       	add	r24, r24
    2c9c:	99 1f       	adc	r25, r25
    2c9e:	88 0f       	add	r24, r24
    2ca0:	99 1f       	adc	r25, r25
    2ca2:	02 97       	sbiw	r24, 0x02	; 2
    2ca4:	01 97       	sbiw	r24, 0x01	; 1
    2ca6:	f1 f7       	brne	.-4      	; 0x2ca4 <delayMicroseconds+0xe>
    2ca8:	08 95       	ret

00002caa <init>:
    2caa:	78 94       	sei
    2cac:	84 b5       	in	r24, 0x24	; 36
    2cae:	82 60       	ori	r24, 0x02	; 2
    2cb0:	84 bd       	out	0x24, r24	; 36
    2cb2:	84 b5       	in	r24, 0x24	; 36
    2cb4:	81 60       	ori	r24, 0x01	; 1
    2cb6:	84 bd       	out	0x24, r24	; 36
    2cb8:	85 b5       	in	r24, 0x25	; 37
    2cba:	82 60       	ori	r24, 0x02	; 2
    2cbc:	85 bd       	out	0x25, r24	; 37
    2cbe:	85 b5       	in	r24, 0x25	; 37
    2cc0:	81 60       	ori	r24, 0x01	; 1
    2cc2:	85 bd       	out	0x25, r24	; 37
    2cc4:	ee e6       	ldi	r30, 0x6E	; 110
    2cc6:	f0 e0       	ldi	r31, 0x00	; 0
    2cc8:	80 81       	ld	r24, Z
    2cca:	81 60       	ori	r24, 0x01	; 1
    2ccc:	80 83       	st	Z, r24
    2cce:	e1 e8       	ldi	r30, 0x81	; 129
    2cd0:	f0 e0       	ldi	r31, 0x00	; 0
    2cd2:	10 82       	st	Z, r1
    2cd4:	80 81       	ld	r24, Z
    2cd6:	82 60       	ori	r24, 0x02	; 2
    2cd8:	80 83       	st	Z, r24
    2cda:	80 81       	ld	r24, Z
    2cdc:	81 60       	ori	r24, 0x01	; 1
    2cde:	80 83       	st	Z, r24
    2ce0:	e0 e8       	ldi	r30, 0x80	; 128
    2ce2:	f0 e0       	ldi	r31, 0x00	; 0
    2ce4:	80 81       	ld	r24, Z
    2ce6:	81 60       	ori	r24, 0x01	; 1
    2ce8:	80 83       	st	Z, r24
    2cea:	e1 eb       	ldi	r30, 0xB1	; 177
    2cec:	f0 e0       	ldi	r31, 0x00	; 0
    2cee:	80 81       	ld	r24, Z
    2cf0:	84 60       	ori	r24, 0x04	; 4
    2cf2:	80 83       	st	Z, r24
    2cf4:	e0 eb       	ldi	r30, 0xB0	; 176
    2cf6:	f0 e0       	ldi	r31, 0x00	; 0
    2cf8:	80 81       	ld	r24, Z
    2cfa:	81 60       	ori	r24, 0x01	; 1
    2cfc:	80 83       	st	Z, r24
    2cfe:	e1 e9       	ldi	r30, 0x91	; 145
    2d00:	f0 e0       	ldi	r31, 0x00	; 0
    2d02:	80 81       	ld	r24, Z
    2d04:	82 60       	ori	r24, 0x02	; 2
    2d06:	80 83       	st	Z, r24
    2d08:	80 81       	ld	r24, Z
    2d0a:	81 60       	ori	r24, 0x01	; 1
    2d0c:	80 83       	st	Z, r24
    2d0e:	e0 e9       	ldi	r30, 0x90	; 144
    2d10:	f0 e0       	ldi	r31, 0x00	; 0
    2d12:	80 81       	ld	r24, Z
    2d14:	81 60       	ori	r24, 0x01	; 1
    2d16:	80 83       	st	Z, r24
    2d18:	e1 ea       	ldi	r30, 0xA1	; 161
    2d1a:	f0 e0       	ldi	r31, 0x00	; 0
    2d1c:	80 81       	ld	r24, Z
    2d1e:	82 60       	ori	r24, 0x02	; 2
    2d20:	80 83       	st	Z, r24
    2d22:	80 81       	ld	r24, Z
    2d24:	81 60       	ori	r24, 0x01	; 1
    2d26:	80 83       	st	Z, r24
    2d28:	e0 ea       	ldi	r30, 0xA0	; 160
    2d2a:	f0 e0       	ldi	r31, 0x00	; 0
    2d2c:	80 81       	ld	r24, Z
    2d2e:	81 60       	ori	r24, 0x01	; 1
    2d30:	80 83       	st	Z, r24
    2d32:	e1 e2       	ldi	r30, 0x21	; 33
    2d34:	f1 e0       	ldi	r31, 0x01	; 1
    2d36:	80 81       	ld	r24, Z
    2d38:	82 60       	ori	r24, 0x02	; 2
    2d3a:	80 83       	st	Z, r24
    2d3c:	80 81       	ld	r24, Z
    2d3e:	81 60       	ori	r24, 0x01	; 1
    2d40:	80 83       	st	Z, r24
    2d42:	e0 e2       	ldi	r30, 0x20	; 32
    2d44:	f1 e0       	ldi	r31, 0x01	; 1
    2d46:	80 81       	ld	r24, Z
    2d48:	81 60       	ori	r24, 0x01	; 1
    2d4a:	80 83       	st	Z, r24
    2d4c:	ea e7       	ldi	r30, 0x7A	; 122
    2d4e:	f0 e0       	ldi	r31, 0x00	; 0
    2d50:	80 81       	ld	r24, Z
    2d52:	84 60       	ori	r24, 0x04	; 4
    2d54:	80 83       	st	Z, r24
    2d56:	80 81       	ld	r24, Z
    2d58:	82 60       	ori	r24, 0x02	; 2
    2d5a:	80 83       	st	Z, r24
    2d5c:	80 81       	ld	r24, Z
    2d5e:	81 60       	ori	r24, 0x01	; 1
    2d60:	80 83       	st	Z, r24
    2d62:	80 81       	ld	r24, Z
    2d64:	80 68       	ori	r24, 0x80	; 128
    2d66:	80 83       	st	Z, r24
    2d68:	10 92 c1 00 	sts	0x00C1, r1
    2d6c:	08 95       	ret

00002d6e <turnOffPWM>:
    2d6e:	89 30       	cpi	r24, 0x09	; 9
    2d70:	09 f4       	brne	.+2      	; 0x2d74 <turnOffPWM+0x6>
    2d72:	43 c0       	rjmp	.+134    	; 0x2dfa <turnOffPWM+0x8c>
    2d74:	88 f4       	brcc	.+34     	; 0x2d98 <turnOffPWM+0x2a>
    2d76:	84 30       	cpi	r24, 0x04	; 4
    2d78:	29 f1       	breq	.+74     	; 0x2dc4 <turnOffPWM+0x56>
    2d7a:	38 f4       	brcc	.+14     	; 0x2d8a <turnOffPWM+0x1c>
    2d7c:	82 30       	cpi	r24, 0x02	; 2
    2d7e:	59 f1       	breq	.+86     	; 0x2dd6 <turnOffPWM+0x68>
    2d80:	e8 f4       	brcc	.+58     	; 0x2dbc <turnOffPWM+0x4e>
    2d82:	81 30       	cpi	r24, 0x01	; 1
    2d84:	09 f0       	breq	.+2      	; 0x2d88 <turnOffPWM+0x1a>
    2d86:	5e c0       	rjmp	.+188    	; 0x2e44 <turnOffPWM+0xd6>
    2d88:	23 c0       	rjmp	.+70     	; 0x2dd0 <turnOffPWM+0x62>
    2d8a:	87 30       	cpi	r24, 0x07	; 7
    2d8c:	61 f1       	breq	.+88     	; 0x2de6 <turnOffPWM+0x78>
    2d8e:	88 f5       	brcc	.+98     	; 0x2df2 <turnOffPWM+0x84>
    2d90:	86 30       	cpi	r24, 0x06	; 6
    2d92:	09 f0       	breq	.+2      	; 0x2d96 <turnOffPWM+0x28>
    2d94:	57 c0       	rjmp	.+174    	; 0x2e44 <turnOffPWM+0xd6>
    2d96:	23 c0       	rjmp	.+70     	; 0x2dde <turnOffPWM+0x70>
    2d98:	8d 30       	cpi	r24, 0x0D	; 13
    2d9a:	09 f4       	brne	.+2      	; 0x2d9e <turnOffPWM+0x30>
    2d9c:	40 c0       	rjmp	.+128    	; 0x2e1e <turnOffPWM+0xb0>
    2d9e:	20 f4       	brcc	.+8      	; 0x2da8 <turnOffPWM+0x3a>
    2da0:	8b 30       	cpi	r24, 0x0B	; 11
    2da2:	a9 f1       	breq	.+106    	; 0x2e0e <turnOffPWM+0xa0>
    2da4:	c0 f5       	brcc	.+112    	; 0x2e16 <turnOffPWM+0xa8>
    2da6:	2d c0       	rjmp	.+90     	; 0x2e02 <turnOffPWM+0x94>
    2da8:	80 31       	cpi	r24, 0x10	; 16
    2daa:	09 f4       	brne	.+2      	; 0x2dae <turnOffPWM+0x40>
    2dac:	42 c0       	rjmp	.+132    	; 0x2e32 <turnOffPWM+0xc4>
    2dae:	81 31       	cpi	r24, 0x11	; 17
    2db0:	09 f4       	brne	.+2      	; 0x2db4 <turnOffPWM+0x46>
    2db2:	43 c0       	rjmp	.+134    	; 0x2e3a <turnOffPWM+0xcc>
    2db4:	8f 30       	cpi	r24, 0x0F	; 15
    2db6:	09 f0       	breq	.+2      	; 0x2dba <turnOffPWM+0x4c>
    2db8:	45 c0       	rjmp	.+138    	; 0x2e44 <turnOffPWM+0xd6>
    2dba:	37 c0       	rjmp	.+110    	; 0x2e2a <turnOffPWM+0xbc>
    2dbc:	80 91 80 00 	lds	r24, 0x0080
    2dc0:	8f 77       	andi	r24, 0x7F	; 127
    2dc2:	03 c0       	rjmp	.+6      	; 0x2dca <turnOffPWM+0x5c>
    2dc4:	80 91 80 00 	lds	r24, 0x0080
    2dc8:	8f 7d       	andi	r24, 0xDF	; 223
    2dca:	80 93 80 00 	sts	0x0080, r24
    2dce:	08 95       	ret
    2dd0:	84 b5       	in	r24, 0x24	; 36
    2dd2:	8f 77       	andi	r24, 0x7F	; 127
    2dd4:	02 c0       	rjmp	.+4      	; 0x2dda <turnOffPWM+0x6c>
    2dd6:	84 b5       	in	r24, 0x24	; 36
    2dd8:	8f 7d       	andi	r24, 0xDF	; 223
    2dda:	84 bd       	out	0x24, r24	; 36
    2ddc:	08 95       	ret
    2dde:	80 91 b0 00 	lds	r24, 0x00B0
    2de2:	8f 77       	andi	r24, 0x7F	; 127
    2de4:	03 c0       	rjmp	.+6      	; 0x2dec <turnOffPWM+0x7e>
    2de6:	80 91 b0 00 	lds	r24, 0x00B0
    2dea:	8f 7d       	andi	r24, 0xDF	; 223
    2dec:	80 93 b0 00 	sts	0x00B0, r24
    2df0:	08 95       	ret
    2df2:	80 91 90 00 	lds	r24, 0x0090
    2df6:	8f 77       	andi	r24, 0x7F	; 127
    2df8:	07 c0       	rjmp	.+14     	; 0x2e08 <turnOffPWM+0x9a>
    2dfa:	80 91 90 00 	lds	r24, 0x0090
    2dfe:	8f 7d       	andi	r24, 0xDF	; 223
    2e00:	03 c0       	rjmp	.+6      	; 0x2e08 <turnOffPWM+0x9a>
    2e02:	80 91 90 00 	lds	r24, 0x0090
    2e06:	87 7f       	andi	r24, 0xF7	; 247
    2e08:	80 93 90 00 	sts	0x0090, r24
    2e0c:	08 95       	ret
    2e0e:	80 91 a0 00 	lds	r24, 0x00A0
    2e12:	8f 77       	andi	r24, 0x7F	; 127
    2e14:	07 c0       	rjmp	.+14     	; 0x2e24 <turnOffPWM+0xb6>
    2e16:	80 91 a0 00 	lds	r24, 0x00A0
    2e1a:	8f 7d       	andi	r24, 0xDF	; 223
    2e1c:	03 c0       	rjmp	.+6      	; 0x2e24 <turnOffPWM+0xb6>
    2e1e:	80 91 a0 00 	lds	r24, 0x00A0
    2e22:	87 7f       	andi	r24, 0xF7	; 247
    2e24:	80 93 a0 00 	sts	0x00A0, r24
    2e28:	08 95       	ret
    2e2a:	80 91 20 01 	lds	r24, 0x0120
    2e2e:	8f 77       	andi	r24, 0x7F	; 127
    2e30:	07 c0       	rjmp	.+14     	; 0x2e40 <turnOffPWM+0xd2>
    2e32:	80 91 20 01 	lds	r24, 0x0120
    2e36:	8f 7d       	andi	r24, 0xDF	; 223
    2e38:	03 c0       	rjmp	.+6      	; 0x2e40 <turnOffPWM+0xd2>
    2e3a:	80 91 20 01 	lds	r24, 0x0120
    2e3e:	87 7f       	andi	r24, 0xF7	; 247
    2e40:	80 93 20 01 	sts	0x0120, r24
    2e44:	08 95       	ret

00002e46 <pinMode>:
    2e46:	cf 93       	push	r28
    2e48:	df 93       	push	r29
    2e4a:	90 e0       	ldi	r25, 0x00	; 0
    2e4c:	fc 01       	movw	r30, r24
    2e4e:	eb 58       	subi	r30, 0x8B	; 139
    2e50:	fe 4f       	sbci	r31, 0xFE	; 254
    2e52:	44 91       	lpm	r20, Z+
    2e54:	fc 01       	movw	r30, r24
    2e56:	e5 54       	subi	r30, 0x45	; 69
    2e58:	fe 4f       	sbci	r31, 0xFE	; 254
    2e5a:	84 91       	lpm	r24, Z+
    2e5c:	88 23       	and	r24, r24
    2e5e:	41 f1       	breq	.+80     	; 0x2eb0 <pinMode+0x6a>
    2e60:	90 e0       	ldi	r25, 0x00	; 0
    2e62:	88 0f       	add	r24, r24
    2e64:	99 1f       	adc	r25, r25
    2e66:	fc 01       	movw	r30, r24
    2e68:	eb 5c       	subi	r30, 0xCB	; 203
    2e6a:	fd 4f       	sbci	r31, 0xFD	; 253
    2e6c:	25 91       	lpm	r18, Z+
    2e6e:	34 91       	lpm	r19, Z+
    2e70:	d9 01       	movw	r26, r18
    2e72:	85 5e       	subi	r24, 0xE5	; 229
    2e74:	9d 4f       	sbci	r25, 0xFD	; 253
    2e76:	fc 01       	movw	r30, r24
    2e78:	85 91       	lpm	r24, Z+
    2e7a:	94 91       	lpm	r25, Z+
    2e7c:	c8 2f       	mov	r28, r24
    2e7e:	d9 2f       	mov	r29, r25
    2e80:	9f b7       	in	r25, 0x3f	; 63
    2e82:	f8 94       	cli
    2e84:	8c 91       	ld	r24, X
    2e86:	61 11       	cpse	r22, r1
    2e88:	06 c0       	rjmp	.+12     	; 0x2e96 <pinMode+0x50>
    2e8a:	40 95       	com	r20
    2e8c:	84 23       	and	r24, r20
    2e8e:	8c 93       	st	X, r24
    2e90:	88 81       	ld	r24, Y
    2e92:	84 23       	and	r24, r20
    2e94:	08 c0       	rjmp	.+16     	; 0x2ea6 <pinMode+0x60>
    2e96:	62 30       	cpi	r22, 0x02	; 2
    2e98:	41 f4       	brne	.+16     	; 0x2eaa <pinMode+0x64>
    2e9a:	24 2f       	mov	r18, r20
    2e9c:	20 95       	com	r18
    2e9e:	82 23       	and	r24, r18
    2ea0:	8c 93       	st	X, r24
    2ea2:	88 81       	ld	r24, Y
    2ea4:	84 2b       	or	r24, r20
    2ea6:	88 83       	st	Y, r24
    2ea8:	02 c0       	rjmp	.+4      	; 0x2eae <pinMode+0x68>
    2eaa:	84 2b       	or	r24, r20
    2eac:	8c 93       	st	X, r24
    2eae:	9f bf       	out	0x3f, r25	; 63
    2eb0:	df 91       	pop	r29
    2eb2:	cf 91       	pop	r28
    2eb4:	08 95       	ret

00002eb6 <digitalWrite>:
    2eb6:	0f 93       	push	r16
    2eb8:	1f 93       	push	r17
    2eba:	cf 93       	push	r28
    2ebc:	df 93       	push	r29
    2ebe:	1f 92       	push	r1
    2ec0:	cd b7       	in	r28, 0x3d	; 61
    2ec2:	de b7       	in	r29, 0x3e	; 62
    2ec4:	28 2f       	mov	r18, r24
    2ec6:	30 e0       	ldi	r19, 0x00	; 0
    2ec8:	f9 01       	movw	r30, r18
    2eca:	e1 5d       	subi	r30, 0xD1	; 209
    2ecc:	fe 4f       	sbci	r31, 0xFE	; 254
    2ece:	84 91       	lpm	r24, Z+
    2ed0:	f9 01       	movw	r30, r18
    2ed2:	eb 58       	subi	r30, 0x8B	; 139
    2ed4:	fe 4f       	sbci	r31, 0xFE	; 254
    2ed6:	14 91       	lpm	r17, Z+
    2ed8:	f9 01       	movw	r30, r18
    2eda:	e5 54       	subi	r30, 0x45	; 69
    2edc:	fe 4f       	sbci	r31, 0xFE	; 254
    2ede:	04 91       	lpm	r16, Z+
    2ee0:	00 23       	and	r16, r16
    2ee2:	d1 f0       	breq	.+52     	; 0x2f18 <digitalWrite+0x62>
    2ee4:	88 23       	and	r24, r24
    2ee6:	21 f0       	breq	.+8      	; 0x2ef0 <digitalWrite+0x3a>
    2ee8:	69 83       	std	Y+1, r22	; 0x01
    2eea:	0e 94 b7 16 	call	0x2d6e	; 0x2d6e <turnOffPWM>
    2eee:	69 81       	ldd	r22, Y+1	; 0x01
    2ef0:	e0 2f       	mov	r30, r16
    2ef2:	f0 e0       	ldi	r31, 0x00	; 0
    2ef4:	ee 0f       	add	r30, r30
    2ef6:	ff 1f       	adc	r31, r31
    2ef8:	e5 5e       	subi	r30, 0xE5	; 229
    2efa:	fd 4f       	sbci	r31, 0xFD	; 253
    2efc:	85 91       	lpm	r24, Z+
    2efe:	94 91       	lpm	r25, Z+
    2f00:	dc 01       	movw	r26, r24
    2f02:	9f b7       	in	r25, 0x3f	; 63
    2f04:	f8 94       	cli
    2f06:	8c 91       	ld	r24, X
    2f08:	61 11       	cpse	r22, r1
    2f0a:	03 c0       	rjmp	.+6      	; 0x2f12 <digitalWrite+0x5c>
    2f0c:	10 95       	com	r17
    2f0e:	81 23       	and	r24, r17
    2f10:	01 c0       	rjmp	.+2      	; 0x2f14 <digitalWrite+0x5e>
    2f12:	81 2b       	or	r24, r17
    2f14:	8c 93       	st	X, r24
    2f16:	9f bf       	out	0x3f, r25	; 63
    2f18:	0f 90       	pop	r0
    2f1a:	df 91       	pop	r29
    2f1c:	cf 91       	pop	r28
    2f1e:	1f 91       	pop	r17
    2f20:	0f 91       	pop	r16
    2f22:	08 95       	ret

00002f24 <digitalRead>:
    2f24:	cf 93       	push	r28
    2f26:	df 93       	push	r29
    2f28:	28 2f       	mov	r18, r24
    2f2a:	30 e0       	ldi	r19, 0x00	; 0
    2f2c:	f9 01       	movw	r30, r18
    2f2e:	e1 5d       	subi	r30, 0xD1	; 209
    2f30:	fe 4f       	sbci	r31, 0xFE	; 254
    2f32:	84 91       	lpm	r24, Z+
    2f34:	f9 01       	movw	r30, r18
    2f36:	eb 58       	subi	r30, 0x8B	; 139
    2f38:	fe 4f       	sbci	r31, 0xFE	; 254
    2f3a:	d4 91       	lpm	r29, Z+
    2f3c:	f9 01       	movw	r30, r18
    2f3e:	e5 54       	subi	r30, 0x45	; 69
    2f40:	fe 4f       	sbci	r31, 0xFE	; 254
    2f42:	c4 91       	lpm	r28, Z+
    2f44:	cc 23       	and	r28, r28
    2f46:	89 f0       	breq	.+34     	; 0x2f6a <digitalRead+0x46>
    2f48:	81 11       	cpse	r24, r1
    2f4a:	0e 94 b7 16 	call	0x2d6e	; 0x2d6e <turnOffPWM>
    2f4e:	ec 2f       	mov	r30, r28
    2f50:	f0 e0       	ldi	r31, 0x00	; 0
    2f52:	ee 0f       	add	r30, r30
    2f54:	ff 1f       	adc	r31, r31
    2f56:	ef 5f       	subi	r30, 0xFF	; 255
    2f58:	fd 4f       	sbci	r31, 0xFD	; 253
    2f5a:	85 91       	lpm	r24, Z+
    2f5c:	94 91       	lpm	r25, Z+
    2f5e:	dc 01       	movw	r26, r24
    2f60:	8c 91       	ld	r24, X
    2f62:	8d 23       	and	r24, r29
    2f64:	21 e0       	ldi	r18, 0x01	; 1
    2f66:	30 e0       	ldi	r19, 0x00	; 0
    2f68:	11 f4       	brne	.+4      	; 0x2f6e <digitalRead+0x4a>
    2f6a:	20 e0       	ldi	r18, 0x00	; 0
    2f6c:	30 e0       	ldi	r19, 0x00	; 0
    2f6e:	c9 01       	movw	r24, r18
    2f70:	df 91       	pop	r29
    2f72:	cf 91       	pop	r28
    2f74:	08 95       	ret

00002f76 <yield>:
    2f76:	08 95       	ret

00002f78 <_ZN7PString5writeEh>:
#if defined(ARDUINO) && ARDUINO >= 100
size_t PString::write(uint8_t b)
#else
void PString::write(uint8_t b)
#endif
{
    2f78:	fc 01       	movw	r30, r24
  if (_cur + 1 < _buf + _size)
    2f7a:	a6 81       	ldd	r26, Z+6	; 0x06
    2f7c:	b7 81       	ldd	r27, Z+7	; 0x07
    2f7e:	9d 01       	movw	r18, r26
    2f80:	2f 5f       	subi	r18, 0xFF	; 255
    2f82:	3f 4f       	sbci	r19, 0xFF	; 255
    2f84:	84 81       	ldd	r24, Z+4	; 0x04
    2f86:	95 81       	ldd	r25, Z+5	; 0x05
    2f88:	40 85       	ldd	r20, Z+8	; 0x08
    2f8a:	51 85       	ldd	r21, Z+9	; 0x09
    2f8c:	84 0f       	add	r24, r20
    2f8e:	95 1f       	adc	r25, r21
    2f90:	28 17       	cp	r18, r24
    2f92:	39 07       	cpc	r19, r25
    2f94:	40 f4       	brcc	.+16     	; 0x2fa6 <_ZN7PString5writeEh+0x2e>
  {
    *_cur++ = (char)b;
    2f96:	6c 93       	st	X, r22
    2f98:	37 83       	std	Z+7, r19	; 0x07
    2f9a:	26 83       	std	Z+6, r18	; 0x06
    *_cur = '\0';
    2f9c:	11 96       	adiw	r26, 0x01	; 1
    2f9e:	1c 92       	st	X, r1
#if defined(ARDUINO) && ARDUINO >= 100
		return 1;
    2fa0:	21 e0       	ldi	r18, 0x01	; 1
    2fa2:	30 e0       	ldi	r19, 0x00	; 0
    2fa4:	02 c0       	rjmp	.+4      	; 0x2faa <_ZN7PString5writeEh+0x32>
#endif
	}

#if defined(ARDUINO) && ARDUINO >= 100
	return 0;
    2fa6:	20 e0       	ldi	r18, 0x00	; 0
    2fa8:	30 e0       	ldi	r19, 0x00	; 0
#endif
}
    2faa:	c9 01       	movw	r24, r18
    2fac:	08 95       	ret

00002fae <_ZN7PString5beginEv>:
*/

#include "PString.h"

void PString::begin()
{
    2fae:	fc 01       	movw	r30, r24
  _cur = _buf;
    2fb0:	a4 81       	ldd	r26, Z+4	; 0x04
    2fb2:	b5 81       	ldd	r27, Z+5	; 0x05
    2fb4:	b7 83       	std	Z+7, r27	; 0x07
    2fb6:	a6 83       	std	Z+6, r26	; 0x06
  if (_size > 0)
    2fb8:	80 85       	ldd	r24, Z+8	; 0x08
    2fba:	91 85       	ldd	r25, Z+9	; 0x09
    2fbc:	89 2b       	or	r24, r25
    2fbe:	09 f0       	breq	.+2      	; 0x2fc2 <_ZN7PString5beginEv+0x14>
    _buf[0] = '\0';
    2fc0:	1c 92       	st	X, r1
    2fc2:	08 95       	ret

00002fc4 <_ZN3PIDC1Ev>:
  #include "WProgram.h"
#endif

#include <PID_v1/PID_v1.h>

PID::PID(){};
    2fc4:	08 95       	ret

00002fc6 <_ZN3PID7ComputeEv>:
 *     This, as they say, is where the magic happens.  this function should be called
 *   every time "void loop()" executes.  the function will decide for itself whether a new
 *   pid Output needs to be computed
 **********************************************************************************/ 
void PID::Compute()
{
    2fc6:	2f 92       	push	r2
    2fc8:	3f 92       	push	r3
    2fca:	4f 92       	push	r4
    2fcc:	5f 92       	push	r5
    2fce:	6f 92       	push	r6
    2fd0:	7f 92       	push	r7
    2fd2:	8f 92       	push	r8
    2fd4:	9f 92       	push	r9
    2fd6:	af 92       	push	r10
    2fd8:	bf 92       	push	r11
    2fda:	cf 92       	push	r12
    2fdc:	df 92       	push	r13
    2fde:	ef 92       	push	r14
    2fe0:	ff 92       	push	r15
    2fe2:	0f 93       	push	r16
    2fe4:	1f 93       	push	r17
    2fe6:	cf 93       	push	r28
    2fe8:	df 93       	push	r29
    2fea:	cd b7       	in	r28, 0x3d	; 61
    2fec:	de b7       	in	r29, 0x3e	; 62
    2fee:	2a 97       	sbiw	r28, 0x0a	; 10
    2ff0:	0f b6       	in	r0, 0x3f	; 63
    2ff2:	f8 94       	cli
    2ff4:	de bf       	out	0x3e, r29	; 62
    2ff6:	0f be       	out	0x3f, r0	; 63
    2ff8:	cd bf       	out	0x3d, r28	; 61
    2ffa:	9a 87       	std	Y+10, r25	; 0x0a
    2ffc:	89 87       	std	Y+9, r24	; 0x09
   if(!inAuto) return;
    2ffe:	dc 01       	movw	r26, r24
    3000:	d6 96       	adiw	r26, 0x36	; 54
    3002:	8c 91       	ld	r24, X
    3004:	88 23       	and	r24, r24
    3006:	09 f4       	brne	.+2      	; 0x300a <_ZN3PID7ComputeEv+0x44>
    3008:	fa c0       	rjmp	.+500    	; 0x31fe <_ZN3PID7ComputeEv+0x238>
   unsigned long now = millis();
    300a:	0e 94 e7 15 	call	0x2bce	; 0x2bce <millis>
    300e:	69 83       	std	Y+1, r22	; 0x01
    3010:	7a 83       	std	Y+2, r23	; 0x02
    3012:	8b 83       	std	Y+3, r24	; 0x03
    3014:	9c 83       	std	Y+4, r25	; 0x04
   int timeChange = (now - lastTime);
    3016:	e9 85       	ldd	r30, Y+9	; 0x09
    3018:	fa 85       	ldd	r31, Y+10	; 0x0a
    301a:	80 a1       	ldd	r24, Z+32	; 0x20
    301c:	91 a1       	ldd	r25, Z+33	; 0x21
    301e:	29 81       	ldd	r18, Y+1	; 0x01
    3020:	3a 81       	ldd	r19, Y+2	; 0x02
    3022:	28 1b       	sub	r18, r24
    3024:	39 0b       	sbc	r19, r25
   if(timeChange>=SampleTime)
    3026:	84 a5       	ldd	r24, Z+44	; 0x2c
    3028:	95 a5       	ldd	r25, Z+45	; 0x2d
    302a:	28 17       	cp	r18, r24
    302c:	39 07       	cpc	r19, r25
    302e:	0c f4       	brge	.+2      	; 0x3032 <_ZN3PID7ComputeEv+0x6c>
    3030:	e6 c0       	rjmp	.+460    	; 0x31fe <_ZN3PID7ComputeEv+0x238>
   {
      /*Compute all the working error variables*/
	  double input = *myInput;
    3032:	02 8c       	ldd	r0, Z+26	; 0x1a
    3034:	f3 8d       	ldd	r31, Z+27	; 0x1b
    3036:	e0 2d       	mov	r30, r0
    3038:	c0 80       	ld	r12, Z
    303a:	d1 80       	ldd	r13, Z+1	; 0x01
    303c:	e2 80       	ldd	r14, Z+2	; 0x02
    303e:	f3 80       	ldd	r15, Z+3	; 0x03
      double error = *mySetpoint - input;
    3040:	a9 85       	ldd	r26, Y+9	; 0x09
    3042:	ba 85       	ldd	r27, Y+10	; 0x0a
    3044:	5e 96       	adiw	r26, 0x1e	; 30
    3046:	ed 91       	ld	r30, X+
    3048:	fc 91       	ld	r31, X
    304a:	5f 97       	sbiw	r26, 0x1f	; 31
    304c:	a7 01       	movw	r20, r14
    304e:	96 01       	movw	r18, r12
    3050:	60 81       	ld	r22, Z
    3052:	71 81       	ldd	r23, Z+1	; 0x01
    3054:	82 81       	ldd	r24, Z+2	; 0x02
    3056:	93 81       	ldd	r25, Z+3	; 0x03
    3058:	0e 94 23 41 	call	0x8246	; 0x8246 <__subsf3>
    305c:	6d 83       	std	Y+5, r22	; 0x05
    305e:	7e 83       	std	Y+6, r23	; 0x06
    3060:	8f 83       	std	Y+7, r24	; 0x07
    3062:	98 87       	std	Y+8, r25	; 0x08
      ITerm+= (ki * error);
    3064:	e9 85       	ldd	r30, Y+9	; 0x09
    3066:	fa 85       	ldd	r31, Y+10	; 0x0a
    3068:	20 89       	ldd	r18, Z+16	; 0x10
    306a:	31 89       	ldd	r19, Z+17	; 0x11
    306c:	42 89       	ldd	r20, Z+18	; 0x12
    306e:	53 89       	ldd	r21, Z+19	; 0x13
    3070:	0e 94 f8 43 	call	0x87f0	; 0x87f0 <__mulsf3>
    3074:	a9 85       	ldd	r26, Y+9	; 0x09
    3076:	ba 85       	ldd	r27, Y+10	; 0x0a
    3078:	94 96       	adiw	r26, 0x24	; 36
    307a:	2d 91       	ld	r18, X+
    307c:	3d 91       	ld	r19, X+
    307e:	4d 91       	ld	r20, X+
    3080:	5c 91       	ld	r21, X
    3082:	97 97       	sbiw	r26, 0x27	; 39
    3084:	0e 94 24 41 	call	0x8248	; 0x8248 <__addsf3>
    3088:	56 2e       	mov	r5, r22
    308a:	67 2e       	mov	r6, r23
    308c:	78 2e       	mov	r7, r24
    308e:	09 2f       	mov	r16, r25
    3090:	98 2f       	mov	r25, r24
    3092:	45 2d       	mov	r20, r5
    3094:	56 2d       	mov	r21, r6
    3096:	69 2f       	mov	r22, r25
    3098:	70 2f       	mov	r23, r16
    309a:	e9 85       	ldd	r30, Y+9	; 0x09
    309c:	fa 85       	ldd	r31, Y+10	; 0x0a
    309e:	44 a3       	std	Z+36, r20	; 0x24
    30a0:	55 a3       	std	Z+37, r21	; 0x25
    30a2:	66 a3       	std	Z+38, r22	; 0x26
    30a4:	77 a3       	std	Z+39, r23	; 0x27
      if(ITerm > outMax) ITerm= outMax;
    30a6:	22 a8       	ldd	r2, Z+50	; 0x32
    30a8:	13 a9       	ldd	r17, Z+51	; 0x33
    30aa:	34 a8       	ldd	r3, Z+52	; 0x34
    30ac:	45 a8       	ldd	r4, Z+53	; 0x35
    30ae:	22 2d       	mov	r18, r2
    30b0:	31 2f       	mov	r19, r17
    30b2:	43 2d       	mov	r20, r3
    30b4:	54 2d       	mov	r21, r4
    30b6:	65 2d       	mov	r22, r5
    30b8:	76 2d       	mov	r23, r6
    30ba:	87 2d       	mov	r24, r7
    30bc:	90 2f       	mov	r25, r16
    30be:	0e 94 ed 43 	call	0x87da	; 0x87da <__gesf2>
    30c2:	18 16       	cp	r1, r24
    30c4:	6c f4       	brge	.+26     	; 0x30e0 <_ZN3PID7ComputeEv+0x11a>
    30c6:	42 2d       	mov	r20, r2
    30c8:	51 2f       	mov	r21, r17
    30ca:	63 2d       	mov	r22, r3
    30cc:	74 2d       	mov	r23, r4
    30ce:	a9 85       	ldd	r26, Y+9	; 0x09
    30d0:	ba 85       	ldd	r27, Y+10	; 0x0a
    30d2:	94 96       	adiw	r26, 0x24	; 36
    30d4:	4d 93       	st	X+, r20
    30d6:	5d 93       	st	X+, r21
    30d8:	6d 93       	st	X+, r22
    30da:	7c 93       	st	X, r23
    30dc:	97 97       	sbiw	r26, 0x27	; 39
    30de:	18 c0       	rjmp	.+48     	; 0x3110 <_ZN3PID7ComputeEv+0x14a>
      else if(ITerm < outMin) ITerm= outMin;
    30e0:	e9 85       	ldd	r30, Y+9	; 0x09
    30e2:	fa 85       	ldd	r31, Y+10	; 0x0a
    30e4:	86 a4       	ldd	r8, Z+46	; 0x2e
    30e6:	97 a4       	ldd	r9, Z+47	; 0x2f
    30e8:	a0 a8       	ldd	r10, Z+48	; 0x30
    30ea:	b1 a8       	ldd	r11, Z+49	; 0x31
    30ec:	a5 01       	movw	r20, r10
    30ee:	94 01       	movw	r18, r8
    30f0:	65 2d       	mov	r22, r5
    30f2:	76 2d       	mov	r23, r6
    30f4:	87 2d       	mov	r24, r7
    30f6:	90 2f       	mov	r25, r16
    30f8:	0e 94 ea 41 	call	0x83d4	; 0x83d4 <__cmpsf2>
    30fc:	87 ff       	sbrs	r24, 7
    30fe:	08 c0       	rjmp	.+16     	; 0x3110 <_ZN3PID7ComputeEv+0x14a>
    3100:	a9 85       	ldd	r26, Y+9	; 0x09
    3102:	ba 85       	ldd	r27, Y+10	; 0x0a
    3104:	94 96       	adiw	r26, 0x24	; 36
    3106:	8d 92       	st	X+, r8
    3108:	9d 92       	st	X+, r9
    310a:	ad 92       	st	X+, r10
    310c:	bc 92       	st	X, r11
    310e:	97 97       	sbiw	r26, 0x27	; 39
      double dInput = (input - lastInput);
 
      /*Compute PID Output*/
      double output = kp * error + ITerm- kd * dInput;
    3110:	e9 85       	ldd	r30, Y+9	; 0x09
    3112:	fa 85       	ldd	r31, Y+10	; 0x0a
    3114:	24 85       	ldd	r18, Z+12	; 0x0c
    3116:	35 85       	ldd	r19, Z+13	; 0x0d
    3118:	46 85       	ldd	r20, Z+14	; 0x0e
    311a:	57 85       	ldd	r21, Z+15	; 0x0f
    311c:	bd 81       	ldd	r27, Y+5	; 0x05
    311e:	ae 81       	ldd	r26, Y+6	; 0x06
    3120:	0f 81       	ldd	r16, Y+7	; 0x07
    3122:	b8 84       	ldd	r11, Y+8	; 0x08
    3124:	6b 2f       	mov	r22, r27
    3126:	7a 2f       	mov	r23, r26
    3128:	80 2f       	mov	r24, r16
    312a:	9b 2d       	mov	r25, r11
    312c:	0e 94 f8 43 	call	0x87f0	; 0x87f0 <__mulsf3>
    3130:	a9 85       	ldd	r26, Y+9	; 0x09
    3132:	ba 85       	ldd	r27, Y+10	; 0x0a
    3134:	94 96       	adiw	r26, 0x24	; 36
    3136:	2d 91       	ld	r18, X+
    3138:	3d 91       	ld	r19, X+
    313a:	4d 91       	ld	r20, X+
    313c:	5c 91       	ld	r21, X
    313e:	97 97       	sbiw	r26, 0x27	; 39
    3140:	0e 94 24 41 	call	0x8248	; 0x8248 <__addsf3>
    3144:	4b 01       	movw	r8, r22
    3146:	5c 01       	movw	r10, r24
	  double input = *myInput;
      double error = *mySetpoint - input;
      ITerm+= (ki * error);
      if(ITerm > outMax) ITerm= outMax;
      else if(ITerm < outMin) ITerm= outMin;
      double dInput = (input - lastInput);
    3148:	e9 85       	ldd	r30, Y+9	; 0x09
    314a:	fa 85       	ldd	r31, Y+10	; 0x0a
    314c:	20 a5       	ldd	r18, Z+40	; 0x28
    314e:	31 a5       	ldd	r19, Z+41	; 0x29
    3150:	42 a5       	ldd	r20, Z+42	; 0x2a
    3152:	53 a5       	ldd	r21, Z+43	; 0x2b
    3154:	c7 01       	movw	r24, r14
    3156:	b6 01       	movw	r22, r12
    3158:	0e 94 23 41 	call	0x8246	; 0x8246 <__subsf3>
 
      /*Compute PID Output*/
      double output = kp * error + ITerm- kd * dInput;
    315c:	a9 85       	ldd	r26, Y+9	; 0x09
    315e:	ba 85       	ldd	r27, Y+10	; 0x0a
    3160:	54 96       	adiw	r26, 0x14	; 20
    3162:	2d 91       	ld	r18, X+
    3164:	3d 91       	ld	r19, X+
    3166:	4d 91       	ld	r20, X+
    3168:	5c 91       	ld	r21, X
    316a:	57 97       	sbiw	r26, 0x17	; 23
    316c:	0e 94 f8 43 	call	0x87f0	; 0x87f0 <__mulsf3>
    3170:	9b 01       	movw	r18, r22
    3172:	ac 01       	movw	r20, r24
    3174:	c5 01       	movw	r24, r10
    3176:	b4 01       	movw	r22, r8
    3178:	0e 94 23 41 	call	0x8246	; 0x8246 <__subsf3>
    317c:	96 2e       	mov	r9, r22
    317e:	a7 2e       	mov	r10, r23
    3180:	b8 2e       	mov	r11, r24
    3182:	09 2f       	mov	r16, r25
      
	  if(output > outMax) output = outMax;
    3184:	22 2d       	mov	r18, r2
    3186:	31 2f       	mov	r19, r17
    3188:	43 2d       	mov	r20, r3
    318a:	54 2d       	mov	r21, r4
    318c:	69 2d       	mov	r22, r9
    318e:	7a 2d       	mov	r23, r10
    3190:	8b 2d       	mov	r24, r11
    3192:	90 2f       	mov	r25, r16
    3194:	0e 94 ed 43 	call	0x87da	; 0x87da <__gesf2>
    3198:	18 16       	cp	r1, r24
    319a:	b4 f0       	brlt	.+44     	; 0x31c8 <_ZN3PID7ComputeEv+0x202>
      else if(output < outMin) output = outMin;
    319c:	e9 85       	ldd	r30, Y+9	; 0x09
    319e:	fa 85       	ldd	r31, Y+10	; 0x0a
    31a0:	26 a4       	ldd	r2, Z+46	; 0x2e
    31a2:	17 a5       	ldd	r17, Z+47	; 0x2f
    31a4:	30 a8       	ldd	r3, Z+48	; 0x30
    31a6:	41 a8       	ldd	r4, Z+49	; 0x31
    31a8:	22 2d       	mov	r18, r2
    31aa:	31 2f       	mov	r19, r17
    31ac:	43 2d       	mov	r20, r3
    31ae:	54 2d       	mov	r21, r4
    31b0:	69 2d       	mov	r22, r9
    31b2:	7a 2d       	mov	r23, r10
    31b4:	8b 2d       	mov	r24, r11
    31b6:	90 2f       	mov	r25, r16
    31b8:	0e 94 ea 41 	call	0x83d4	; 0x83d4 <__cmpsf2>
    31bc:	87 fd       	sbrc	r24, 7
    31be:	04 c0       	rjmp	.+8      	; 0x31c8 <_ZN3PID7ComputeEv+0x202>
      if(ITerm > outMax) ITerm= outMax;
      else if(ITerm < outMin) ITerm= outMin;
      double dInput = (input - lastInput);
 
      /*Compute PID Output*/
      double output = kp * error + ITerm- kd * dInput;
    31c0:	29 2c       	mov	r2, r9
    31c2:	1a 2d       	mov	r17, r10
    31c4:	3b 2c       	mov	r3, r11
    31c6:	40 2e       	mov	r4, r16
      
	  if(output > outMax) output = outMax;
      else if(output < outMin) output = outMin;
	  *myOutput = output;
    31c8:	a9 85       	ldd	r26, Y+9	; 0x09
    31ca:	ba 85       	ldd	r27, Y+10	; 0x0a
    31cc:	5c 96       	adiw	r26, 0x1c	; 28
    31ce:	ed 91       	ld	r30, X+
    31d0:	fc 91       	ld	r31, X
    31d2:	5d 97       	sbiw	r26, 0x1d	; 29
    31d4:	42 2d       	mov	r20, r2
    31d6:	51 2f       	mov	r21, r17
    31d8:	63 2d       	mov	r22, r3
    31da:	74 2d       	mov	r23, r4
    31dc:	40 83       	st	Z, r20
    31de:	51 83       	std	Z+1, r21	; 0x01
    31e0:	62 83       	std	Z+2, r22	; 0x02
    31e2:	73 83       	std	Z+3, r23	; 0x03
	  
      /*Remember some variables for next time*/
      lastInput = input;
    31e4:	fd 01       	movw	r30, r26
    31e6:	c0 a6       	std	Z+40, r12	; 0x28
    31e8:	d1 a6       	std	Z+41, r13	; 0x29
    31ea:	e2 a6       	std	Z+42, r14	; 0x2a
    31ec:	f3 a6       	std	Z+43, r15	; 0x2b
      lastTime = now;
    31ee:	89 81       	ldd	r24, Y+1	; 0x01
    31f0:	9a 81       	ldd	r25, Y+2	; 0x02
    31f2:	ab 81       	ldd	r26, Y+3	; 0x03
    31f4:	bc 81       	ldd	r27, Y+4	; 0x04
    31f6:	80 a3       	std	Z+32, r24	; 0x20
    31f8:	91 a3       	std	Z+33, r25	; 0x21
    31fa:	a2 a3       	std	Z+34, r26	; 0x22
    31fc:	b3 a3       	std	Z+35, r27	; 0x23
   }
}
    31fe:	2a 96       	adiw	r28, 0x0a	; 10
    3200:	0f b6       	in	r0, 0x3f	; 63
    3202:	f8 94       	cli
    3204:	de bf       	out	0x3e, r29	; 62
    3206:	0f be       	out	0x3f, r0	; 63
    3208:	cd bf       	out	0x3d, r28	; 61
    320a:	df 91       	pop	r29
    320c:	cf 91       	pop	r28
    320e:	1f 91       	pop	r17
    3210:	0f 91       	pop	r16
    3212:	ff 90       	pop	r15
    3214:	ef 90       	pop	r14
    3216:	df 90       	pop	r13
    3218:	cf 90       	pop	r12
    321a:	bf 90       	pop	r11
    321c:	af 90       	pop	r10
    321e:	9f 90       	pop	r9
    3220:	8f 90       	pop	r8
    3222:	7f 90       	pop	r7
    3224:	6f 90       	pop	r6
    3226:	5f 90       	pop	r5
    3228:	4f 90       	pop	r4
    322a:	3f 90       	pop	r3
    322c:	2f 90       	pop	r2
    322e:	08 95       	ret

00003230 <_ZN3PID10SetTuningsEddd>:
 * This function allows the controller's dynamic performance to be adjusted. 
 * it's called automatically from the constructor, but tunings can also
 * be adjusted on the fly during normal operation
 ******************************************************************************/ 
void PID::SetTunings(double Kp, double Ki, double Kd)
{
    3230:	2f 92       	push	r2
    3232:	3f 92       	push	r3
    3234:	4f 92       	push	r4
    3236:	5f 92       	push	r5
    3238:	6f 92       	push	r6
    323a:	7f 92       	push	r7
    323c:	8f 92       	push	r8
    323e:	9f 92       	push	r9
    3240:	af 92       	push	r10
    3242:	bf 92       	push	r11
    3244:	cf 92       	push	r12
    3246:	df 92       	push	r13
    3248:	ef 92       	push	r14
    324a:	ff 92       	push	r15
    324c:	0f 93       	push	r16
    324e:	1f 93       	push	r17
    3250:	cf 93       	push	r28
    3252:	df 93       	push	r29
    3254:	1c 01       	movw	r2, r24
    3256:	4a 01       	movw	r8, r20
    3258:	5b 01       	movw	r10, r22
    325a:	28 01       	movw	r4, r16
    325c:	39 01       	movw	r6, r18
   if (Kp<0 || Ki<0 || Kd<0) return;
    325e:	20 e0       	ldi	r18, 0x00	; 0
    3260:	30 e0       	ldi	r19, 0x00	; 0
    3262:	a9 01       	movw	r20, r18
    3264:	c5 01       	movw	r24, r10
    3266:	b4 01       	movw	r22, r8
    3268:	0e 94 ea 41 	call	0x83d4	; 0x83d4 <__cmpsf2>
    326c:	87 fd       	sbrc	r24, 7
    326e:	8e c0       	rjmp	.+284    	; 0x338c <_ZN3PID10SetTuningsEddd+0x15c>
    3270:	20 e0       	ldi	r18, 0x00	; 0
    3272:	30 e0       	ldi	r19, 0x00	; 0
    3274:	a9 01       	movw	r20, r18
    3276:	c3 01       	movw	r24, r6
    3278:	b2 01       	movw	r22, r4
    327a:	0e 94 ea 41 	call	0x83d4	; 0x83d4 <__cmpsf2>
    327e:	87 fd       	sbrc	r24, 7
    3280:	85 c0       	rjmp	.+266    	; 0x338c <_ZN3PID10SetTuningsEddd+0x15c>
    3282:	20 e0       	ldi	r18, 0x00	; 0
    3284:	30 e0       	ldi	r19, 0x00	; 0
    3286:	a9 01       	movw	r20, r18
    3288:	c7 01       	movw	r24, r14
    328a:	b6 01       	movw	r22, r12
    328c:	0e 94 ea 41 	call	0x83d4	; 0x83d4 <__cmpsf2>
    3290:	87 fd       	sbrc	r24, 7
    3292:	7c c0       	rjmp	.+248    	; 0x338c <_ZN3PID10SetTuningsEddd+0x15c>
 
   dispKp = Kp; dispKi = Ki; dispKd = Kd;
    3294:	f1 01       	movw	r30, r2
    3296:	80 82       	st	Z, r8
    3298:	91 82       	std	Z+1, r9	; 0x01
    329a:	a2 82       	std	Z+2, r10	; 0x02
    329c:	b3 82       	std	Z+3, r11	; 0x03
    329e:	44 82       	std	Z+4, r4	; 0x04
    32a0:	55 82       	std	Z+5, r5	; 0x05
    32a2:	66 82       	std	Z+6, r6	; 0x06
    32a4:	77 82       	std	Z+7, r7	; 0x07
    32a6:	c0 86       	std	Z+8, r12	; 0x08
    32a8:	d1 86       	std	Z+9, r13	; 0x09
    32aa:	e2 86       	std	Z+10, r14	; 0x0a
    32ac:	f3 86       	std	Z+11, r15	; 0x0b
   
   double SampleTimeInSec = ((double)SampleTime)/1000;  
    32ae:	64 a5       	ldd	r22, Z+44	; 0x2c
    32b0:	75 a5       	ldd	r23, Z+45	; 0x2d
    32b2:	88 27       	eor	r24, r24
    32b4:	77 fd       	sbrc	r23, 7
    32b6:	80 95       	com	r24
    32b8:	98 2f       	mov	r25, r24
    32ba:	0e 94 8c 42 	call	0x8518	; 0x8518 <__floatsisf>
    32be:	20 e0       	ldi	r18, 0x00	; 0
    32c0:	30 e0       	ldi	r19, 0x00	; 0
    32c2:	4a e7       	ldi	r20, 0x7A	; 122
    32c4:	54 e4       	ldi	r21, 0x44	; 68
    32c6:	0e 94 f1 41 	call	0x83e2	; 0x83e2 <__divsf3>
    32ca:	d6 2f       	mov	r29, r22
    32cc:	c7 2f       	mov	r28, r23
    32ce:	8c 01       	movw	r16, r24
   kp = Kp;
    32d0:	f1 01       	movw	r30, r2
    32d2:	84 86       	std	Z+12, r8	; 0x0c
    32d4:	95 86       	std	Z+13, r9	; 0x0d
    32d6:	a6 86       	std	Z+14, r10	; 0x0e
    32d8:	b7 86       	std	Z+15, r11	; 0x0f
   ki = Ki * SampleTimeInSec;
    32da:	be 01       	movw	r22, r28
    32dc:	98 2f       	mov	r25, r24
    32de:	27 2f       	mov	r18, r23
    32e0:	36 2f       	mov	r19, r22
    32e2:	49 2f       	mov	r20, r25
    32e4:	51 2f       	mov	r21, r17
    32e6:	c3 01       	movw	r24, r6
    32e8:	b2 01       	movw	r22, r4
    32ea:	0e 94 f8 43 	call	0x87f0	; 0x87f0 <__mulsf3>
    32ee:	2b 01       	movw	r4, r22
    32f0:	3c 01       	movw	r6, r24
    32f2:	98 2f       	mov	r25, r24
    32f4:	44 2d       	mov	r20, r4
    32f6:	55 2d       	mov	r21, r5
    32f8:	69 2f       	mov	r22, r25
    32fa:	77 2d       	mov	r23, r7
    32fc:	f1 01       	movw	r30, r2
    32fe:	40 8b       	std	Z+16, r20	; 0x10
    3300:	51 8b       	std	Z+17, r21	; 0x11
    3302:	62 8b       	std	Z+18, r22	; 0x12
    3304:	73 8b       	std	Z+19, r23	; 0x13
   kd = Kd / SampleTimeInSec;
    3306:	be 01       	movw	r22, r28
    3308:	27 2f       	mov	r18, r23
    330a:	36 2f       	mov	r19, r22
    330c:	40 2f       	mov	r20, r16
    330e:	51 2f       	mov	r21, r17
    3310:	c7 01       	movw	r24, r14
    3312:	b6 01       	movw	r22, r12
    3314:	0e 94 f1 41 	call	0x83e2	; 0x83e2 <__divsf3>
    3318:	7b 01       	movw	r14, r22
    331a:	d8 2f       	mov	r29, r24
    331c:	c9 2f       	mov	r28, r25
    331e:	ce 01       	movw	r24, r28
    3320:	0e 2d       	mov	r16, r14
    3322:	1f 2d       	mov	r17, r15
    3324:	29 2f       	mov	r18, r25
    3326:	38 2f       	mov	r19, r24
    3328:	f1 01       	movw	r30, r2
    332a:	04 8b       	std	Z+20, r16	; 0x14
    332c:	15 8b       	std	Z+21, r17	; 0x15
    332e:	26 8b       	std	Z+22, r18	; 0x16
    3330:	37 8b       	std	Z+23, r19	; 0x17
 
  if(controllerDirection ==REVERSE)
    3332:	80 8d       	ldd	r24, Z+24	; 0x18
    3334:	91 8d       	ldd	r25, Z+25	; 0x19
    3336:	01 97       	sbiw	r24, 0x01	; 1
    3338:	49 f5       	brne	.+82     	; 0x338c <_ZN3PID10SetTuningsEddd+0x15c>
   {
      kp = (0 - kp);
    333a:	a5 01       	movw	r20, r10
    333c:	94 01       	movw	r18, r8
    333e:	60 e0       	ldi	r22, 0x00	; 0
    3340:	70 e0       	ldi	r23, 0x00	; 0
    3342:	cb 01       	movw	r24, r22
    3344:	0e 94 23 41 	call	0x8246	; 0x8246 <__subsf3>
    3348:	f1 01       	movw	r30, r2
    334a:	64 87       	std	Z+12, r22	; 0x0c
    334c:	75 87       	std	Z+13, r23	; 0x0d
    334e:	86 87       	std	Z+14, r24	; 0x0e
    3350:	97 87       	std	Z+15, r25	; 0x0f
      ki = (0 - ki);
    3352:	24 2d       	mov	r18, r4
    3354:	35 2d       	mov	r19, r5
    3356:	46 2d       	mov	r20, r6
    3358:	57 2d       	mov	r21, r7
    335a:	60 e0       	ldi	r22, 0x00	; 0
    335c:	70 e0       	ldi	r23, 0x00	; 0
    335e:	cb 01       	movw	r24, r22
    3360:	0e 94 23 41 	call	0x8246	; 0x8246 <__subsf3>
    3364:	f1 01       	movw	r30, r2
    3366:	60 8b       	std	Z+16, r22	; 0x10
    3368:	71 8b       	std	Z+17, r23	; 0x11
    336a:	82 8b       	std	Z+18, r24	; 0x12
    336c:	93 8b       	std	Z+19, r25	; 0x13
      kd = (0 - kd);
    336e:	ce 01       	movw	r24, r28
    3370:	20 2f       	mov	r18, r16
    3372:	31 2f       	mov	r19, r17
    3374:	49 2f       	mov	r20, r25
    3376:	58 2f       	mov	r21, r24
    3378:	60 e0       	ldi	r22, 0x00	; 0
    337a:	70 e0       	ldi	r23, 0x00	; 0
    337c:	cb 01       	movw	r24, r22
    337e:	0e 94 23 41 	call	0x8246	; 0x8246 <__subsf3>
    3382:	f1 01       	movw	r30, r2
    3384:	64 8b       	std	Z+20, r22	; 0x14
    3386:	75 8b       	std	Z+21, r23	; 0x15
    3388:	86 8b       	std	Z+22, r24	; 0x16
    338a:	97 8b       	std	Z+23, r25	; 0x17
   }
}
    338c:	df 91       	pop	r29
    338e:	cf 91       	pop	r28
    3390:	1f 91       	pop	r17
    3392:	0f 91       	pop	r16
    3394:	ff 90       	pop	r15
    3396:	ef 90       	pop	r14
    3398:	df 90       	pop	r13
    339a:	cf 90       	pop	r12
    339c:	bf 90       	pop	r11
    339e:	af 90       	pop	r10
    33a0:	9f 90       	pop	r9
    33a2:	8f 90       	pop	r8
    33a4:	7f 90       	pop	r7
    33a6:	6f 90       	pop	r6
    33a8:	5f 90       	pop	r5
    33aa:	4f 90       	pop	r4
    33ac:	3f 90       	pop	r3
    33ae:	2f 90       	pop	r2
    33b0:	08 95       	ret

000033b2 <_ZN3PID13SetSampleTimeEi>:
  
/* SetSampleTime(...) *********************************************************
 * sets the period, in Milliseconds, at which the calculation is performed	
 ******************************************************************************/
void PID::SetSampleTime(int NewSampleTime)
{
    33b2:	cf 92       	push	r12
    33b4:	df 92       	push	r13
    33b6:	ef 92       	push	r14
    33b8:	ff 92       	push	r15
    33ba:	0f 93       	push	r16
    33bc:	1f 93       	push	r17
    33be:	cf 93       	push	r28
    33c0:	df 93       	push	r29
    33c2:	ec 01       	movw	r28, r24
    33c4:	8b 01       	movw	r16, r22
   if (NewSampleTime > 0)
    33c6:	16 16       	cp	r1, r22
    33c8:	17 06       	cpc	r1, r23
    33ca:	bc f5       	brge	.+110    	; 0x343a <_ZN3PID13SetSampleTimeEi+0x88>
   {
      double ratio  = (double)NewSampleTime
                      / (double)SampleTime;
    33cc:	88 27       	eor	r24, r24
    33ce:	77 fd       	sbrc	r23, 7
    33d0:	80 95       	com	r24
    33d2:	98 2f       	mov	r25, r24
    33d4:	0e 94 8c 42 	call	0x8518	; 0x8518 <__floatsisf>
    33d8:	6b 01       	movw	r12, r22
    33da:	7c 01       	movw	r14, r24
    33dc:	6c a5       	ldd	r22, Y+44	; 0x2c
    33de:	7d a5       	ldd	r23, Y+45	; 0x2d
    33e0:	88 27       	eor	r24, r24
    33e2:	77 fd       	sbrc	r23, 7
    33e4:	80 95       	com	r24
    33e6:	98 2f       	mov	r25, r24
    33e8:	0e 94 8c 42 	call	0x8518	; 0x8518 <__floatsisf>
    33ec:	9b 01       	movw	r18, r22
    33ee:	ac 01       	movw	r20, r24
    33f0:	c7 01       	movw	r24, r14
    33f2:	b6 01       	movw	r22, r12
    33f4:	0e 94 f1 41 	call	0x83e2	; 0x83e2 <__divsf3>
    33f8:	6b 01       	movw	r12, r22
    33fa:	7c 01       	movw	r14, r24
      ki *= ratio;
    33fc:	76 2f       	mov	r23, r22
    33fe:	27 2f       	mov	r18, r23
    3400:	3d 2d       	mov	r19, r13
    3402:	4e 2d       	mov	r20, r14
    3404:	5f 2d       	mov	r21, r15
    3406:	68 89       	ldd	r22, Y+16	; 0x10
    3408:	79 89       	ldd	r23, Y+17	; 0x11
    340a:	8a 89       	ldd	r24, Y+18	; 0x12
    340c:	9b 89       	ldd	r25, Y+19	; 0x13
    340e:	0e 94 f8 43 	call	0x87f0	; 0x87f0 <__mulsf3>
    3412:	68 8b       	std	Y+16, r22	; 0x10
    3414:	79 8b       	std	Y+17, r23	; 0x11
    3416:	8a 8b       	std	Y+18, r24	; 0x12
    3418:	9b 8b       	std	Y+19, r25	; 0x13
      kd /= ratio;
    341a:	2c 2d       	mov	r18, r12
    341c:	3d 2d       	mov	r19, r13
    341e:	4e 2d       	mov	r20, r14
    3420:	5f 2d       	mov	r21, r15
    3422:	6c 89       	ldd	r22, Y+20	; 0x14
    3424:	7d 89       	ldd	r23, Y+21	; 0x15
    3426:	8e 89       	ldd	r24, Y+22	; 0x16
    3428:	9f 89       	ldd	r25, Y+23	; 0x17
    342a:	0e 94 f1 41 	call	0x83e2	; 0x83e2 <__divsf3>
    342e:	6c 8b       	std	Y+20, r22	; 0x14
    3430:	7d 8b       	std	Y+21, r23	; 0x15
    3432:	8e 8b       	std	Y+22, r24	; 0x16
    3434:	9f 8b       	std	Y+23, r25	; 0x17
      SampleTime = (unsigned long)NewSampleTime;
    3436:	1d a7       	std	Y+45, r17	; 0x2d
    3438:	0c a7       	std	Y+44, r16	; 0x2c
   }
}
    343a:	df 91       	pop	r29
    343c:	cf 91       	pop	r28
    343e:	1f 91       	pop	r17
    3440:	0f 91       	pop	r16
    3442:	ff 90       	pop	r15
    3444:	ef 90       	pop	r14
    3446:	df 90       	pop	r13
    3448:	cf 90       	pop	r12
    344a:	08 95       	ret

0000344c <_ZN3PID15SetOutputLimitsEdd>:
 *  be doing a time window and will need 0-8000 or something.  or maybe they'll
 *  want to clamp it from 0-125.  who knows.  at any rate, that can all be done
 *  here.
 **************************************************************************/
void PID::SetOutputLimits(double Min, double Max)
{
    344c:	4f 92       	push	r4
    344e:	5f 92       	push	r5
    3450:	6f 92       	push	r6
    3452:	7f 92       	push	r7
    3454:	8f 92       	push	r8
    3456:	9f 92       	push	r9
    3458:	af 92       	push	r10
    345a:	bf 92       	push	r11
    345c:	cf 92       	push	r12
    345e:	df 92       	push	r13
    3460:	ef 92       	push	r14
    3462:	ff 92       	push	r15
    3464:	0f 93       	push	r16
    3466:	1f 93       	push	r17
    3468:	cf 93       	push	r28
    346a:	df 93       	push	r29
    346c:	ec 01       	movw	r28, r24
    346e:	6a 01       	movw	r12, r20
    3470:	7b 01       	movw	r14, r22
    3472:	48 01       	movw	r8, r16
    3474:	59 01       	movw	r10, r18
   if(Min >= Max) return;
    3476:	a9 01       	movw	r20, r18
    3478:	98 01       	movw	r18, r16
    347a:	c7 01       	movw	r24, r14
    347c:	b6 01       	movw	r22, r12
    347e:	0e 94 ed 43 	call	0x87da	; 0x87da <__gesf2>
    3482:	87 ff       	sbrs	r24, 7
    3484:	4f c0       	rjmp	.+158    	; 0x3524 <_ZN3PID15SetOutputLimitsEdd+0xd8>
   outMin = Min;
    3486:	ce a6       	std	Y+46, r12	; 0x2e
    3488:	df a6       	std	Y+47, r13	; 0x2f
    348a:	e8 aa       	std	Y+48, r14	; 0x30
    348c:	f9 aa       	std	Y+49, r15	; 0x31
   outMax = Max;
    348e:	8a aa       	std	Y+50, r8	; 0x32
    3490:	9b aa       	std	Y+51, r9	; 0x33
    3492:	ac aa       	std	Y+52, r10	; 0x34
    3494:	bd aa       	std	Y+53, r11	; 0x35
 
   if(inAuto)
    3496:	8e a9       	ldd	r24, Y+54	; 0x36
    3498:	88 23       	and	r24, r24
    349a:	09 f4       	brne	.+2      	; 0x349e <_ZN3PID15SetOutputLimitsEdd+0x52>
    349c:	43 c0       	rjmp	.+134    	; 0x3524 <_ZN3PID15SetOutputLimitsEdd+0xd8>
   {
	   if(*myOutput > outMax) *myOutput = outMax;
    349e:	0c 8d       	ldd	r16, Y+28	; 0x1c
    34a0:	1d 8d       	ldd	r17, Y+29	; 0x1d
    34a2:	f8 01       	movw	r30, r16
    34a4:	40 80       	ld	r4, Z
    34a6:	51 80       	ldd	r5, Z+1	; 0x01
    34a8:	62 80       	ldd	r6, Z+2	; 0x02
    34aa:	73 80       	ldd	r7, Z+3	; 0x03
    34ac:	a5 01       	movw	r20, r10
    34ae:	94 01       	movw	r18, r8
    34b0:	c3 01       	movw	r24, r6
    34b2:	b2 01       	movw	r22, r4
    34b4:	0e 94 ed 43 	call	0x87da	; 0x87da <__gesf2>
    34b8:	18 16       	cp	r1, r24
    34ba:	34 f4       	brge	.+12     	; 0x34c8 <_ZN3PID15SetOutputLimitsEdd+0x7c>
    34bc:	f8 01       	movw	r30, r16
    34be:	80 82       	st	Z, r8
    34c0:	91 82       	std	Z+1, r9	; 0x01
    34c2:	a2 82       	std	Z+2, r10	; 0x02
    34c4:	b3 82       	std	Z+3, r11	; 0x03
    34c6:	0d c0       	rjmp	.+26     	; 0x34e2 <_ZN3PID15SetOutputLimitsEdd+0x96>
	   else if(*myOutput < outMin) *myOutput = outMin;
    34c8:	a7 01       	movw	r20, r14
    34ca:	96 01       	movw	r18, r12
    34cc:	c3 01       	movw	r24, r6
    34ce:	b2 01       	movw	r22, r4
    34d0:	0e 94 ea 41 	call	0x83d4	; 0x83d4 <__cmpsf2>
    34d4:	87 ff       	sbrs	r24, 7
    34d6:	05 c0       	rjmp	.+10     	; 0x34e2 <_ZN3PID15SetOutputLimitsEdd+0x96>
    34d8:	f8 01       	movw	r30, r16
    34da:	c0 82       	st	Z, r12
    34dc:	d1 82       	std	Z+1, r13	; 0x01
    34de:	e2 82       	std	Z+2, r14	; 0x02
    34e0:	f3 82       	std	Z+3, r15	; 0x03
	 
	   if(ITerm > outMax) ITerm= outMax;
    34e2:	8c a0       	ldd	r8, Y+36	; 0x24
    34e4:	9d a0       	ldd	r9, Y+37	; 0x25
    34e6:	ae a0       	ldd	r10, Y+38	; 0x26
    34e8:	bf a0       	ldd	r11, Y+39	; 0x27
    34ea:	ca a8       	ldd	r12, Y+50	; 0x32
    34ec:	db a8       	ldd	r13, Y+51	; 0x33
    34ee:	ec a8       	ldd	r14, Y+52	; 0x34
    34f0:	fd a8       	ldd	r15, Y+53	; 0x35
    34f2:	a7 01       	movw	r20, r14
    34f4:	96 01       	movw	r18, r12
    34f6:	c5 01       	movw	r24, r10
    34f8:	b4 01       	movw	r22, r8
    34fa:	0e 94 ed 43 	call	0x87da	; 0x87da <__gesf2>
    34fe:	18 16       	cp	r1, r24
    3500:	0c f4       	brge	.+2      	; 0x3504 <_ZN3PID15SetOutputLimitsEdd+0xb8>
    3502:	0c c0       	rjmp	.+24     	; 0x351c <_ZN3PID15SetOutputLimitsEdd+0xd0>
	   else if(ITerm < outMin) ITerm= outMin;
    3504:	ce a4       	ldd	r12, Y+46	; 0x2e
    3506:	df a4       	ldd	r13, Y+47	; 0x2f
    3508:	e8 a8       	ldd	r14, Y+48	; 0x30
    350a:	f9 a8       	ldd	r15, Y+49	; 0x31
    350c:	a7 01       	movw	r20, r14
    350e:	96 01       	movw	r18, r12
    3510:	c5 01       	movw	r24, r10
    3512:	b4 01       	movw	r22, r8
    3514:	0e 94 ea 41 	call	0x83d4	; 0x83d4 <__cmpsf2>
    3518:	87 ff       	sbrs	r24, 7
    351a:	04 c0       	rjmp	.+8      	; 0x3524 <_ZN3PID15SetOutputLimitsEdd+0xd8>
    351c:	cc a2       	std	Y+36, r12	; 0x24
    351e:	dd a2       	std	Y+37, r13	; 0x25
    3520:	ee a2       	std	Y+38, r14	; 0x26
    3522:	ff a2       	std	Y+39, r15	; 0x27
   }
}
    3524:	df 91       	pop	r29
    3526:	cf 91       	pop	r28
    3528:	1f 91       	pop	r17
    352a:	0f 91       	pop	r16
    352c:	ff 90       	pop	r15
    352e:	ef 90       	pop	r14
    3530:	df 90       	pop	r13
    3532:	cf 90       	pop	r12
    3534:	bf 90       	pop	r11
    3536:	af 90       	pop	r10
    3538:	9f 90       	pop	r9
    353a:	8f 90       	pop	r8
    353c:	7f 90       	pop	r7
    353e:	6f 90       	pop	r6
    3540:	5f 90       	pop	r5
    3542:	4f 90       	pop	r4
    3544:	08 95       	ret

00003546 <_ZN3PID10InitializeEv>:
/* Initialize()****************************************************************
 *	does all the things that need to happen to ensure a bumpless transfer
 *  from manual to automatic mode.
 ******************************************************************************/ 
void PID::Initialize()
{
    3546:	8f 92       	push	r8
    3548:	9f 92       	push	r9
    354a:	af 92       	push	r10
    354c:	bf 92       	push	r11
    354e:	cf 92       	push	r12
    3550:	df 92       	push	r13
    3552:	ef 92       	push	r14
    3554:	ff 92       	push	r15
    3556:	cf 93       	push	r28
    3558:	df 93       	push	r29
    355a:	ec 01       	movw	r28, r24
   ITerm = *myOutput;
    355c:	ec 8d       	ldd	r30, Y+28	; 0x1c
    355e:	fd 8d       	ldd	r31, Y+29	; 0x1d
    3560:	c0 80       	ld	r12, Z
    3562:	d1 80       	ldd	r13, Z+1	; 0x01
    3564:	e2 80       	ldd	r14, Z+2	; 0x02
    3566:	f3 80       	ldd	r15, Z+3	; 0x03
    3568:	cc a2       	std	Y+36, r12	; 0x24
    356a:	dd a2       	std	Y+37, r13	; 0x25
    356c:	ee a2       	std	Y+38, r14	; 0x26
    356e:	ff a2       	std	Y+39, r15	; 0x27
   lastInput = *myInput;
    3570:	ea 8d       	ldd	r30, Y+26	; 0x1a
    3572:	fb 8d       	ldd	r31, Y+27	; 0x1b
    3574:	40 81       	ld	r20, Z
    3576:	51 81       	ldd	r21, Z+1	; 0x01
    3578:	62 81       	ldd	r22, Z+2	; 0x02
    357a:	73 81       	ldd	r23, Z+3	; 0x03
    357c:	48 a7       	std	Y+40, r20	; 0x28
    357e:	59 a7       	std	Y+41, r21	; 0x29
    3580:	6a a7       	std	Y+42, r22	; 0x2a
    3582:	7b a7       	std	Y+43, r23	; 0x2b
   if(ITerm > outMax) ITerm = outMax;
    3584:	8a a8       	ldd	r8, Y+50	; 0x32
    3586:	9b a8       	ldd	r9, Y+51	; 0x33
    3588:	ac a8       	ldd	r10, Y+52	; 0x34
    358a:	bd a8       	ldd	r11, Y+53	; 0x35
    358c:	a5 01       	movw	r20, r10
    358e:	94 01       	movw	r18, r8
    3590:	c7 01       	movw	r24, r14
    3592:	b6 01       	movw	r22, r12
    3594:	0e 94 ed 43 	call	0x87da	; 0x87da <__gesf2>
    3598:	18 16       	cp	r1, r24
    359a:	0c f4       	brge	.+2      	; 0x359e <_ZN3PID10InitializeEv+0x58>
    359c:	0c c0       	rjmp	.+24     	; 0x35b6 <_ZN3PID10InitializeEv+0x70>
   else if(ITerm < outMin) ITerm = outMin;
    359e:	8e a4       	ldd	r8, Y+46	; 0x2e
    35a0:	9f a4       	ldd	r9, Y+47	; 0x2f
    35a2:	a8 a8       	ldd	r10, Y+48	; 0x30
    35a4:	b9 a8       	ldd	r11, Y+49	; 0x31
    35a6:	a5 01       	movw	r20, r10
    35a8:	94 01       	movw	r18, r8
    35aa:	c7 01       	movw	r24, r14
    35ac:	b6 01       	movw	r22, r12
    35ae:	0e 94 ea 41 	call	0x83d4	; 0x83d4 <__cmpsf2>
    35b2:	87 ff       	sbrs	r24, 7
    35b4:	04 c0       	rjmp	.+8      	; 0x35be <_ZN3PID10InitializeEv+0x78>
    35b6:	8c a2       	std	Y+36, r8	; 0x24
    35b8:	9d a2       	std	Y+37, r9	; 0x25
    35ba:	ae a2       	std	Y+38, r10	; 0x26
    35bc:	bf a2       	std	Y+39, r11	; 0x27
}
    35be:	df 91       	pop	r29
    35c0:	cf 91       	pop	r28
    35c2:	ff 90       	pop	r15
    35c4:	ef 90       	pop	r14
    35c6:	df 90       	pop	r13
    35c8:	cf 90       	pop	r12
    35ca:	bf 90       	pop	r11
    35cc:	af 90       	pop	r10
    35ce:	9f 90       	pop	r9
    35d0:	8f 90       	pop	r8
    35d2:	08 95       	ret

000035d4 <_ZN3PID7SetModeEi>:
 * Allows the controller Mode to be set to manual (0) or Automatic (non-zero)
 * when the transition from manual to auto occurs, the controller is
 * automatically initialized
 ******************************************************************************/ 
void PID::SetMode(int Mode)
{
    35d4:	1f 93       	push	r17
    35d6:	cf 93       	push	r28
    35d8:	df 93       	push	r29
    35da:	ec 01       	movw	r28, r24
    bool newAuto = (Mode == AUTOMATIC);
    35dc:	11 e0       	ldi	r17, 0x01	; 1
    35de:	61 30       	cpi	r22, 0x01	; 1
    35e0:	71 05       	cpc	r23, r1
    35e2:	09 f0       	breq	.+2      	; 0x35e6 <_ZN3PID7SetModeEi+0x12>
    35e4:	10 e0       	ldi	r17, 0x00	; 0
    if(newAuto == !inAuto)
    35e6:	8e a9       	ldd	r24, Y+54	; 0x36
    35e8:	91 e0       	ldi	r25, 0x01	; 1
    35ea:	89 27       	eor	r24, r25
    35ec:	18 13       	cpse	r17, r24
    35ee:	03 c0       	rjmp	.+6      	; 0x35f6 <_ZN3PID7SetModeEi+0x22>
    {  /*we just went from manual to auto*/
        PID::Initialize();
    35f0:	ce 01       	movw	r24, r28
    35f2:	0e 94 a3 1a 	call	0x3546	; 0x3546 <_ZN3PID10InitializeEv>
    }
    inAuto = newAuto;
    35f6:	1e ab       	std	Y+54, r17	; 0x36
}
    35f8:	df 91       	pop	r29
    35fa:	cf 91       	pop	r28
    35fc:	1f 91       	pop	r17
    35fe:	08 95       	ret

00003600 <_ZN3PID22SetControllerDirectionEi>:
 * to +Input) or a REVERSE acting process(+Output leads to -Input.)  we need to
 * know which one, because otherwise we may increase the output when we should
 * be decreasing.  This is called from the constructor.
 ******************************************************************************/
void PID::SetControllerDirection(int Direction)
{
    3600:	0f 93       	push	r16
    3602:	1f 93       	push	r17
    3604:	cf 93       	push	r28
    3606:	df 93       	push	r29
    3608:	ec 01       	movw	r28, r24
    360a:	8b 01       	movw	r16, r22
   if(inAuto && Direction !=controllerDirection)
    360c:	8e a9       	ldd	r24, Y+54	; 0x36
    360e:	88 23       	and	r24, r24
    3610:	61 f1       	breq	.+88     	; 0x366a <_ZN3PID22SetControllerDirectionEi+0x6a>
    3612:	88 8d       	ldd	r24, Y+24	; 0x18
    3614:	99 8d       	ldd	r25, Y+25	; 0x19
    3616:	68 17       	cp	r22, r24
    3618:	79 07       	cpc	r23, r25
    361a:	39 f1       	breq	.+78     	; 0x366a <_ZN3PID22SetControllerDirectionEi+0x6a>
   {
	  kp = (0 - kp);
    361c:	2c 85       	ldd	r18, Y+12	; 0x0c
    361e:	3d 85       	ldd	r19, Y+13	; 0x0d
    3620:	4e 85       	ldd	r20, Y+14	; 0x0e
    3622:	5f 85       	ldd	r21, Y+15	; 0x0f
    3624:	60 e0       	ldi	r22, 0x00	; 0
    3626:	70 e0       	ldi	r23, 0x00	; 0
    3628:	cb 01       	movw	r24, r22
    362a:	0e 94 23 41 	call	0x8246	; 0x8246 <__subsf3>
    362e:	6c 87       	std	Y+12, r22	; 0x0c
    3630:	7d 87       	std	Y+13, r23	; 0x0d
    3632:	8e 87       	std	Y+14, r24	; 0x0e
    3634:	9f 87       	std	Y+15, r25	; 0x0f
      ki = (0 - ki);
    3636:	28 89       	ldd	r18, Y+16	; 0x10
    3638:	39 89       	ldd	r19, Y+17	; 0x11
    363a:	4a 89       	ldd	r20, Y+18	; 0x12
    363c:	5b 89       	ldd	r21, Y+19	; 0x13
    363e:	60 e0       	ldi	r22, 0x00	; 0
    3640:	70 e0       	ldi	r23, 0x00	; 0
    3642:	cb 01       	movw	r24, r22
    3644:	0e 94 23 41 	call	0x8246	; 0x8246 <__subsf3>
    3648:	68 8b       	std	Y+16, r22	; 0x10
    364a:	79 8b       	std	Y+17, r23	; 0x11
    364c:	8a 8b       	std	Y+18, r24	; 0x12
    364e:	9b 8b       	std	Y+19, r25	; 0x13
      kd = (0 - kd);
    3650:	2c 89       	ldd	r18, Y+20	; 0x14
    3652:	3d 89       	ldd	r19, Y+21	; 0x15
    3654:	4e 89       	ldd	r20, Y+22	; 0x16
    3656:	5f 89       	ldd	r21, Y+23	; 0x17
    3658:	60 e0       	ldi	r22, 0x00	; 0
    365a:	70 e0       	ldi	r23, 0x00	; 0
    365c:	cb 01       	movw	r24, r22
    365e:	0e 94 23 41 	call	0x8246	; 0x8246 <__subsf3>
    3662:	6c 8b       	std	Y+20, r22	; 0x14
    3664:	7d 8b       	std	Y+21, r23	; 0x15
    3666:	8e 8b       	std	Y+22, r24	; 0x16
    3668:	9f 8b       	std	Y+23, r25	; 0x17
   }   
   controllerDirection = Direction;
    366a:	19 8f       	std	Y+25, r17	; 0x19
    366c:	08 8f       	std	Y+24, r16	; 0x18
}
    366e:	df 91       	pop	r29
    3670:	cf 91       	pop	r28
    3672:	1f 91       	pop	r17
    3674:	0f 91       	pop	r16
    3676:	08 95       	ret

00003678 <_ZN3PIDC1EPdS0_S0_dddi>:

/*Constructor (...)*********************************************************
 *    The parameters specified here are those for which we can't set up
 *    reliable defaults, so we need to have the user set them.
 ***************************************************************************/
PID::PID(double* Input, double* Output, double* Setpoint,
    3678:	2f 92       	push	r2
    367a:	3f 92       	push	r3
    367c:	4f 92       	push	r4
    367e:	5f 92       	push	r5
    3680:	6f 92       	push	r6
    3682:	7f 92       	push	r7
    3684:	8f 92       	push	r8
    3686:	9f 92       	push	r9
    3688:	af 92       	push	r10
    368a:	bf 92       	push	r11
    368c:	cf 92       	push	r12
    368e:	df 92       	push	r13
    3690:	ef 92       	push	r14
    3692:	ff 92       	push	r15
    3694:	0f 93       	push	r16
    3696:	1f 93       	push	r17
    3698:	cf 93       	push	r28
    369a:	df 93       	push	r29
    369c:	00 d0       	rcall	.+0      	; 0x369e <_ZN3PIDC1EPdS0_S0_dddi+0x26>
    369e:	00 d0       	rcall	.+0      	; 0x36a0 <_ZN3PIDC1EPdS0_S0_dddi+0x28>
    36a0:	cd b7       	in	r28, 0x3d	; 61
    36a2:	de b7       	in	r29, 0x3e	; 62
    36a4:	1c 01       	movw	r2, r24
    36a6:	7a 83       	std	Y+2, r23	; 0x02
    36a8:	69 83       	std	Y+1, r22	; 0x01
    36aa:	5c 83       	std	Y+4, r21	; 0x04
    36ac:	4b 83       	std	Y+3, r20	; 0x03
    36ae:	3e 83       	std	Y+6, r19	; 0x06
    36b0:	2d 83       	std	Y+5, r18	; 0x05
    36b2:	27 01       	movw	r4, r14
    36b4:	38 01       	movw	r6, r16
    36b6:	45 01       	movw	r8, r10
    36b8:	56 01       	movw	r10, r12
        double Kp, double Ki, double Kd, int ControllerDirection)
{
	PID::SetOutputLimits(0, 255);				//default output limit corresponds to 
    36ba:	00 e0       	ldi	r16, 0x00	; 0
    36bc:	10 e0       	ldi	r17, 0x00	; 0
    36be:	2f e7       	ldi	r18, 0x7F	; 127
    36c0:	33 e4       	ldi	r19, 0x43	; 67
    36c2:	40 e0       	ldi	r20, 0x00	; 0
    36c4:	50 e0       	ldi	r21, 0x00	; 0
    36c6:	ba 01       	movw	r22, r20
    36c8:	0e 94 26 1a 	call	0x344c	; 0x344c <_ZN3PID15SetOutputLimitsEdd>
												//the arduino pwm limits

    SampleTime = 100;							//default Controller Sample Time is 0.1 seconds
    36cc:	84 e6       	ldi	r24, 0x64	; 100
    36ce:	90 e0       	ldi	r25, 0x00	; 0
    36d0:	f1 01       	movw	r30, r2
    36d2:	95 a7       	std	Z+45, r25	; 0x2d
    36d4:	84 a7       	std	Z+44, r24	; 0x2c

    PID::SetControllerDirection(ControllerDirection);
    36d6:	68 a1       	ldd	r22, Y+32	; 0x20
    36d8:	79 a1       	ldd	r23, Y+33	; 0x21
    36da:	c1 01       	movw	r24, r2
    36dc:	0e 94 00 1b 	call	0x3600	; 0x3600 <_ZN3PID22SetControllerDirectionEi>
    PID::SetTunings(Kp, Ki, Kd);
    36e0:	cc 8c       	ldd	r12, Y+28	; 0x1c
    36e2:	dd 8c       	ldd	r13, Y+29	; 0x1d
    36e4:	ee 8c       	ldd	r14, Y+30	; 0x1e
    36e6:	ff 8c       	ldd	r15, Y+31	; 0x1f
    36e8:	95 01       	movw	r18, r10
    36ea:	84 01       	movw	r16, r8
    36ec:	b3 01       	movw	r22, r6
    36ee:	a2 01       	movw	r20, r4
    36f0:	c1 01       	movw	r24, r2
    36f2:	0e 94 18 19 	call	0x3230	; 0x3230 <_ZN3PID10SetTuningsEddd>

    lastTime = millis()-SampleTime;				
    36f6:	0e 94 e7 15 	call	0x2bce	; 0x2bce <millis>
    36fa:	f1 01       	movw	r30, r2
    36fc:	84 a4       	ldd	r8, Z+44	; 0x2c
    36fe:	95 a4       	ldd	r9, Z+45	; 0x2d
    3700:	aa 24       	eor	r10, r10
    3702:	97 fc       	sbrc	r9, 7
    3704:	a0 94       	com	r10
    3706:	ba 2c       	mov	r11, r10
    3708:	68 19       	sub	r22, r8
    370a:	79 09       	sbc	r23, r9
    370c:	8a 09       	sbc	r24, r10
    370e:	9b 09       	sbc	r25, r11
    3710:	60 a3       	std	Z+32, r22	; 0x20
    3712:	71 a3       	std	Z+33, r23	; 0x21
    3714:	82 a3       	std	Z+34, r24	; 0x22
    3716:	93 a3       	std	Z+35, r25	; 0x23
    inAuto = false;
    3718:	16 aa       	std	Z+54, r1	; 0x36
    myOutput = Output;
    371a:	8b 81       	ldd	r24, Y+3	; 0x03
    371c:	9c 81       	ldd	r25, Y+4	; 0x04
    371e:	95 8f       	std	Z+29, r25	; 0x1d
    3720:	84 8f       	std	Z+28, r24	; 0x1c
    myInput = Input;
    3722:	89 81       	ldd	r24, Y+1	; 0x01
    3724:	9a 81       	ldd	r25, Y+2	; 0x02
    3726:	93 8f       	std	Z+27, r25	; 0x1b
    3728:	82 8f       	std	Z+26, r24	; 0x1a
    mySetpoint = Setpoint;
    372a:	8d 81       	ldd	r24, Y+5	; 0x05
    372c:	9e 81       	ldd	r25, Y+6	; 0x06
    372e:	97 8f       	std	Z+31, r25	; 0x1f
    3730:	86 8f       	std	Z+30, r24	; 0x1e
		
}
    3732:	26 96       	adiw	r28, 0x06	; 6
    3734:	0f b6       	in	r0, 0x3f	; 63
    3736:	f8 94       	cli
    3738:	de bf       	out	0x3e, r29	; 62
    373a:	0f be       	out	0x3f, r0	; 63
    373c:	cd bf       	out	0x3d, r28	; 61
    373e:	df 91       	pop	r29
    3740:	cf 91       	pop	r28
    3742:	1f 91       	pop	r17
    3744:	0f 91       	pop	r16
    3746:	ff 90       	pop	r15
    3748:	ef 90       	pop	r14
    374a:	df 90       	pop	r13
    374c:	cf 90       	pop	r12
    374e:	bf 90       	pop	r11
    3750:	af 90       	pop	r10
    3752:	9f 90       	pop	r9
    3754:	8f 90       	pop	r8
    3756:	7f 90       	pop	r7
    3758:	6f 90       	pop	r6
    375a:	5f 90       	pop	r5
    375c:	4f 90       	pop	r4
    375e:	3f 90       	pop	r3
    3760:	2f 90       	pop	r2
    3762:	08 95       	ret

00003764 <_ZN4NMEAC1Ei>:

//
// constructor method
//

NMEA::NMEA(int connect)
    3764:	0f 93       	push	r16
    3766:	1f 93       	push	r17
    3768:	cf 93       	push	r28
    376a:	df 93       	push	r29
    376c:	fc 01       	movw	r30, r24
{
	// private properties
	_gprmc_only = connect;
    376e:	71 83       	std	Z+1, r23	; 0x01
    3770:	60 83       	st	Z, r22
	_gprmc_utc = 0.0;
    3772:	12 82       	std	Z+2, r1	; 0x02
    3774:	13 82       	std	Z+3, r1	; 0x03
    3776:	14 82       	std	Z+4, r1	; 0x04
    3778:	15 82       	std	Z+5, r1	; 0x05
	_gprmc_status = 'V';
    377a:	86 e5       	ldi	r24, 0x56	; 86
    377c:	86 83       	std	Z+6, r24	; 0x06
	_gprmc_lat = 0.0;
    377e:	17 82       	std	Z+7, r1	; 0x07
    3780:	10 86       	std	Z+8, r1	; 0x08
    3782:	11 86       	std	Z+9, r1	; 0x09
    3784:	12 86       	std	Z+10, r1	; 0x0a
	_gprmc_long = 0.0;
    3786:	13 86       	std	Z+11, r1	; 0x0b
    3788:	14 86       	std	Z+12, r1	; 0x0c
    378a:	15 86       	std	Z+13, r1	; 0x0d
    378c:	16 86       	std	Z+14, r1	; 0x0e
	_gprmc_speed = 0.0;
    378e:	17 86       	std	Z+15, r1	; 0x0f
    3790:	10 8a       	std	Z+16, r1	; 0x10
    3792:	11 8a       	std	Z+17, r1	; 0x11
    3794:	12 8a       	std	Z+18, r1	; 0x12
	_gprmc_angle = 0.0;
    3796:	13 8a       	std	Z+19, r1	; 0x13
    3798:	14 8a       	std	Z+20, r1	; 0x14
    379a:	15 8a       	std	Z+21, r1	; 0x15
    379c:	16 8a       	std	Z+22, r1	; 0x16
	_terms = 0;
    379e:	df 01       	movw	r26, r30
    37a0:	a7 54       	subi	r26, 0x47	; 71
    37a2:	bf 4f       	sbci	r27, 0xFF	; 255
    37a4:	1d 92       	st	X+, r1
    37a6:	1c 92       	st	X, r1
	n = 0;
    37a8:	df 01       	movw	r26, r30
    37aa:	a5 5a       	subi	r26, 0xA5	; 165
    37ac:	be 4f       	sbci	r27, 0xFE	; 254
    37ae:	1d 92       	st	X+, r1
    37b0:	1c 92       	st	X, r1
	_state = 0;
    37b2:	df 01       	movw	r26, r30
    37b4:	a1 5a       	subi	r26, 0xA1	; 161
    37b6:	be 4f       	sbci	r27, 0xFE	; 254
    37b8:	1d 92       	st	X+, r1
    37ba:	1c 92       	st	X, r1
	_parity = 0;
    37bc:	df 01       	movw	r26, r30
    37be:	af 59       	subi	r26, 0x9F	; 159
    37c0:	be 4f       	sbci	r27, 0xFE	; 254
    37c2:	1d 92       	st	X+, r1
    37c4:	1c 92       	st	X, r1
	_nt = 0;
    37c6:	df 01       	movw	r26, r30
    37c8:	ad 59       	subi	r26, 0x9D	; 157
    37ca:	be 4f       	sbci	r27, 0xFE	; 254
    37cc:	1d 92       	st	X+, r1
    37ce:	1c 92       	st	X, r1

	f_sentence[0] = 0;
    37d0:	17 8a       	std	Z+23, r1	; 0x17
	f_terms = 0;
    37d2:	df 01       	movw	r26, r30
    37d4:	a9 54       	subi	r26, 0x49	; 73
    37d6:	bf 4f       	sbci	r27, 0xFF	; 255
    37d8:	1d 92       	st	X+, r1
    37da:	1c 92       	st	X, r1
    37dc:	ef 01       	movw	r28, r30
    37de:	0e e1       	ldi	r16, 0x1E	; 30
    37e0:	10 e0       	ldi	r17, 0x00	; 0
	// allocate memory for individual terms of sentence
  for (int t=0; t<30; t++) {
    _term[t] = (char*) malloc (15 * sizeof(char));
    37e2:	8f e0       	ldi	r24, 0x0F	; 15
    37e4:	90 e0       	ldi	r25, 0x00	; 0
    37e6:	0e 94 87 13 	call	0x270e	; 0x270e <malloc>

//
// constructor method
//

NMEA::NMEA(int connect)
    37ea:	fe 01       	movw	r30, r28
    37ec:	e1 5e       	subi	r30, 0xE1	; 225
    37ee:	fe 4f       	sbci	r31, 0xFE	; 254

	f_sentence[0] = 0;
	f_terms = 0;
	// allocate memory for individual terms of sentence
  for (int t=0; t<30; t++) {
    _term[t] = (char*) malloc (15 * sizeof(char));
    37f0:	80 83       	st	Z, r24
    37f2:	91 83       	std	Z+1, r25	; 0x01
    f_term[t] = (char*) malloc (15 * sizeof(char));
    37f4:	8f e0       	ldi	r24, 0x0F	; 15
    37f6:	90 e0       	ldi	r25, 0x00	; 0
    37f8:	0e 94 87 13 	call	0x270e	; 0x270e <malloc>
    37fc:	fc 01       	movw	r30, r24

//
// constructor method
//

NMEA::NMEA(int connect)
    37fe:	de 01       	movw	r26, r28
    3800:	a5 58       	subi	r26, 0x85	; 133
    3802:	bf 4f       	sbci	r27, 0xFF	; 255
	f_sentence[0] = 0;
	f_terms = 0;
	// allocate memory for individual terms of sentence
  for (int t=0; t<30; t++) {
    _term[t] = (char*) malloc (15 * sizeof(char));
    f_term[t] = (char*) malloc (15 * sizeof(char));
    3804:	8d 93       	st	X+, r24
    3806:	9c 93       	st	X, r25
    (f_term[t])[0] = 0;
    3808:	10 82       	st	Z, r1
    380a:	01 50       	subi	r16, 0x01	; 1
    380c:	11 09       	sbc	r17, r1
    380e:	22 96       	adiw	r28, 0x02	; 2
	_nt = 0;

	f_sentence[0] = 0;
	f_terms = 0;
	// allocate memory for individual terms of sentence
  for (int t=0; t<30; t++) {
    3810:	01 15       	cp	r16, r1
    3812:	11 05       	cpc	r17, r1
    3814:	31 f7       	brne	.-52     	; 0x37e2 <_ZN4NMEAC1Ei+0x7e>
    _term[t] = (char*) malloc (15 * sizeof(char));
    f_term[t] = (char*) malloc (15 * sizeof(char));
    (f_term[t])[0] = 0;
  }
}
    3816:	df 91       	pop	r29
    3818:	cf 91       	pop	r28
    381a:	1f 91       	pop	r17
    381c:	0f 91       	pop	r16
    381e:	08 95       	ret

00003820 <_ZN4NMEA9gprmc_utcEv>:
    break;
  }
  return 0;
}

float NMEA::gprmc_utc() {
    3820:	fc 01       	movw	r30, r24
	// returns decimal value of UTC term of last-known GPRMC sentence
	return _gprmc_utc;
}
    3822:	52 81       	ldd	r21, Z+2	; 0x02
    3824:	43 81       	ldd	r20, Z+3	; 0x03
    3826:	34 81       	ldd	r19, Z+4	; 0x04
    3828:	25 81       	ldd	r18, Z+5	; 0x05
    382a:	65 2f       	mov	r22, r21
    382c:	74 2f       	mov	r23, r20
    382e:	83 2f       	mov	r24, r19
    3830:	92 2f       	mov	r25, r18
    3832:	08 95       	ret

00003834 <_ZN4NMEA12gprmc_statusEv>:

char NMEA::gprmc_status() {
	// returns status character of last-known GPRMC sentence ('A' or 'V')
	return _gprmc_status;
}
    3834:	fc 01       	movw	r30, r24
    3836:	86 81       	ldd	r24, Z+6	; 0x06
    3838:	08 95       	ret

0000383a <_ZN4NMEA14gprmc_latitudeEv>:

float NMEA::gprmc_latitude() {
    383a:	fc 01       	movw	r30, r24
	// returns signed degree-decimal latitude value of last-known GPRMC position
	return _gprmc_lat;
}
    383c:	57 81       	ldd	r21, Z+7	; 0x07
    383e:	40 85       	ldd	r20, Z+8	; 0x08
    3840:	31 85       	ldd	r19, Z+9	; 0x09
    3842:	22 85       	ldd	r18, Z+10	; 0x0a
    3844:	65 2f       	mov	r22, r21
    3846:	74 2f       	mov	r23, r20
    3848:	83 2f       	mov	r24, r19
    384a:	92 2f       	mov	r25, r18
    384c:	08 95       	ret

0000384e <_ZN4NMEA15gprmc_longitudeEv>:

float NMEA::gprmc_longitude() {
    384e:	fc 01       	movw	r30, r24
	// returns signed degree-decimal longitude value of last-known GPRMC position
	return _gprmc_long;
}
    3850:	53 85       	ldd	r21, Z+11	; 0x0b
    3852:	44 85       	ldd	r20, Z+12	; 0x0c
    3854:	35 85       	ldd	r19, Z+13	; 0x0d
    3856:	26 85       	ldd	r18, Z+14	; 0x0e
    3858:	65 2f       	mov	r22, r21
    385a:	74 2f       	mov	r23, r20
    385c:	83 2f       	mov	r24, r19
    385e:	92 2f       	mov	r25, r18
    3860:	08 95       	ret

00003862 <_ZN4NMEA11gprmc_speedEf>:

float NMEA::gprmc_speed(float unit) {
    3862:	cf 92       	push	r12
    3864:	df 92       	push	r13
    3866:	ef 92       	push	r14
    3868:	ff 92       	push	r15
    386a:	6a 01       	movw	r12, r20
    386c:	7b 01       	movw	r14, r22
	// returns speed-over-ground from last-known GPRMC sentence
	return (_gprmc_speed * unit);
    386e:	fc 01       	movw	r30, r24
    3870:	27 85       	ldd	r18, Z+15	; 0x0f
    3872:	30 89       	ldd	r19, Z+16	; 0x10
    3874:	41 89       	ldd	r20, Z+17	; 0x11
    3876:	52 89       	ldd	r21, Z+18	; 0x12
    3878:	c7 01       	movw	r24, r14
    387a:	b6 01       	movw	r22, r12
    387c:	0e 94 f8 43 	call	0x87f0	; 0x87f0 <__mulsf3>
}
    3880:	ff 90       	pop	r15
    3882:	ef 90       	pop	r14
    3884:	df 90       	pop	r13
    3886:	cf 90       	pop	r12
    3888:	08 95       	ret

0000388a <_ZN4NMEA12gprmc_courseEv>:

float NMEA::gprmc_course() {
    388a:	fc 01       	movw	r30, r24
	// returns decimal value of track-angle-made-good term in last-known GPRMC sentence - 0-360 deg
	return _gprmc_angle;
}
    388c:	53 89       	ldd	r21, Z+19	; 0x13
    388e:	44 89       	ldd	r20, Z+20	; 0x14
    3890:	35 89       	ldd	r19, Z+21	; 0x15
    3892:	26 89       	ldd	r18, Z+22	; 0x16
    3894:	65 2f       	mov	r22, r21
    3896:	74 2f       	mov	r23, r20
    3898:	83 2f       	mov	r24, r19
    389a:	92 2f       	mov	r25, r18
    389c:	08 95       	ret

0000389e <_ZN4NMEA8sentenceEv>:
//	return rc;
//}

char* NMEA::sentence() {
	// returns last received full sentence as zero terminated string
  return f_sentence;
    389e:	9c 01       	movw	r18, r24
    38a0:	29 5e       	subi	r18, 0xE9	; 233
    38a2:	3f 4f       	sbci	r19, 0xFF	; 255
}
    38a4:	c9 01       	movw	r24, r18
    38a6:	08 95       	ret

000038a8 <_ZN4NMEA4termEi>:
  return f_terms;
}

char* NMEA::term(int t) {
	// returns term t of last received full sentence as zero terminated string
  return f_term[t];
    38a8:	66 0f       	add	r22, r22
    38aa:	77 1f       	adc	r23, r23
    38ac:	68 0f       	add	r22, r24
    38ae:	79 1f       	adc	r23, r25
    38b0:	fb 01       	movw	r30, r22
    38b2:	e5 58       	subi	r30, 0x85	; 133
    38b4:	ff 4f       	sbci	r31, 0xFF	; 255
}
    38b6:	80 81       	ld	r24, Z
    38b8:	91 81       	ldd	r25, Z+1	; 0x01
    38ba:	08 95       	ret

000038bc <_ZN4NMEA8_decimalEPc>:
  else {
    return int(a)-48;
  }
}

float NMEA::_decimal(char* s) {
    38bc:	4f 92       	push	r4
    38be:	5f 92       	push	r5
    38c0:	6f 92       	push	r6
    38c2:	7f 92       	push	r7
    38c4:	8f 92       	push	r8
    38c6:	9f 92       	push	r9
    38c8:	af 92       	push	r10
    38ca:	bf 92       	push	r11
    38cc:	cf 92       	push	r12
    38ce:	df 92       	push	r13
    38d0:	ef 92       	push	r14
    38d2:	ff 92       	push	r15
    38d4:	0f 93       	push	r16
    38d6:	1f 93       	push	r17
    38d8:	cf 93       	push	r28
    38da:	df 93       	push	r29
  float rr = 0.0;
  float rb = 0.1;
  boolean dec = false;
  int i = 0;

  if ((s[i] == '-') || (s[i] == '+')) { i++; }
    38dc:	db 01       	movw	r26, r22
    38de:	cc 91       	ld	r28, X
    38e0:	81 e0       	ldi	r24, 0x01	; 1
    38e2:	90 e0       	ldi	r25, 0x00	; 0
    38e4:	cd 32       	cpi	r28, 0x2D	; 45
    38e6:	21 f0       	breq	.+8      	; 0x38f0 <_ZN4NMEA8_decimalEPc+0x34>
    38e8:	cb 32       	cpi	r28, 0x2B	; 43
    38ea:	11 f0       	breq	.+4      	; 0x38f0 <_ZN4NMEA8_decimalEPc+0x34>
    38ec:	80 e0       	ldi	r24, 0x00	; 0
    38ee:	90 e0       	ldi	r25, 0x00	; 0
  else {
    return int(a)-48;
  }
}

float NMEA::_decimal(char* s) {
    38f0:	2b 01       	movw	r4, r22
    38f2:	48 0e       	add	r4, r24
    38f4:	59 1e       	adc	r5, r25
    38f6:	61 2c       	mov	r6, r1
    38f8:	3d ec       	ldi	r19, 0xCD	; 205
    38fa:	a3 2e       	mov	r10, r19
    38fc:	4c ec       	ldi	r20, 0xCC	; 204
    38fe:	94 2e       	mov	r9, r20
    3900:	5c ec       	ldi	r21, 0xCC	; 204
    3902:	85 2e       	mov	r8, r21
    3904:	6d e3       	ldi	r22, 0x3D	; 61
    3906:	76 2e       	mov	r7, r22
    3908:	b1 2c       	mov	r11, r1
    390a:	00 e0       	ldi	r16, 0x00	; 0
    390c:	10 e0       	ldi	r17, 0x00	; 0
    390e:	d0 e0       	ldi	r29, 0x00	; 0
    3910:	c1 2c       	mov	r12, r1
    3912:	d1 2c       	mov	r13, r1
    3914:	76 01       	movw	r14, r12
    3916:	4a c0       	rjmp	.+148    	; 0x39ac <_ZN4NMEA8_decimalEPc+0xf0>
  boolean dec = false;
  int i = 0;

  if ((s[i] == '-') || (s[i] == '+')) { i++; }
  while (s[i] != 0) {
    if (s[i] == '.') {
    3918:	ee 32       	cpi	r30, 0x2E	; 46
    391a:	09 f4       	brne	.+2      	; 0x391e <_ZN4NMEA8_decimalEPc+0x62>
    391c:	45 c0       	rjmp	.+138    	; 0x39a8 <_ZN4NMEA8_decimalEPc+0xec>
    391e:	ff 27       	eor	r31, r31
    3920:	e7 fd       	sbrc	r30, 7
    3922:	f0 95       	com	r31
      dec = true;
    }
    else{
      if (!dec) {
    3924:	61 10       	cpse	r6, r1
    3926:	15 c0       	rjmp	.+42     	; 0x3952 <_ZN4NMEA8_decimalEPc+0x96>
        rl = (10 * rl) + (s[i] - 48);
    3928:	aa e0       	ldi	r26, 0x0A	; 10
    392a:	b0 e0       	ldi	r27, 0x00	; 0
    392c:	a7 01       	movw	r20, r14
    392e:	96 01       	movw	r18, r12
    3930:	0e 94 c2 44 	call	0x8984	; 0x8984 <__muluhisi3>
    3934:	6b 01       	movw	r12, r22
    3936:	7c 01       	movw	r14, r24
    3938:	bf 01       	movw	r22, r30
    393a:	60 53       	subi	r22, 0x30	; 48
    393c:	71 09       	sbc	r23, r1
    393e:	cb 01       	movw	r24, r22
    3940:	aa 27       	eor	r26, r26
    3942:	97 fd       	sbrc	r25, 7
    3944:	a0 95       	com	r26
    3946:	ba 2f       	mov	r27, r26
    3948:	c8 0e       	add	r12, r24
    394a:	d9 1e       	adc	r13, r25
    394c:	ea 1e       	adc	r14, r26
    394e:	fb 1e       	adc	r15, r27
    3950:	2d c0       	rjmp	.+90     	; 0x39ac <_ZN4NMEA8_decimalEPc+0xf0>
      }
      else {
        rr += rb * (float)(s[i] - 48);
    3952:	bf 01       	movw	r22, r30
    3954:	60 53       	subi	r22, 0x30	; 48
    3956:	71 09       	sbc	r23, r1
    3958:	88 27       	eor	r24, r24
    395a:	77 fd       	sbrc	r23, 7
    395c:	80 95       	com	r24
    395e:	98 2f       	mov	r25, r24
    3960:	0e 94 8c 42 	call	0x8518	; 0x8518 <__floatsisf>
    3964:	9b 01       	movw	r18, r22
    3966:	ac 01       	movw	r20, r24
    3968:	6a 2d       	mov	r22, r10
    396a:	79 2d       	mov	r23, r9
    396c:	88 2d       	mov	r24, r8
    396e:	97 2d       	mov	r25, r7
    3970:	0e 94 f8 43 	call	0x87f0	; 0x87f0 <__mulsf3>
    3974:	9b 01       	movw	r18, r22
    3976:	ac 01       	movw	r20, r24
    3978:	6b 2d       	mov	r22, r11
    397a:	70 2f       	mov	r23, r16
    397c:	81 2f       	mov	r24, r17
    397e:	9d 2f       	mov	r25, r29
    3980:	0e 94 24 41 	call	0x8248	; 0x8248 <__addsf3>
    3984:	b6 2e       	mov	r11, r22
    3986:	07 2f       	mov	r16, r23
    3988:	18 2f       	mov	r17, r24
    398a:	d9 2f       	mov	r29, r25
        rb /= 10.0;
    398c:	20 e0       	ldi	r18, 0x00	; 0
    398e:	30 e0       	ldi	r19, 0x00	; 0
    3990:	40 e2       	ldi	r20, 0x20	; 32
    3992:	51 e4       	ldi	r21, 0x41	; 65
    3994:	6a 2d       	mov	r22, r10
    3996:	79 2d       	mov	r23, r9
    3998:	88 2d       	mov	r24, r8
    399a:	97 2d       	mov	r25, r7
    399c:	0e 94 f1 41 	call	0x83e2	; 0x83e2 <__divsf3>
    39a0:	a6 2e       	mov	r10, r22
    39a2:	97 2e       	mov	r9, r23
    39a4:	88 2e       	mov	r8, r24
    39a6:	79 2e       	mov	r7, r25
  int i = 0;

  if ((s[i] == '-') || (s[i] == '+')) { i++; }
  while (s[i] != 0) {
    if (s[i] == '.') {
      dec = true;
    39a8:	66 24       	eor	r6, r6
    39aa:	63 94       	inc	r6
  float rb = 0.1;
  boolean dec = false;
  int i = 0;

  if ((s[i] == '-') || (s[i] == '+')) { i++; }
  while (s[i] != 0) {
    39ac:	d2 01       	movw	r26, r4
    39ae:	ed 91       	ld	r30, X+
    39b0:	2d 01       	movw	r4, r26
    39b2:	e1 11       	cpse	r30, r1
    39b4:	b1 cf       	rjmp	.-158    	; 0x3918 <_ZN4NMEA8_decimalEPc+0x5c>
        rb /= 10.0;
      }
    }
    i++;
  }
  rr += (float)rl;
    39b6:	c7 01       	movw	r24, r14
    39b8:	b6 01       	movw	r22, r12
    39ba:	0e 94 8c 42 	call	0x8518	; 0x8518 <__floatsisf>
    39be:	9b 01       	movw	r18, r22
    39c0:	ac 01       	movw	r20, r24
    39c2:	6b 2d       	mov	r22, r11
    39c4:	70 2f       	mov	r23, r16
    39c6:	81 2f       	mov	r24, r17
    39c8:	9d 2f       	mov	r25, r29
    39ca:	0e 94 24 41 	call	0x8248	; 0x8248 <__addsf3>
  if (s[0] == '-') {
    39ce:	cd 32       	cpi	r28, 0x2D	; 45
    39d0:	49 f4       	brne	.+18     	; 0x39e4 <_ZN4NMEA8_decimalEPc+0x128>
    rr = 0.0 - rr;
    39d2:	26 2f       	mov	r18, r22
    39d4:	37 2f       	mov	r19, r23
    39d6:	48 2f       	mov	r20, r24
    39d8:	59 2f       	mov	r21, r25
    39da:	60 e0       	ldi	r22, 0x00	; 0
    39dc:	70 e0       	ldi	r23, 0x00	; 0
    39de:	cb 01       	movw	r24, r22
    39e0:	0e 94 23 41 	call	0x8246	; 0x8246 <__subsf3>
  }
  return rr;
}
    39e4:	df 91       	pop	r29
    39e6:	cf 91       	pop	r28
    39e8:	1f 91       	pop	r17
    39ea:	0f 91       	pop	r16
    39ec:	ff 90       	pop	r15
    39ee:	ef 90       	pop	r14
    39f0:	df 90       	pop	r13
    39f2:	cf 90       	pop	r12
    39f4:	bf 90       	pop	r11
    39f6:	af 90       	pop	r10
    39f8:	9f 90       	pop	r9
    39fa:	8f 90       	pop	r8
    39fc:	7f 90       	pop	r7
    39fe:	6f 90       	pop	r6
    3a00:	5f 90       	pop	r5
    3a02:	4f 90       	pop	r4
    3a04:	08 95       	ret

00003a06 <_ZN4NMEA6decodeEc>:

//
// public methods
//

int NMEA::decode(char c) {
    3a06:	8f 92       	push	r8
    3a08:	9f 92       	push	r9
    3a0a:	af 92       	push	r10
    3a0c:	bf 92       	push	r11
    3a0e:	ef 92       	push	r14
    3a10:	ff 92       	push	r15
    3a12:	0f 93       	push	r16
    3a14:	1f 93       	push	r17
    3a16:	cf 93       	push	r28
    3a18:	df 93       	push	r29
    3a1a:	ec 01       	movw	r28, r24
  // avoid runaway sentences (>99 chars or >29 terms) and terms (>14 chars)
  if ((n >= 100) || (_terms >= 30) || (_nt >= 15)) { _state = 0; }
    3a1c:	fc 01       	movw	r30, r24
    3a1e:	e5 5a       	subi	r30, 0xA5	; 165
    3a20:	fe 4f       	sbci	r31, 0xFE	; 254
    3a22:	80 81       	ld	r24, Z
    3a24:	91 81       	ldd	r25, Z+1	; 0x01
    3a26:	84 36       	cpi	r24, 0x64	; 100
    3a28:	91 05       	cpc	r25, r1
    3a2a:	84 f4       	brge	.+32     	; 0x3a4c <_ZN4NMEA6decodeEc+0x46>
    3a2c:	fe 01       	movw	r30, r28
    3a2e:	e7 54       	subi	r30, 0x47	; 71
    3a30:	ff 4f       	sbci	r31, 0xFF	; 255
    3a32:	20 81       	ld	r18, Z
    3a34:	31 81       	ldd	r19, Z+1	; 0x01
    3a36:	2e 31       	cpi	r18, 0x1E	; 30
    3a38:	31 05       	cpc	r19, r1
    3a3a:	44 f4       	brge	.+16     	; 0x3a4c <_ZN4NMEA6decodeEc+0x46>
    3a3c:	fe 01       	movw	r30, r28
    3a3e:	ed 59       	subi	r30, 0x9D	; 157
    3a40:	fe 4f       	sbci	r31, 0xFE	; 254
    3a42:	20 81       	ld	r18, Z
    3a44:	31 81       	ldd	r19, Z+1	; 0x01
    3a46:	2f 30       	cpi	r18, 0x0F	; 15
    3a48:	31 05       	cpc	r19, r1
    3a4a:	2c f0       	brlt	.+10     	; 0x3a56 <_ZN4NMEA6decodeEc+0x50>
    3a4c:	fe 01       	movw	r30, r28
    3a4e:	e1 5a       	subi	r30, 0xA1	; 161
    3a50:	fe 4f       	sbci	r31, 0xFE	; 254
    3a52:	11 82       	std	Z+1, r1	; 0x01
    3a54:	10 82       	st	Z, r1
    3a56:	8e 01       	movw	r16, r28
    3a58:	01 5a       	subi	r16, 0xA1	; 161
    3a5a:	1e 4f       	sbci	r17, 0xFE	; 254
  // LF and CR always reset parser
  if ((c == 0x0A) || (c == 0x0D)) { _state = 0; }
    3a5c:	6a 30       	cpi	r22, 0x0A	; 10
    3a5e:	11 f0       	breq	.+4      	; 0x3a64 <_ZN4NMEA6decodeEc+0x5e>
    3a60:	6d 30       	cpi	r22, 0x0D	; 13
    3a62:	19 f4       	brne	.+6      	; 0x3a6a <_ZN4NMEA6decodeEc+0x64>
    3a64:	d8 01       	movw	r26, r16
    3a66:	1d 92       	st	X+, r1
    3a68:	1c 92       	st	X, r1
  // '$' always starts a new sentence
  if (c == '$') {
    3a6a:	64 32       	cpi	r22, 0x24	; 36
    3a6c:	11 f5       	brne	.+68     	; 0x3ab2 <_ZN4NMEA6decodeEc+0xac>
    _gprmc_tag = 0;
    3a6e:	fe 01       	movw	r30, r28
    3a70:	e3 5a       	subi	r30, 0xA3	; 163
    3a72:	fe 4f       	sbci	r31, 0xFE	; 254
    3a74:	11 82       	std	Z+1, r1	; 0x01
    3a76:	10 82       	st	Z, r1
    _parity = 0;
    3a78:	fe 01       	movw	r30, r28
    3a7a:	ef 59       	subi	r30, 0x9F	; 159
    3a7c:	fe 4f       	sbci	r31, 0xFE	; 254
    3a7e:	11 82       	std	Z+1, r1	; 0x01
    3a80:	10 82       	st	Z, r1
    _terms = 0;
    3a82:	fe 01       	movw	r30, r28
    3a84:	e7 54       	subi	r30, 0x47	; 71
    3a86:	ff 4f       	sbci	r31, 0xFF	; 255
    3a88:	11 82       	std	Z+1, r1	; 0x01
    3a8a:	10 82       	st	Z, r1
    _nt = 0;
    3a8c:	fe 01       	movw	r30, r28
    3a8e:	ed 59       	subi	r30, 0x9D	; 157
    3a90:	fe 4f       	sbci	r31, 0xFE	; 254
    3a92:	11 82       	std	Z+1, r1	; 0x01
    3a94:	10 82       	st	Z, r1
    _sentence[0] = c;
    3a96:	fe 01       	movw	r30, r28
    3a98:	e5 54       	subi	r30, 0x45	; 69
    3a9a:	ff 4f       	sbci	r31, 0xFF	; 255
    3a9c:	60 83       	st	Z, r22
    n = 1;
    3a9e:	fe 01       	movw	r30, r28
    3aa0:	e5 5a       	subi	r30, 0xA5	; 165
    3aa2:	fe 4f       	sbci	r31, 0xFE	; 254
    3aa4:	81 e0       	ldi	r24, 0x01	; 1
    3aa6:	90 e0       	ldi	r25, 0x00	; 0
    3aa8:	91 83       	std	Z+1, r25	; 0x01
    3aaa:	80 83       	st	Z, r24
    _state = 1;
    3aac:	c1 5a       	subi	r28, 0xA1	; 161
    3aae:	de 4f       	sbci	r29, 0xFE	; 254
    3ab0:	e0 c0       	rjmp	.+448    	; 0x3c72 <_ZN4NMEA6decodeEc+0x26c>
    return 0;
  }
  // parse other chars according to parser state
  switch(_state) {
    3ab2:	f8 01       	movw	r30, r16
    3ab4:	20 81       	ld	r18, Z
    3ab6:	31 81       	ldd	r19, Z+1	; 0x01
    3ab8:	21 30       	cpi	r18, 0x01	; 1
    3aba:	31 05       	cpc	r19, r1
    3abc:	71 f0       	breq	.+28     	; 0x3ada <_ZN4NMEA6decodeEc+0xd4>
    3abe:	24 f4       	brge	.+8      	; 0x3ac8 <_ZN4NMEA6decodeEc+0xc2>
    3ac0:	23 2b       	or	r18, r19
    3ac2:	09 f4       	brne	.+2      	; 0x3ac6 <_ZN4NMEA6decodeEc+0xc0>
    3ac4:	8d c2       	rjmp	.+1306   	; 0x3fe0 <_ZN4NMEA6decodeEc+0x5da>
    3ac6:	88 c2       	rjmp	.+1296   	; 0x3fd8 <_ZN4NMEA6decodeEc+0x5d2>
    3ac8:	22 30       	cpi	r18, 0x02	; 2
    3aca:	31 05       	cpc	r19, r1
    3acc:	09 f4       	brne	.+2      	; 0x3ad0 <_ZN4NMEA6decodeEc+0xca>
    3ace:	8b c0       	rjmp	.+278    	; 0x3be6 <_ZN4NMEA6decodeEc+0x1e0>
    3ad0:	23 30       	cpi	r18, 0x03	; 3
    3ad2:	31 05       	cpc	r19, r1
    3ad4:	09 f0       	breq	.+2      	; 0x3ad8 <_ZN4NMEA6decodeEc+0xd2>
    3ad6:	80 c2       	rjmp	.+1280   	; 0x3fd8 <_ZN4NMEA6decodeEc+0x5d2>
    3ad8:	cf c0       	rjmp	.+414    	; 0x3c78 <_ZN4NMEA6decodeEc+0x272>
  case 0:
    // waiting for '$', do nothing
    break;
  case 1:
  	// decode chars after '$' and before '*' found
    if (n < 7) {
    3ada:	87 30       	cpi	r24, 0x07	; 7
    3adc:	91 05       	cpc	r25, r1
    3ade:	7c f4       	brge	.+30     	; 0x3afe <_ZN4NMEA6decodeEc+0xf8>
    	// see if first seven chars match "$GPRMC,"
    	if (c == _GPRMC_TERM[n]) { _gprmc_tag++; }
    3ae0:	fc 01       	movw	r30, r24
    3ae2:	e4 5f       	subi	r30, 0xF4	; 244
    3ae4:	fd 4f       	sbci	r31, 0xFD	; 253
    3ae6:	20 81       	ld	r18, Z
    3ae8:	62 13       	cpse	r22, r18
    3aea:	09 c0       	rjmp	.+18     	; 0x3afe <_ZN4NMEA6decodeEc+0xf8>
    3aec:	fe 01       	movw	r30, r28
    3aee:	e3 5a       	subi	r30, 0xA3	; 163
    3af0:	fe 4f       	sbci	r31, 0xFE	; 254
    3af2:	20 81       	ld	r18, Z
    3af4:	31 81       	ldd	r19, Z+1	; 0x01
    3af6:	2f 5f       	subi	r18, 0xFF	; 255
    3af8:	3f 4f       	sbci	r19, 0xFF	; 255
    3afa:	31 83       	std	Z+1, r19	; 0x01
    3afc:	20 83       	st	Z, r18
    }
    // add received char to sentence
    _sentence[n++] = c;
    3afe:	fe 01       	movw	r30, r28
    3b00:	e8 0f       	add	r30, r24
    3b02:	f9 1f       	adc	r31, r25
    3b04:	e5 54       	subi	r30, 0x45	; 69
    3b06:	ff 4f       	sbci	r31, 0xFF	; 255
    3b08:	60 83       	st	Z, r22
    3b0a:	fe 01       	movw	r30, r28
    3b0c:	e5 5a       	subi	r30, 0xA5	; 165
    3b0e:	fe 4f       	sbci	r31, 0xFE	; 254
    3b10:	01 96       	adiw	r24, 0x01	; 1
    3b12:	91 83       	std	Z+1, r25	; 0x01
    3b14:	80 83       	st	Z, r24
    3b16:	8e 01       	movw	r16, r28
    3b18:	07 54       	subi	r16, 0x47	; 71
    3b1a:	1f 4f       	sbci	r17, 0xFF	; 255
    3b1c:	fe 01       	movw	r30, r28
    3b1e:	ed 59       	subi	r30, 0x9D	; 157
    3b20:	fe 4f       	sbci	r31, 0xFE	; 254
    switch (c) {
    3b22:	6a 32       	cpi	r22, 0x2A	; 42
    3b24:	19 f1       	breq	.+70     	; 0x3b6c <_ZN4NMEA6decodeEc+0x166>
    3b26:	6c 32       	cpi	r22, 0x2C	; 44
    3b28:	e1 f5       	brne	.+120    	; 0x3ba2 <_ZN4NMEA6decodeEc+0x19c>
    case ',':
    	// ',' delimits the individual terms
      (_term[_terms++])[_nt] = 0;
    3b2a:	d8 01       	movw	r26, r16
    3b2c:	2d 91       	ld	r18, X+
    3b2e:	3c 91       	ld	r19, X
    3b30:	c9 01       	movw	r24, r18
    3b32:	88 0f       	add	r24, r24
    3b34:	99 1f       	adc	r25, r25
    3b36:	8c 0f       	add	r24, r28
    3b38:	9d 1f       	adc	r25, r29
    3b3a:	81 5e       	subi	r24, 0xE1	; 225
    3b3c:	9e 4f       	sbci	r25, 0xFE	; 254
    3b3e:	dc 01       	movw	r26, r24
    3b40:	8d 91       	ld	r24, X+
    3b42:	9c 91       	ld	r25, X
    3b44:	40 81       	ld	r20, Z
    3b46:	51 81       	ldd	r21, Z+1	; 0x01
    3b48:	84 0f       	add	r24, r20
    3b4a:	95 1f       	adc	r25, r21
    3b4c:	dc 01       	movw	r26, r24
    3b4e:	1c 92       	st	X, r1
    3b50:	2f 5f       	subi	r18, 0xFF	; 255
    3b52:	3f 4f       	sbci	r19, 0xFF	; 255
    3b54:	d8 01       	movw	r26, r16
    3b56:	2d 93       	st	X+, r18
    3b58:	3c 93       	st	X, r19
      _nt = 0;
    3b5a:	11 82       	std	Z+1, r1	; 0x01
    3b5c:	10 82       	st	Z, r1
      _parity = _parity ^ c;
    3b5e:	cf 59       	subi	r28, 0x9F	; 159
    3b60:	de 4f       	sbci	r29, 0xFE	; 254
    3b62:	88 81       	ld	r24, Y
    3b64:	99 81       	ldd	r25, Y+1	; 0x01
    3b66:	bc e2       	ldi	r27, 0x2C	; 44
    3b68:	8b 27       	eor	r24, r27
    3b6a:	83 c0       	rjmp	.+262    	; 0x3c72 <_ZN4NMEA6decodeEc+0x26c>
      break;
    case '*':
    	// '*' delimits term and precedes checksum term
      (_term[_terms++])[_nt] = 0;
    3b6c:	d8 01       	movw	r26, r16
    3b6e:	2d 91       	ld	r18, X+
    3b70:	3c 91       	ld	r19, X
    3b72:	c9 01       	movw	r24, r18
    3b74:	88 0f       	add	r24, r24
    3b76:	99 1f       	adc	r25, r25
    3b78:	8c 0f       	add	r24, r28
    3b7a:	9d 1f       	adc	r25, r29
    3b7c:	81 5e       	subi	r24, 0xE1	; 225
    3b7e:	9e 4f       	sbci	r25, 0xFE	; 254
    3b80:	dc 01       	movw	r26, r24
    3b82:	8d 91       	ld	r24, X+
    3b84:	9c 91       	ld	r25, X
    3b86:	40 81       	ld	r20, Z
    3b88:	51 81       	ldd	r21, Z+1	; 0x01
    3b8a:	84 0f       	add	r24, r20
    3b8c:	95 1f       	adc	r25, r21
    3b8e:	dc 01       	movw	r26, r24
    3b90:	1c 92       	st	X, r1
    3b92:	2f 5f       	subi	r18, 0xFF	; 255
    3b94:	3f 4f       	sbci	r19, 0xFF	; 255
    3b96:	d8 01       	movw	r26, r16
    3b98:	2d 93       	st	X+, r18
    3b9a:	3c 93       	st	X, r19
      _nt = 0;
    3b9c:	11 82       	std	Z+1, r1	; 0x01
    3b9e:	10 82       	st	Z, r1
    3ba0:	63 c0       	rjmp	.+198    	; 0x3c68 <_ZN4NMEA6decodeEc+0x262>
      _state++;
      break;
    default:
    	// all other chars between '$' and '*' are part of a term
      (_term[_terms])[_nt++] = c;
    3ba2:	20 81       	ld	r18, Z
    3ba4:	31 81       	ldd	r19, Z+1	; 0x01
    3ba6:	d8 01       	movw	r26, r16
    3ba8:	8d 91       	ld	r24, X+
    3baa:	9c 91       	ld	r25, X
    3bac:	88 0f       	add	r24, r24
    3bae:	99 1f       	adc	r25, r25
    3bb0:	8c 0f       	add	r24, r28
    3bb2:	9d 1f       	adc	r25, r29
    3bb4:	dc 01       	movw	r26, r24
    3bb6:	a1 5e       	subi	r26, 0xE1	; 225
    3bb8:	be 4f       	sbci	r27, 0xFE	; 254
    3bba:	0d 90       	ld	r0, X+
    3bbc:	bc 91       	ld	r27, X
    3bbe:	a0 2d       	mov	r26, r0
    3bc0:	a2 0f       	add	r26, r18
    3bc2:	b3 1f       	adc	r27, r19
    3bc4:	6c 93       	st	X, r22
    3bc6:	2f 5f       	subi	r18, 0xFF	; 255
    3bc8:	3f 4f       	sbci	r19, 0xFF	; 255
    3bca:	31 83       	std	Z+1, r19	; 0x01
    3bcc:	20 83       	st	Z, r18
      _parity = _parity ^ c;
    3bce:	cf 59       	subi	r28, 0x9F	; 159
    3bd0:	de 4f       	sbci	r29, 0xFE	; 254
    3bd2:	77 27       	eor	r23, r23
    3bd4:	67 fd       	sbrc	r22, 7
    3bd6:	70 95       	com	r23
    3bd8:	88 81       	ld	r24, Y
    3bda:	99 81       	ldd	r25, Y+1	; 0x01
    3bdc:	68 27       	eor	r22, r24
    3bde:	79 27       	eor	r23, r25
    3be0:	79 83       	std	Y+1, r23	; 0x01
    3be2:	68 83       	st	Y, r22
    3be4:	fd c1       	rjmp	.+1018   	; 0x3fe0 <_ZN4NMEA6decodeEc+0x5da>
      break;
    }
    break;
  case 2:
  	// first char following '*' is checksum MSB
    _sentence[n++] = c;
    3be6:	fe 01       	movw	r30, r28
    3be8:	e8 0f       	add	r30, r24
    3bea:	f9 1f       	adc	r31, r25
    3bec:	e5 54       	subi	r30, 0x45	; 69
    3bee:	ff 4f       	sbci	r31, 0xFF	; 255
    3bf0:	60 83       	st	Z, r22
    3bf2:	fe 01       	movw	r30, r28
    3bf4:	e5 5a       	subi	r30, 0xA5	; 165
    3bf6:	fe 4f       	sbci	r31, 0xFE	; 254
    3bf8:	01 96       	adiw	r24, 0x01	; 1
    3bfa:	91 83       	std	Z+1, r25	; 0x01
    3bfc:	80 83       	st	Z, r24
    (_term[_terms])[_nt++] = c;
    3bfe:	de 01       	movw	r26, r28
    3c00:	ad 59       	subi	r26, 0x9D	; 157
    3c02:	be 4f       	sbci	r27, 0xFE	; 254
    3c04:	2d 91       	ld	r18, X+
    3c06:	3c 91       	ld	r19, X
    3c08:	11 97       	sbiw	r26, 0x01	; 1
    3c0a:	fe 01       	movw	r30, r28
    3c0c:	e7 54       	subi	r30, 0x47	; 71
    3c0e:	ff 4f       	sbci	r31, 0xFF	; 255
    3c10:	80 81       	ld	r24, Z
    3c12:	91 81       	ldd	r25, Z+1	; 0x01
    3c14:	88 0f       	add	r24, r24
    3c16:	99 1f       	adc	r25, r25
    3c18:	8c 0f       	add	r24, r28
    3c1a:	9d 1f       	adc	r25, r29
    3c1c:	fc 01       	movw	r30, r24
    3c1e:	e1 5e       	subi	r30, 0xE1	; 225
    3c20:	fe 4f       	sbci	r31, 0xFE	; 254
    3c22:	01 90       	ld	r0, Z+
    3c24:	f0 81       	ld	r31, Z
    3c26:	e0 2d       	mov	r30, r0
    3c28:	e2 0f       	add	r30, r18
    3c2a:	f3 1f       	adc	r31, r19
    3c2c:	60 83       	st	Z, r22
    3c2e:	2f 5f       	subi	r18, 0xFF	; 255
    3c30:	3f 4f       	sbci	r19, 0xFF	; 255
    3c32:	2d 93       	st	X+, r18
    3c34:	3c 93       	st	X, r19
    _parity = _parity - (16 * _dehex(c));		// replace with bitshift?
    3c36:	fe 01       	movw	r30, r28
    3c38:	ef 59       	subi	r30, 0x9F	; 159
    3c3a:	fe 4f       	sbci	r31, 0xFE	; 254
    3c3c:	40 81       	ld	r20, Z
    3c3e:	51 81       	ldd	r21, Z+1	; 0x01
    3c40:	86 2f       	mov	r24, r22
    3c42:	99 27       	eor	r25, r25
    3c44:	87 fd       	sbrc	r24, 7
    3c46:	90 95       	com	r25
}

int NMEA::_dehex(char a) {
	// returns base-16 value of chars '0'-'9' and 'A'-'F';
	// does not trap invalid chars!
  if (int(a) >= 65) {
    3c48:	61 34       	cpi	r22, 0x41	; 65
    3c4a:	14 f0       	brlt	.+4      	; 0x3c50 <_ZN4NMEA6decodeEc+0x24a>
    return int(a)-55;
    3c4c:	c7 97       	sbiw	r24, 0x37	; 55
    3c4e:	01 c0       	rjmp	.+2      	; 0x3c52 <_ZN4NMEA6decodeEc+0x24c>
  }
  else {
    return int(a)-48;
    3c50:	c0 97       	sbiw	r24, 0x30	; 48
    break;
  case 2:
  	// first char following '*' is checksum MSB
    _sentence[n++] = c;
    (_term[_terms])[_nt++] = c;
    _parity = _parity - (16 * _dehex(c));		// replace with bitshift?
    3c52:	9c 01       	movw	r18, r24
    3c54:	a4 e0       	ldi	r26, 0x04	; 4
    3c56:	22 0f       	add	r18, r18
    3c58:	33 1f       	adc	r19, r19
    3c5a:	aa 95       	dec	r26
    3c5c:	e1 f7       	brne	.-8      	; 0x3c56 <_ZN4NMEA6decodeEc+0x250>
    3c5e:	ca 01       	movw	r24, r20
    3c60:	82 1b       	sub	r24, r18
    3c62:	93 0b       	sbc	r25, r19
    3c64:	91 83       	std	Z+1, r25	; 0x01
    3c66:	80 83       	st	Z, r24
    _state++;
    3c68:	c1 5a       	subi	r28, 0xA1	; 161
    3c6a:	de 4f       	sbci	r29, 0xFE	; 254
    3c6c:	88 81       	ld	r24, Y
    3c6e:	99 81       	ldd	r25, Y+1	; 0x01
    3c70:	01 96       	adiw	r24, 0x01	; 1
    3c72:	99 83       	std	Y+1, r25	; 0x01
    3c74:	88 83       	st	Y, r24
    3c76:	b4 c1       	rjmp	.+872    	; 0x3fe0 <_ZN4NMEA6decodeEc+0x5da>
    break;
  case 3:
  	// second char after '*' completes the checksum (LSB)
    _sentence[n++] = c;
    3c78:	9e 01       	movw	r18, r28
    3c7a:	28 0f       	add	r18, r24
    3c7c:	39 1f       	adc	r19, r25
    3c7e:	d9 01       	movw	r26, r18
    3c80:	a5 54       	subi	r26, 0x45	; 69
    3c82:	bf 4f       	sbci	r27, 0xFF	; 255
    3c84:	6c 93       	st	X, r22
    _sentence[n++] = 0;
    3c86:	d9 01       	movw	r26, r18
    3c88:	a4 54       	subi	r26, 0x44	; 68
    3c8a:	bf 4f       	sbci	r27, 0xFF	; 255
    3c8c:	1c 92       	st	X, r1
    3c8e:	de 01       	movw	r26, r28
    3c90:	a5 5a       	subi	r26, 0xA5	; 165
    3c92:	be 4f       	sbci	r27, 0xFE	; 254
    3c94:	02 96       	adiw	r24, 0x02	; 2
    3c96:	8d 93       	st	X+, r24
    3c98:	9c 93       	st	X, r25
    (_term[_terms])[_nt++] = c;
    3c9a:	9e 01       	movw	r18, r28
    3c9c:	2d 59       	subi	r18, 0x9D	; 157
    3c9e:	3e 4f       	sbci	r19, 0xFE	; 254
    3ca0:	f9 01       	movw	r30, r18
    3ca2:	40 81       	ld	r20, Z
    3ca4:	51 81       	ldd	r21, Z+1	; 0x01
    3ca6:	de 01       	movw	r26, r28
    3ca8:	a7 54       	subi	r26, 0x47	; 71
    3caa:	bf 4f       	sbci	r27, 0xFF	; 255
    3cac:	8d 91       	ld	r24, X+
    3cae:	9c 91       	ld	r25, X
    3cb0:	11 97       	sbiw	r26, 0x01	; 1
    3cb2:	88 0f       	add	r24, r24
    3cb4:	99 1f       	adc	r25, r25
    3cb6:	8c 0f       	add	r24, r28
    3cb8:	9d 1f       	adc	r25, r29
    3cba:	81 5e       	subi	r24, 0xE1	; 225
    3cbc:	9e 4f       	sbci	r25, 0xFE	; 254
    3cbe:	fc 01       	movw	r30, r24
    3cc0:	80 81       	ld	r24, Z
    3cc2:	91 81       	ldd	r25, Z+1	; 0x01
    3cc4:	84 0f       	add	r24, r20
    3cc6:	95 1f       	adc	r25, r21
    3cc8:	fc 01       	movw	r30, r24
    3cca:	60 83       	st	Z, r22
    3ccc:	4f 5f       	subi	r20, 0xFF	; 255
    3cce:	5f 4f       	sbci	r21, 0xFF	; 255
    3cd0:	f9 01       	movw	r30, r18
    3cd2:	51 83       	std	Z+1, r21	; 0x01
    3cd4:	40 83       	st	Z, r20
    (_term[_terms++])[_nt] = 0;
    3cd6:	2d 91       	ld	r18, X+
    3cd8:	3c 91       	ld	r19, X
    3cda:	11 97       	sbiw	r26, 0x01	; 1
    3cdc:	c9 01       	movw	r24, r18
    3cde:	88 0f       	add	r24, r24
    3ce0:	99 1f       	adc	r25, r25
    3ce2:	8c 0f       	add	r24, r28
    3ce4:	9d 1f       	adc	r25, r29
    3ce6:	81 5e       	subi	r24, 0xE1	; 225
    3ce8:	9e 4f       	sbci	r25, 0xFE	; 254
    3cea:	fc 01       	movw	r30, r24
    3cec:	80 81       	ld	r24, Z
    3cee:	91 81       	ldd	r25, Z+1	; 0x01
    3cf0:	84 0f       	add	r24, r20
    3cf2:	95 1f       	adc	r25, r21
    3cf4:	fc 01       	movw	r30, r24
    3cf6:	10 82       	st	Z, r1
    3cf8:	2f 5f       	subi	r18, 0xFF	; 255
    3cfa:	3f 4f       	sbci	r19, 0xFF	; 255
    3cfc:	2d 93       	st	X+, r18
    3cfe:	3c 93       	st	X, r19
    _state = 0;
    3d00:	d8 01       	movw	r26, r16
    3d02:	1d 92       	st	X+, r1
    3d04:	1c 92       	st	X, r1
    _parity = _parity - _dehex(c);
    3d06:	fe 01       	movw	r30, r28
    3d08:	ef 59       	subi	r30, 0x9F	; 159
    3d0a:	fe 4f       	sbci	r31, 0xFE	; 254
    3d0c:	80 81       	ld	r24, Z
    3d0e:	91 81       	ldd	r25, Z+1	; 0x01
    3d10:	26 2f       	mov	r18, r22
    3d12:	33 27       	eor	r19, r19
    3d14:	27 fd       	sbrc	r18, 7
    3d16:	30 95       	com	r19
}

int NMEA::_dehex(char a) {
	// returns base-16 value of chars '0'-'9' and 'A'-'F';
	// does not trap invalid chars!
  if (int(a) >= 65) {
    3d18:	61 34       	cpi	r22, 0x41	; 65
    3d1a:	1c f0       	brlt	.+6      	; 0x3d22 <_ZN4NMEA6decodeEc+0x31c>
    return int(a)-55;
    3d1c:	27 53       	subi	r18, 0x37	; 55
    3d1e:	31 09       	sbc	r19, r1
    3d20:	02 c0       	rjmp	.+4      	; 0x3d26 <_ZN4NMEA6decodeEc+0x320>
  }
  else {
    return int(a)-48;
    3d22:	20 53       	subi	r18, 0x30	; 48
    3d24:	31 09       	sbc	r19, r1
    _sentence[n++] = c;
    _sentence[n++] = 0;
    (_term[_terms])[_nt++] = c;
    (_term[_terms++])[_nt] = 0;
    _state = 0;
    _parity = _parity - _dehex(c);
    3d26:	82 1b       	sub	r24, r18
    3d28:	93 0b       	sbc	r25, r19
    3d2a:	91 83       	std	Z+1, r25	; 0x01
    3d2c:	80 83       	st	Z, r24
    // when parity is zero, checksum was correct!
    if (_parity == 0) {
    3d2e:	89 2b       	or	r24, r25
    3d30:	09 f0       	breq	.+2      	; 0x3d34 <_ZN4NMEA6decodeEc+0x32e>
    3d32:	56 c1       	rjmp	.+684    	; 0x3fe0 <_ZN4NMEA6decodeEc+0x5da>
    	// accept all sentences, or only GPRMC datatype?
    	if ((!_gprmc_only) || (_gprmc_tag == 6)) {
    3d34:	88 81       	ld	r24, Y
    3d36:	99 81       	ldd	r25, Y+1	; 0x01
    3d38:	89 2b       	or	r24, r25
    3d3a:	39 f4       	brne	.+14     	; 0x3d4a <_ZN4NMEA6decodeEc+0x344>
    3d3c:	fe 01       	movw	r30, r28
    3d3e:	e5 5a       	subi	r30, 0xA5	; 165
    3d40:	fe 4f       	sbci	r31, 0xFE	; 254
    3d42:	20 81       	ld	r18, Z
    3d44:	31 81       	ldd	r19, Z+1	; 0x01
    3d46:	c9 01       	movw	r24, r18
    3d48:	10 c0       	rjmp	.+32     	; 0x3d6a <_ZN4NMEA6decodeEc+0x364>
    3d4a:	fe 01       	movw	r30, r28
    3d4c:	e3 5a       	subi	r30, 0xA3	; 163
    3d4e:	fe 4f       	sbci	r31, 0xFE	; 254
    3d50:	80 81       	ld	r24, Z
    3d52:	91 81       	ldd	r25, Z+1	; 0x01
    3d54:	06 97       	sbiw	r24, 0x06	; 6
    3d56:	91 f3       	breq	.-28     	; 0x3d3c <_ZN4NMEA6decodeEc+0x336>
    3d58:	43 c1       	rjmp	.+646    	; 0x3fe0 <_ZN4NMEA6decodeEc+0x5da>

//
// public methods
//

int NMEA::decode(char c) {
    3d5a:	fe 01       	movw	r30, r28
    3d5c:	e8 0f       	add	r30, r24
    3d5e:	f9 1f       	adc	r31, r25
    3d60:	df 01       	movw	r26, r30
    3d62:	a5 54       	subi	r26, 0x45	; 69
    3d64:	bf 4f       	sbci	r27, 0xFF	; 255
    // when parity is zero, checksum was correct!
    if (_parity == 0) {
    	// accept all sentences, or only GPRMC datatype?
    	if ((!_gprmc_only) || (_gprmc_tag == 6)) {
	    	// copy _sentence[] to f_sentence[]
	    	while ((--n) >= 0) { f_sentence[n] = _sentence[n]; }
    3d66:	4c 91       	ld	r20, X
    3d68:	47 8b       	std	Z+23, r20	; 0x17
    3d6a:	01 97       	sbiw	r24, 0x01	; 1
    3d6c:	97 ff       	sbrs	r25, 7
    3d6e:	f5 cf       	rjmp	.-22     	; 0x3d5a <_ZN4NMEA6decodeEc+0x354>

//
// public methods
//

int NMEA::decode(char c) {
    3d70:	a9 01       	movw	r20, r18
    3d72:	41 50       	subi	r20, 0x01	; 1
    3d74:	51 09       	sbc	r21, r1
    3d76:	c9 01       	movw	r24, r18
    3d78:	37 ff       	sbrs	r19, 7
    3d7a:	02 c0       	rjmp	.+4      	; 0x3d80 <_ZN4NMEA6decodeEc+0x37a>
    3d7c:	80 e0       	ldi	r24, 0x00	; 0
    3d7e:	90 e0       	ldi	r25, 0x00	; 0
    3d80:	fe 01       	movw	r30, r28
    3d82:	e5 5a       	subi	r30, 0xA5	; 165
    3d84:	fe 4f       	sbci	r31, 0xFE	; 254
    3d86:	9a 01       	movw	r18, r20
    3d88:	28 1b       	sub	r18, r24
    3d8a:	39 0b       	sbc	r19, r25
    3d8c:	31 83       	std	Z+1, r19	; 0x01
    3d8e:	20 83       	st	Z, r18
    	// accept all sentences, or only GPRMC datatype?
    	if ((!_gprmc_only) || (_gprmc_tag == 6)) {
	    	// copy _sentence[] to f_sentence[]
	    	while ((--n) >= 0) { f_sentence[n] = _sentence[n]; }
	    	// copy all _terms[] to f_terms[]
	      for (f_terms=0; f_terms<_terms; f_terms++) {
    3d90:	7e 01       	movw	r14, r28
    3d92:	37 eb       	ldi	r19, 0xB7	; 183
    3d94:	e3 0e       	add	r14, r19
    3d96:	f1 1c       	adc	r15, r1
    3d98:	d7 01       	movw	r26, r14
    3d9a:	1d 92       	st	X+, r1
    3d9c:	1c 92       	st	X, r1
    3d9e:	b7 01       	movw	r22, r14
    3da0:	8e 01       	movw	r16, r28
    3da2:	07 54       	subi	r16, 0x47	; 71
    3da4:	1f 4f       	sbci	r17, 0xFF	; 255
	      	_nt = 0;
    3da6:	de 01       	movw	r26, r28
    3da8:	ad 59       	subi	r26, 0x9D	; 157
    3daa:	be 4f       	sbci	r27, 0xFE	; 254
    	// accept all sentences, or only GPRMC datatype?
    	if ((!_gprmc_only) || (_gprmc_tag == 6)) {
	    	// copy _sentence[] to f_sentence[]
	    	while ((--n) >= 0) { f_sentence[n] = _sentence[n]; }
	    	// copy all _terms[] to f_terms[]
	      for (f_terms=0; f_terms<_terms; f_terms++) {
    3dac:	31 c0       	rjmp	.+98     	; 0x3e10 <_ZN4NMEA6decodeEc+0x40a>
	      	_nt = 0;
    3dae:	11 96       	adiw	r26, 0x01	; 1
    3db0:	1c 92       	st	X, r1
    3db2:	1e 92       	st	-X, r1
	      	while ((_term[f_terms])[_nt]) {
    3db4:	08 c0       	rjmp	.+16     	; 0x3dc6 <_ZN4NMEA6decodeEc+0x3c0>
	        	(f_term[f_terms])[_nt] = (_term[f_terms])[_nt];
    3db6:	40 83       	st	Z, r20
	        	_nt++;
    3db8:	8d 91       	ld	r24, X+
    3dba:	9c 91       	ld	r25, X
    3dbc:	11 97       	sbiw	r26, 0x01	; 1
    3dbe:	01 96       	adiw	r24, 0x01	; 1
    3dc0:	11 96       	adiw	r26, 0x01	; 1
    3dc2:	9c 93       	st	X, r25
    3dc4:	8e 93       	st	-X, r24
	    	// copy _sentence[] to f_sentence[]
	    	while ((--n) >= 0) { f_sentence[n] = _sentence[n]; }
	    	// copy all _terms[] to f_terms[]
	      for (f_terms=0; f_terms<_terms; f_terms++) {
	      	_nt = 0;
	      	while ((_term[f_terms])[_nt]) {
    3dc6:	fb 01       	movw	r30, r22
    3dc8:	80 81       	ld	r24, Z
    3dca:	91 81       	ldd	r25, Z+1	; 0x01
    3dcc:	2d 91       	ld	r18, X+
    3dce:	3c 91       	ld	r19, X
    3dd0:	11 97       	sbiw	r26, 0x01	; 1
    3dd2:	88 0f       	add	r24, r24
    3dd4:	99 1f       	adc	r25, r25
    3dd6:	8c 0f       	add	r24, r28
    3dd8:	9d 1f       	adc	r25, r29
    3dda:	ac 01       	movw	r20, r24
    3ddc:	41 5e       	subi	r20, 0xE1	; 225
    3dde:	5e 4f       	sbci	r21, 0xFE	; 254
    3de0:	fa 01       	movw	r30, r20
    3de2:	40 81       	ld	r20, Z
    3de4:	51 81       	ldd	r21, Z+1	; 0x01
    3de6:	42 0f       	add	r20, r18
    3de8:	53 1f       	adc	r21, r19
    3dea:	fa 01       	movw	r30, r20
    3dec:	40 81       	ld	r20, Z
    3dee:	85 58       	subi	r24, 0x85	; 133
    3df0:	9f 4f       	sbci	r25, 0xFF	; 255
	        	(f_term[f_terms])[_nt] = (_term[f_terms])[_nt];
    3df2:	fc 01       	movw	r30, r24
    3df4:	80 81       	ld	r24, Z
    3df6:	91 81       	ldd	r25, Z+1	; 0x01
    3df8:	82 0f       	add	r24, r18
    3dfa:	93 1f       	adc	r25, r19
    3dfc:	fc 01       	movw	r30, r24
	    	// copy _sentence[] to f_sentence[]
	    	while ((--n) >= 0) { f_sentence[n] = _sentence[n]; }
	    	// copy all _terms[] to f_terms[]
	      for (f_terms=0; f_terms<_terms; f_terms++) {
	      	_nt = 0;
	      	while ((_term[f_terms])[_nt]) {
    3dfe:	41 11       	cpse	r20, r1
    3e00:	da cf       	rjmp	.-76     	; 0x3db6 <_ZN4NMEA6decodeEc+0x3b0>
	        	(f_term[f_terms])[_nt] = (_term[f_terms])[_nt];
	        	_nt++;
	        }
	        (f_term[f_terms])[_nt] = 0;
    3e02:	10 82       	st	Z, r1
    	// accept all sentences, or only GPRMC datatype?
    	if ((!_gprmc_only) || (_gprmc_tag == 6)) {
	    	// copy _sentence[] to f_sentence[]
	    	while ((--n) >= 0) { f_sentence[n] = _sentence[n]; }
	    	// copy all _terms[] to f_terms[]
	      for (f_terms=0; f_terms<_terms; f_terms++) {
    3e04:	f7 01       	movw	r30, r14
    3e06:	80 81       	ld	r24, Z
    3e08:	91 81       	ldd	r25, Z+1	; 0x01
    3e0a:	01 96       	adiw	r24, 0x01	; 1
    3e0c:	91 83       	std	Z+1, r25	; 0x01
    3e0e:	80 83       	st	Z, r24
    3e10:	fb 01       	movw	r30, r22
    3e12:	20 81       	ld	r18, Z
    3e14:	31 81       	ldd	r19, Z+1	; 0x01
    3e16:	f8 01       	movw	r30, r16
    3e18:	80 81       	ld	r24, Z
    3e1a:	91 81       	ldd	r25, Z+1	; 0x01
    3e1c:	28 17       	cp	r18, r24
    3e1e:	39 07       	cpc	r19, r25
    3e20:	34 f2       	brlt	.-116    	; 0x3dae <_ZN4NMEA6decodeEc+0x3a8>
	        	_nt++;
	        }
	        (f_term[f_terms])[_nt] = 0;
	      }
	      // when sentence is of datatype GPRMC
	      if (_gprmc_tag == 6) {
    3e22:	fe 01       	movw	r30, r28
    3e24:	e3 5a       	subi	r30, 0xA3	; 163
    3e26:	fe 4f       	sbci	r31, 0xFE	; 254
    3e28:	80 81       	ld	r24, Z
    3e2a:	91 81       	ldd	r25, Z+1	; 0x01
    3e2c:	06 97       	sbiw	r24, 0x06	; 6
    3e2e:	09 f0       	breq	.+2      	; 0x3e32 <_ZN4NMEA6decodeEc+0x42c>
    3e30:	da c0       	rjmp	.+436    	; 0x3fe6 <_ZN4NMEA6decodeEc+0x5e0>
	      	// store values of relevant GPRMC terms
	      	_gprmc_utc = _decimal(_term[1]);
    3e32:	fe 01       	movw	r30, r28
    3e34:	ef 5d       	subi	r30, 0xDF	; 223
    3e36:	fe 4f       	sbci	r31, 0xFE	; 254
    3e38:	60 81       	ld	r22, Z
    3e3a:	71 81       	ldd	r23, Z+1	; 0x01
    3e3c:	ce 01       	movw	r24, r28
    3e3e:	0e 94 5e 1c 	call	0x38bc	; 0x38bc <_ZN4NMEA8_decimalEPc>
    3e42:	6a 83       	std	Y+2, r22	; 0x02
    3e44:	7b 83       	std	Y+3, r23	; 0x03
    3e46:	8c 83       	std	Y+4, r24	; 0x04
    3e48:	9d 83       	std	Y+5, r25	; 0x05
	      	_gprmc_status = (_term[2])[0];
    3e4a:	fe 01       	movw	r30, r28
    3e4c:	ed 5d       	subi	r30, 0xDD	; 221
    3e4e:	fe 4f       	sbci	r31, 0xFE	; 254
    3e50:	01 90       	ld	r0, Z+
    3e52:	f0 81       	ld	r31, Z
    3e54:	e0 2d       	mov	r30, r0
    3e56:	80 81       	ld	r24, Z
    3e58:	8e 83       	std	Y+6, r24	; 0x06
	        // calculate signed degree-decimal value of latitude term
	        _gprmc_lat = _decimal(_term[3]) / 100.0;
    3e5a:	fe 01       	movw	r30, r28
    3e5c:	eb 5d       	subi	r30, 0xDB	; 219
    3e5e:	fe 4f       	sbci	r31, 0xFE	; 254
    3e60:	60 81       	ld	r22, Z
    3e62:	71 81       	ldd	r23, Z+1	; 0x01
    3e64:	ce 01       	movw	r24, r28
    3e66:	0e 94 5e 1c 	call	0x38bc	; 0x38bc <_ZN4NMEA8_decimalEPc>
    3e6a:	20 e0       	ldi	r18, 0x00	; 0
    3e6c:	30 e0       	ldi	r19, 0x00	; 0
    3e6e:	48 ec       	ldi	r20, 0xC8	; 200
    3e70:	52 e4       	ldi	r21, 0x42	; 66
    3e72:	0e 94 f1 41 	call	0x83e2	; 0x83e2 <__divsf3>
    3e76:	7b 01       	movw	r14, r22
    3e78:	8c 01       	movw	r16, r24
	        _degs = floor(_gprmc_lat);
    3e7a:	7f 2d       	mov	r23, r15
    3e7c:	80 2f       	mov	r24, r16
    3e7e:	91 2f       	mov	r25, r17
    3e80:	0e 94 c7 42 	call	0x858e	; 0x858e <floor>
    3e84:	4b 01       	movw	r8, r22
    3e86:	5c 01       	movw	r10, r24
    3e88:	fe 01       	movw	r30, r28
    3e8a:	eb 59       	subi	r30, 0x9B	; 155
    3e8c:	fe 4f       	sbci	r31, 0xFE	; 254
    3e8e:	60 83       	st	Z, r22
    3e90:	71 83       	std	Z+1, r23	; 0x01
    3e92:	82 83       	std	Z+2, r24	; 0x02
    3e94:	93 83       	std	Z+3, r25	; 0x03
	        _gprmc_lat = (100.0 * (_gprmc_lat - _degs)) / 60.0;
    3e96:	9b 01       	movw	r18, r22
    3e98:	ac 01       	movw	r20, r24
    3e9a:	6e 2d       	mov	r22, r14
    3e9c:	7f 2d       	mov	r23, r15
    3e9e:	80 2f       	mov	r24, r16
    3ea0:	91 2f       	mov	r25, r17
    3ea2:	0e 94 23 41 	call	0x8246	; 0x8246 <__subsf3>
    3ea6:	20 e0       	ldi	r18, 0x00	; 0
    3ea8:	30 e0       	ldi	r19, 0x00	; 0
    3eaa:	48 ec       	ldi	r20, 0xC8	; 200
    3eac:	52 e4       	ldi	r21, 0x42	; 66
    3eae:	0e 94 f8 43 	call	0x87f0	; 0x87f0 <__mulsf3>
    3eb2:	20 e0       	ldi	r18, 0x00	; 0
    3eb4:	30 e0       	ldi	r19, 0x00	; 0
    3eb6:	40 e7       	ldi	r20, 0x70	; 112
    3eb8:	52 e4       	ldi	r21, 0x42	; 66
    3eba:	0e 94 f1 41 	call	0x83e2	; 0x83e2 <__divsf3>
	        _gprmc_lat += _degs;
    3ebe:	a5 01       	movw	r20, r10
    3ec0:	94 01       	movw	r18, r8
    3ec2:	0e 94 24 41 	call	0x8248	; 0x8248 <__addsf3>
    3ec6:	9b 01       	movw	r18, r22
    3ec8:	46 2f       	mov	r20, r22
    3eca:	53 2f       	mov	r21, r19
    3ecc:	68 2f       	mov	r22, r24
    3ece:	79 2f       	mov	r23, r25
    3ed0:	4f 83       	std	Y+7, r20	; 0x07
    3ed2:	58 87       	std	Y+8, r21	; 0x08
    3ed4:	69 87       	std	Y+9, r22	; 0x09
    3ed6:	7a 87       	std	Y+10, r23	; 0x0a
	        // southern hemisphere is negative-valued
	        if ((_term[4])[0] == 'S') {
    3ed8:	fe 01       	movw	r30, r28
    3eda:	e9 5d       	subi	r30, 0xD9	; 217
    3edc:	fe 4f       	sbci	r31, 0xFE	; 254
    3ede:	01 90       	ld	r0, Z+
    3ee0:	f0 81       	ld	r31, Z
    3ee2:	e0 2d       	mov	r30, r0
    3ee4:	40 81       	ld	r20, Z
    3ee6:	43 35       	cpi	r20, 0x53	; 83
    3ee8:	59 f4       	brne	.+22     	; 0x3f00 <_ZN4NMEA6decodeEc+0x4fa>
	          _gprmc_lat = 0.0 - _gprmc_lat;
    3eea:	48 2f       	mov	r20, r24
    3eec:	59 2f       	mov	r21, r25
    3eee:	60 e0       	ldi	r22, 0x00	; 0
    3ef0:	70 e0       	ldi	r23, 0x00	; 0
    3ef2:	cb 01       	movw	r24, r22
    3ef4:	0e 94 23 41 	call	0x8246	; 0x8246 <__subsf3>
    3ef8:	6f 83       	std	Y+7, r22	; 0x07
    3efa:	78 87       	std	Y+8, r23	; 0x08
    3efc:	89 87       	std	Y+9, r24	; 0x09
    3efe:	9a 87       	std	Y+10, r25	; 0x0a
	        }
	        // calculate signed degree-decimal value of longitude term
	        _gprmc_long = _decimal(_term[5]) / 100.0;
    3f00:	fe 01       	movw	r30, r28
    3f02:	e7 5d       	subi	r30, 0xD7	; 215
    3f04:	fe 4f       	sbci	r31, 0xFE	; 254
    3f06:	60 81       	ld	r22, Z
    3f08:	71 81       	ldd	r23, Z+1	; 0x01
    3f0a:	ce 01       	movw	r24, r28
    3f0c:	0e 94 5e 1c 	call	0x38bc	; 0x38bc <_ZN4NMEA8_decimalEPc>
    3f10:	20 e0       	ldi	r18, 0x00	; 0
    3f12:	30 e0       	ldi	r19, 0x00	; 0
    3f14:	48 ec       	ldi	r20, 0xC8	; 200
    3f16:	52 e4       	ldi	r21, 0x42	; 66
    3f18:	0e 94 f1 41 	call	0x83e2	; 0x83e2 <__divsf3>
    3f1c:	7b 01       	movw	r14, r22
    3f1e:	8c 01       	movw	r16, r24
	        _degs = floor(_gprmc_long);
    3f20:	7f 2d       	mov	r23, r15
    3f22:	80 2f       	mov	r24, r16
    3f24:	91 2f       	mov	r25, r17
    3f26:	0e 94 c7 42 	call	0x858e	; 0x858e <floor>
    3f2a:	4b 01       	movw	r8, r22
    3f2c:	5c 01       	movw	r10, r24
    3f2e:	fe 01       	movw	r30, r28
    3f30:	eb 59       	subi	r30, 0x9B	; 155
    3f32:	fe 4f       	sbci	r31, 0xFE	; 254
    3f34:	60 83       	st	Z, r22
    3f36:	71 83       	std	Z+1, r23	; 0x01
    3f38:	82 83       	std	Z+2, r24	; 0x02
    3f3a:	93 83       	std	Z+3, r25	; 0x03
	        _gprmc_long = (100.0 * (_gprmc_long - _degs)) / 60.0;
    3f3c:	9b 01       	movw	r18, r22
    3f3e:	ac 01       	movw	r20, r24
    3f40:	6e 2d       	mov	r22, r14
    3f42:	7f 2d       	mov	r23, r15
    3f44:	80 2f       	mov	r24, r16
    3f46:	91 2f       	mov	r25, r17
    3f48:	0e 94 23 41 	call	0x8246	; 0x8246 <__subsf3>
    3f4c:	20 e0       	ldi	r18, 0x00	; 0
    3f4e:	30 e0       	ldi	r19, 0x00	; 0
    3f50:	48 ec       	ldi	r20, 0xC8	; 200
    3f52:	52 e4       	ldi	r21, 0x42	; 66
    3f54:	0e 94 f8 43 	call	0x87f0	; 0x87f0 <__mulsf3>
    3f58:	20 e0       	ldi	r18, 0x00	; 0
    3f5a:	30 e0       	ldi	r19, 0x00	; 0
    3f5c:	40 e7       	ldi	r20, 0x70	; 112
    3f5e:	52 e4       	ldi	r21, 0x42	; 66
    3f60:	0e 94 f1 41 	call	0x83e2	; 0x83e2 <__divsf3>
	        _gprmc_long += _degs;
    3f64:	a5 01       	movw	r20, r10
    3f66:	94 01       	movw	r18, r8
    3f68:	0e 94 24 41 	call	0x8248	; 0x8248 <__addsf3>
    3f6c:	9b 01       	movw	r18, r22
    3f6e:	46 2f       	mov	r20, r22
    3f70:	53 2f       	mov	r21, r19
    3f72:	68 2f       	mov	r22, r24
    3f74:	79 2f       	mov	r23, r25
    3f76:	4b 87       	std	Y+11, r20	; 0x0b
    3f78:	5c 87       	std	Y+12, r21	; 0x0c
    3f7a:	6d 87       	std	Y+13, r22	; 0x0d
    3f7c:	7e 87       	std	Y+14, r23	; 0x0e
	        // western hemisphere is negative-valued
	        if ((_term[6])[0] == 'W') {
    3f7e:	fe 01       	movw	r30, r28
    3f80:	e5 5d       	subi	r30, 0xD5	; 213
    3f82:	fe 4f       	sbci	r31, 0xFE	; 254
    3f84:	01 90       	ld	r0, Z+
    3f86:	f0 81       	ld	r31, Z
    3f88:	e0 2d       	mov	r30, r0
    3f8a:	40 81       	ld	r20, Z
    3f8c:	47 35       	cpi	r20, 0x57	; 87
    3f8e:	59 f4       	brne	.+22     	; 0x3fa6 <_ZN4NMEA6decodeEc+0x5a0>
	          _gprmc_long = 0.0 - _gprmc_long;
    3f90:	48 2f       	mov	r20, r24
    3f92:	59 2f       	mov	r21, r25
    3f94:	60 e0       	ldi	r22, 0x00	; 0
    3f96:	70 e0       	ldi	r23, 0x00	; 0
    3f98:	cb 01       	movw	r24, r22
    3f9a:	0e 94 23 41 	call	0x8246	; 0x8246 <__subsf3>
    3f9e:	6b 87       	std	Y+11, r22	; 0x0b
    3fa0:	7c 87       	std	Y+12, r23	; 0x0c
    3fa2:	8d 87       	std	Y+13, r24	; 0x0d
    3fa4:	9e 87       	std	Y+14, r25	; 0x0e
	        }
	        _gprmc_speed = _decimal(_term[7]);
    3fa6:	fe 01       	movw	r30, r28
    3fa8:	e3 5d       	subi	r30, 0xD3	; 211
    3faa:	fe 4f       	sbci	r31, 0xFE	; 254
    3fac:	60 81       	ld	r22, Z
    3fae:	71 81       	ldd	r23, Z+1	; 0x01
    3fb0:	ce 01       	movw	r24, r28
    3fb2:	0e 94 5e 1c 	call	0x38bc	; 0x38bc <_ZN4NMEA8_decimalEPc>
    3fb6:	6f 87       	std	Y+15, r22	; 0x0f
    3fb8:	78 8b       	std	Y+16, r23	; 0x10
    3fba:	89 8b       	std	Y+17, r24	; 0x11
    3fbc:	9a 8b       	std	Y+18, r25	; 0x12
	        _gprmc_angle = _decimal(_term[8]);
    3fbe:	fe 01       	movw	r30, r28
    3fc0:	e1 5d       	subi	r30, 0xD1	; 209
    3fc2:	fe 4f       	sbci	r31, 0xFE	; 254
    3fc4:	60 81       	ld	r22, Z
    3fc6:	71 81       	ldd	r23, Z+1	; 0x01
    3fc8:	ce 01       	movw	r24, r28
    3fca:	0e 94 5e 1c 	call	0x38bc	; 0x38bc <_ZN4NMEA8_decimalEPc>
    3fce:	6b 8b       	std	Y+19, r22	; 0x13
    3fd0:	7c 8b       	std	Y+20, r23	; 0x14
    3fd2:	8d 8b       	std	Y+21, r24	; 0x15
    3fd4:	9e 8b       	std	Y+22, r25	; 0x16
    3fd6:	07 c0       	rjmp	.+14     	; 0x3fe6 <_ZN4NMEA6decodeEc+0x5e0>
      	return 1;
      }
    }
    break;
  default:
    _state = 0;
    3fd8:	c1 5a       	subi	r28, 0xA1	; 161
    3fda:	de 4f       	sbci	r29, 0xFE	; 254
    3fdc:	19 82       	std	Y+1, r1	; 0x01
    3fde:	18 82       	st	Y, r1
    break;
  }
  return 0;
    3fe0:	20 e0       	ldi	r18, 0x00	; 0
    3fe2:	30 e0       	ldi	r19, 0x00	; 0
    3fe4:	02 c0       	rjmp	.+4      	; 0x3fea <_ZN4NMEA6decodeEc+0x5e4>
	        }
	        _gprmc_speed = _decimal(_term[7]);
	        _gprmc_angle = _decimal(_term[8]);
	      }
      	// sentence accepted!
      	return 1;
    3fe6:	21 e0       	ldi	r18, 0x01	; 1
    3fe8:	30 e0       	ldi	r19, 0x00	; 0
  default:
    _state = 0;
    break;
  }
  return 0;
}
    3fea:	c9 01       	movw	r24, r18
    3fec:	df 91       	pop	r29
    3fee:	cf 91       	pop	r28
    3ff0:	1f 91       	pop	r17
    3ff2:	0f 91       	pop	r16
    3ff4:	ff 90       	pop	r15
    3ff6:	ef 90       	pop	r14
    3ff8:	bf 90       	pop	r11
    3ffa:	af 90       	pop	r10
    3ffc:	9f 90       	pop	r9
    3ffe:	8f 90       	pop	r8
    4000:	08 95       	ret

00004002 <_ZN11FlexiTimer23setEmdPFvvE>:
/**
 * @param resolution
 *   0.001 implies a 1 ms (1/1000s = 0.001s = 1ms) resolution. Therefore,
 *   0.0005 implies a 0.5 ms (1/2000s) resolution. And so on.
 */
void FlexiTimer2::set(unsigned long units, double resolution, void (*f)()) {
    4002:	cf 92       	push	r12
    4004:	df 92       	push	r13
    4006:	ef 92       	push	r14
    4008:	ff 92       	push	r15
    400a:	0f 93       	push	r16
    400c:	1f 93       	push	r17
    400e:	6b 01       	movw	r12, r22
    4010:	7c 01       	movw	r14, r24
    4012:	ca 01       	movw	r24, r20
    4014:	b9 01       	movw	r22, r18
		TCCR2 &= ~((1<<CS21) | (1<<CS20));
		prescaler = 256.0;
	}
#endif
	
	tcnt2 = 256 - (int)((float)F_CPU * resolution / prescaler);
    4016:	20 e0       	ldi	r18, 0x00	; 0
    4018:	34 e2       	ldi	r19, 0x24	; 36
    401a:	44 e7       	ldi	r20, 0x74	; 116
    401c:	5b e4       	ldi	r21, 0x4B	; 75
    401e:	0e 94 f8 43 	call	0x87f0	; 0x87f0 <__mulsf3>
    4022:	20 e0       	ldi	r18, 0x00	; 0
    4024:	30 e0       	ldi	r19, 0x00	; 0
    4026:	a9 01       	movw	r20, r18
    4028:	0e 94 f1 41 	call	0x83e2	; 0x83e2 <__divsf3>
    402c:	0e 94 59 42 	call	0x84b2	; 0x84b2 <__fixsfsi>
    4030:	80 e0       	ldi	r24, 0x00	; 0
    4032:	91 e0       	ldi	r25, 0x01	; 1
    4034:	86 1b       	sub	r24, r22
    4036:	97 0b       	sbc	r25, r23
    4038:	90 93 39 09 	sts	0x0939, r25
    403c:	80 93 38 09 	sts	0x0938, r24
	
	if (units == 0)
    4040:	c1 14       	cp	r12, r1
    4042:	d1 04       	cpc	r13, r1
    4044:	e1 04       	cpc	r14, r1
    4046:	f1 04       	cpc	r15, r1
    4048:	69 f4       	brne	.+26     	; 0x4064 <_ZN11FlexiTimer23setEmdPFvvE+0x62>
		time_units = 1;
    404a:	81 e0       	ldi	r24, 0x01	; 1
    404c:	90 e0       	ldi	r25, 0x00	; 0
    404e:	a0 e0       	ldi	r26, 0x00	; 0
    4050:	b0 e0       	ldi	r27, 0x00	; 0
    4052:	80 93 41 09 	sts	0x0941, r24
    4056:	90 93 42 09 	sts	0x0942, r25
    405a:	a0 93 43 09 	sts	0x0943, r26
    405e:	b0 93 44 09 	sts	0x0944, r27
    4062:	08 c0       	rjmp	.+16     	; 0x4074 <_ZN11FlexiTimer23setEmdPFvvE+0x72>
	else
		time_units = units;
    4064:	c0 92 41 09 	sts	0x0941, r12
    4068:	d0 92 42 09 	sts	0x0942, r13
    406c:	e0 92 43 09 	sts	0x0943, r14
    4070:	f0 92 44 09 	sts	0x0944, r15
		
	func = f;
    4074:	10 93 40 09 	sts	0x0940, r17
    4078:	00 93 3f 09 	sts	0x093F, r16
}
    407c:	1f 91       	pop	r17
    407e:	0f 91       	pop	r16
    4080:	ff 90       	pop	r15
    4082:	ef 90       	pop	r14
    4084:	df 90       	pop	r13
    4086:	cf 90       	pop	r12
    4088:	08 95       	ret

0000408a <_ZN11FlexiTimer23setEmPFvvE>:
void (*FlexiTimer2::func)();
volatile unsigned long FlexiTimer2::count;
volatile char FlexiTimer2::overflowing;
volatile unsigned int FlexiTimer2::tcnt2;

void FlexiTimer2::set(unsigned long ms, void (*f)()) {
    408a:	0f 93       	push	r16
    408c:	1f 93       	push	r17
    FlexiTimer2::set(ms, 0.001, f);
    408e:	8a 01       	movw	r16, r20
    4090:	2f e6       	ldi	r18, 0x6F	; 111
    4092:	32 e1       	ldi	r19, 0x12	; 18
    4094:	43 e8       	ldi	r20, 0x83	; 131
    4096:	5a e3       	ldi	r21, 0x3A	; 58
    4098:	0e 94 01 20 	call	0x4002	; 0x4002 <_ZN11FlexiTimer23setEmdPFvvE>
}
    409c:	1f 91       	pop	r17
    409e:	0f 91       	pop	r16
    40a0:	08 95       	ret

000040a2 <_ZN11FlexiTimer25startEv>:
		
	func = f;
}

void FlexiTimer2::start() {
	count = 0;
    40a2:	10 92 3b 09 	sts	0x093B, r1
    40a6:	10 92 3c 09 	sts	0x093C, r1
    40aa:	10 92 3d 09 	sts	0x093D, r1
    40ae:	10 92 3e 09 	sts	0x093E, r1
	overflowing = 0;
    40b2:	10 92 3a 09 	sts	0x093A, r1
    40b6:	08 95       	ret

000040b8 <_ZN11FlexiTimer29_overflowEv>:
	TIMSK &= ~(1<<TOIE2);
#endif
}

void FlexiTimer2::_overflow() {
	count += 1;
    40b8:	80 91 3b 09 	lds	r24, 0x093B
    40bc:	90 91 3c 09 	lds	r25, 0x093C
    40c0:	a0 91 3d 09 	lds	r26, 0x093D
    40c4:	b0 91 3e 09 	lds	r27, 0x093E
    40c8:	01 96       	adiw	r24, 0x01	; 1
    40ca:	a1 1d       	adc	r26, r1
    40cc:	b1 1d       	adc	r27, r1
    40ce:	80 93 3b 09 	sts	0x093B, r24
    40d2:	90 93 3c 09 	sts	0x093C, r25
    40d6:	a0 93 3d 09 	sts	0x093D, r26
    40da:	b0 93 3e 09 	sts	0x093E, r27
	
	if (count >= time_units && !overflowing) {
    40de:	40 91 3b 09 	lds	r20, 0x093B
    40e2:	50 91 3c 09 	lds	r21, 0x093C
    40e6:	60 91 3d 09 	lds	r22, 0x093D
    40ea:	70 91 3e 09 	lds	r23, 0x093E
    40ee:	80 91 41 09 	lds	r24, 0x0941
    40f2:	90 91 42 09 	lds	r25, 0x0942
    40f6:	a0 91 43 09 	lds	r26, 0x0943
    40fa:	b0 91 44 09 	lds	r27, 0x0944
    40fe:	48 17       	cp	r20, r24
    4100:	59 07       	cpc	r21, r25
    4102:	6a 07       	cpc	r22, r26
    4104:	7b 07       	cpc	r23, r27
    4106:	b0 f0       	brcs	.+44     	; 0x4134 <_ZN11FlexiTimer29_overflowEv+0x7c>
    4108:	80 91 3a 09 	lds	r24, 0x093A
    410c:	81 11       	cpse	r24, r1
    410e:	12 c0       	rjmp	.+36     	; 0x4134 <_ZN11FlexiTimer29_overflowEv+0x7c>
		overflowing = 1;
    4110:	81 e0       	ldi	r24, 0x01	; 1
    4112:	80 93 3a 09 	sts	0x093A, r24
		count = 0;
    4116:	10 92 3b 09 	sts	0x093B, r1
    411a:	10 92 3c 09 	sts	0x093C, r1
    411e:	10 92 3d 09 	sts	0x093D, r1
    4122:	10 92 3e 09 	sts	0x093E, r1
		(*func)();
    4126:	e0 91 3f 09 	lds	r30, 0x093F
    412a:	f0 91 40 09 	lds	r31, 0x0940
    412e:	19 95       	eicall
		overflowing = 0;
    4130:	10 92 3a 09 	sts	0x093A, r1
    4134:	08 95       	ret

00004136 <__vector_15>:
	}
}

ISR(TIMER2_OVF_vect) {
    4136:	1f 92       	push	r1
    4138:	0f 92       	push	r0
    413a:	0f b6       	in	r0, 0x3f	; 63
    413c:	0f 92       	push	r0
    413e:	11 24       	eor	r1, r1
    4140:	0b b6       	in	r0, 0x3b	; 59
    4142:	0f 92       	push	r0
    4144:	1b be       	out	0x3b, r1	; 59
    4146:	2f 93       	push	r18
    4148:	3f 93       	push	r19
    414a:	4f 93       	push	r20
    414c:	5f 93       	push	r21
    414e:	6f 93       	push	r22
    4150:	7f 93       	push	r23
    4152:	8f 93       	push	r24
    4154:	9f 93       	push	r25
    4156:	af 93       	push	r26
    4158:	bf 93       	push	r27
    415a:	ef 93       	push	r30
    415c:	ff 93       	push	r31
#elif defined (__AVR_ATmega128__)
	TCNT2 = FlexiTimer2::tcnt2;
#elif defined (__AVR_ATmega8__)
	TCNT2 = FlexiTimer2::tcnt2;
#endif
	FlexiTimer2::_overflow();
    415e:	0e 94 5c 20 	call	0x40b8	; 0x40b8 <_ZN11FlexiTimer29_overflowEv>
}
    4162:	ff 91       	pop	r31
    4164:	ef 91       	pop	r30
    4166:	bf 91       	pop	r27
    4168:	af 91       	pop	r26
    416a:	9f 91       	pop	r25
    416c:	8f 91       	pop	r24
    416e:	7f 91       	pop	r23
    4170:	6f 91       	pop	r22
    4172:	5f 91       	pop	r21
    4174:	4f 91       	pop	r20
    4176:	3f 91       	pop	r19
    4178:	2f 91       	pop	r18
    417a:	0f 90       	pop	r0
    417c:	0b be       	out	0x3b, r0	; 59
    417e:	0f 90       	pop	r0
    4180:	0f be       	out	0x3f, r0	; 63
    4182:	0f 90       	pop	r0
    4184:	1f 90       	pop	r1
    4186:	18 95       	reti

00004188 <_ZN11EEPROMClass4readEi>:
/******************************************************************************
 * User API
 ******************************************************************************/

uint8_t EEPROMClass::read(int address)
{
    4188:	cb 01       	movw	r24, r22
	return eeprom_read_byte((unsigned char *) address);
    418a:	0c 94 10 47 	jmp	0x8e20	; 0x8e20 <__eerd_byte_m2560>

0000418e <_ZN11EEPROMClass5writeEih>:
}

void EEPROMClass::write(int address, uint8_t value)
{
    418e:	cb 01       	movw	r24, r22
	eeprom_write_byte((unsigned char *) address, value);
    4190:	64 2f       	mov	r22, r20
    4192:	0c 94 18 47 	jmp	0x8e30	; 0x8e30 <__eewr_byte_m2560>

00004196 <_ZN13AltSoftSerial4readEv>:

int AltSoftSerial::read(void)
{
	uint8_t head, tail, out;

	head = rx_buffer_head;
    4196:	90 91 ea 09 	lds	r25, 0x09EA
	tail = rx_buffer_tail;
    419a:	80 91 e9 09 	lds	r24, 0x09E9
	if (head == tail) return -1;
    419e:	98 17       	cp	r25, r24
    41a0:	69 f0       	breq	.+26     	; 0x41bc <_ZN13AltSoftSerial4readEv+0x26>
	if (++tail >= RX_BUFFER_SIZE) tail = 0;
    41a2:	8f 5f       	subi	r24, 0xFF	; 255
    41a4:	80 35       	cpi	r24, 0x50	; 80
    41a6:	08 f0       	brcs	.+2      	; 0x41aa <_ZN13AltSoftSerial4readEv+0x14>
    41a8:	80 e0       	ldi	r24, 0x00	; 0
	out = rx_buffer[tail];
    41aa:	e8 2f       	mov	r30, r24
    41ac:	f0 e0       	ldi	r31, 0x00	; 0
    41ae:	e7 56       	subi	r30, 0x67	; 103
    41b0:	f6 4f       	sbci	r31, 0xF6	; 246
    41b2:	20 81       	ld	r18, Z
	rx_buffer_tail = tail;
    41b4:	80 93 e9 09 	sts	0x09E9, r24
	return out;
    41b8:	30 e0       	ldi	r19, 0x00	; 0
    41ba:	02 c0       	rjmp	.+4      	; 0x41c0 <_ZN13AltSoftSerial4readEv+0x2a>
{
	uint8_t head, tail, out;

	head = rx_buffer_head;
	tail = rx_buffer_tail;
	if (head == tail) return -1;
    41bc:	2f ef       	ldi	r18, 0xFF	; 255
    41be:	3f ef       	ldi	r19, 0xFF	; 255
	if (++tail >= RX_BUFFER_SIZE) tail = 0;
	out = rx_buffer[tail];
	rx_buffer_tail = tail;
	return out;
}
    41c0:	c9 01       	movw	r24, r18
    41c2:	08 95       	ret

000041c4 <_ZN13AltSoftSerial4peekEv>:

int AltSoftSerial::peek(void)
{
	uint8_t head, tail;

	head = rx_buffer_head;
    41c4:	80 91 ea 09 	lds	r24, 0x09EA
	tail = rx_buffer_tail;
    41c8:	e0 91 e9 09 	lds	r30, 0x09E9
	if (head == tail) return -1;
    41cc:	8e 17       	cp	r24, r30
    41ce:	31 f0       	breq	.+12     	; 0x41dc <_ZN13AltSoftSerial4peekEv+0x18>
	return rx_buffer[tail];
    41d0:	f0 e0       	ldi	r31, 0x00	; 0
    41d2:	e7 56       	subi	r30, 0x67	; 103
    41d4:	f6 4f       	sbci	r31, 0xF6	; 246
    41d6:	20 81       	ld	r18, Z
    41d8:	30 e0       	ldi	r19, 0x00	; 0
    41da:	02 c0       	rjmp	.+4      	; 0x41e0 <_ZN13AltSoftSerial4peekEv+0x1c>
{
	uint8_t head, tail;

	head = rx_buffer_head;
	tail = rx_buffer_tail;
	if (head == tail) return -1;
    41dc:	2f ef       	ldi	r18, 0xFF	; 255
    41de:	3f ef       	ldi	r19, 0xFF	; 255
	return rx_buffer[tail];
}
    41e0:	c9 01       	movw	r24, r18
    41e2:	08 95       	ret

000041e4 <_ZN13AltSoftSerial9availableEv>:

int AltSoftSerial::available(void)
{
	uint8_t head, tail;

	head = rx_buffer_head;
    41e4:	50 91 ea 09 	lds	r21, 0x09EA
	tail = rx_buffer_tail;
    41e8:	40 91 e9 09 	lds	r20, 0x09E9
    41ec:	25 2f       	mov	r18, r21
    41ee:	30 e0       	ldi	r19, 0x00	; 0
    41f0:	84 2f       	mov	r24, r20
    41f2:	90 e0       	ldi	r25, 0x00	; 0
	if (head >= tail) return head - tail;
    41f4:	54 17       	cp	r21, r20
    41f6:	08 f0       	brcs	.+2      	; 0x41fa <_ZN13AltSoftSerial9availableEv+0x16>
    41f8:	02 c0       	rjmp	.+4      	; 0x41fe <_ZN13AltSoftSerial9availableEv+0x1a>
	return RX_BUFFER_SIZE + head - tail;
    41fa:	20 5b       	subi	r18, 0xB0	; 176
    41fc:	3f 4f       	sbci	r19, 0xFF	; 255
    41fe:	28 1b       	sub	r18, r24
    4200:	39 0b       	sbc	r19, r25
}
    4202:	c9 01       	movw	r24, r18
    4204:	08 95       	ret

00004206 <_ZN13AltSoftSerial4initEm>:
#ifndef INPUT_PULLUP
#define INPUT_PULLUP INPUT
#endif

void AltSoftSerial::init(uint32_t cycles_per_bit)
{
    4206:	9b 01       	movw	r18, r22
    4208:	ac 01       	movw	r20, r24
	if (cycles_per_bit < 7085) {
    420a:	2d 3a       	cpi	r18, 0xAD	; 173
    420c:	8b e1       	ldi	r24, 0x1B	; 27
    420e:	38 07       	cpc	r19, r24
    4210:	41 05       	cpc	r20, r1
    4212:	51 05       	cpc	r21, r1
    4214:	30 f4       	brcc	.+12     	; 0x4222 <_ZN13AltSoftSerial4initEm+0x1c>
		CONFIG_TIMER_NOPRESCALE();
    4216:	10 92 73 00 	sts	0x0073, r1
    421a:	10 92 20 01 	sts	0x0120, r1
    421e:	81 e8       	ldi	r24, 0x81	; 129
    4220:	12 c0       	rjmp	.+36     	; 0x4246 <_ZN13AltSoftSerial4initEm+0x40>
	} else {
		cycles_per_bit /= 8;
    4222:	63 e0       	ldi	r22, 0x03	; 3
    4224:	56 95       	lsr	r21
    4226:	47 95       	ror	r20
    4228:	37 95       	ror	r19
    422a:	27 95       	ror	r18
    422c:	6a 95       	dec	r22
    422e:	d1 f7       	brne	.-12     	; 0x4224 <_ZN13AltSoftSerial4initEm+0x1e>
		if (cycles_per_bit < 7085) {
    4230:	2d 3a       	cpi	r18, 0xAD	; 173
    4232:	8b e1       	ldi	r24, 0x1B	; 27
    4234:	38 07       	cpc	r19, r24
    4236:	41 05       	cpc	r20, r1
    4238:	51 05       	cpc	r21, r1
    423a:	b0 f5       	brcc	.+108    	; 0x42a8 <_ZN13AltSoftSerial4initEm+0xa2>
			CONFIG_TIMER_PRESCALE_8();
    423c:	10 92 73 00 	sts	0x0073, r1
    4240:	10 92 20 01 	sts	0x0120, r1
    4244:	82 e8       	ldi	r24, 0x82	; 130
    4246:	80 93 21 01 	sts	0x0121, r24
		} else {
			return; // minimum 283 baud at 16 MHz clock
		}
	}
	ticks_per_bit = cycles_per_bit;
    424a:	30 93 ee 09 	sts	0x09EE, r19
    424e:	20 93 ed 09 	sts	0x09ED, r18
	rx_stop_ticks = cycles_per_bit * 37 / 4;
    4252:	a5 e2       	ldi	r26, 0x25	; 37
    4254:	b0 e0       	ldi	r27, 0x00	; 0
    4256:	0e 94 c2 44 	call	0x8984	; 0x8984 <__muluhisi3>
    425a:	22 e0       	ldi	r18, 0x02	; 2
    425c:	96 95       	lsr	r25
    425e:	87 95       	ror	r24
    4260:	77 95       	ror	r23
    4262:	67 95       	ror	r22
    4264:	2a 95       	dec	r18
    4266:	d1 f7       	brne	.-12     	; 0x425c <_ZN13AltSoftSerial4initEm+0x56>
    4268:	70 93 f0 09 	sts	0x09F0, r23
    426c:	60 93 ef 09 	sts	0x09EF, r22
	pinMode(INPUT_CAPTURE_PIN, INPUT_PULLUP);
    4270:	62 e0       	ldi	r22, 0x02	; 2
    4272:	80 e3       	ldi	r24, 0x30	; 48
    4274:	0e 94 23 17 	call	0x2e46	; 0x2e46 <pinMode>
	digitalWrite(OUTPUT_COMPARE_A_PIN, HIGH);
    4278:	61 e0       	ldi	r22, 0x01	; 1
    427a:	8e e2       	ldi	r24, 0x2E	; 46
    427c:	0e 94 5b 17 	call	0x2eb6	; 0x2eb6 <digitalWrite>
	pinMode(OUTPUT_COMPARE_A_PIN, OUTPUT);
    4280:	61 e0       	ldi	r22, 0x01	; 1
    4282:	8e e2       	ldi	r24, 0x2E	; 46
    4284:	0e 94 23 17 	call	0x2e46	; 0x2e46 <pinMode>
	rx_count = 0;
    4288:	10 92 eb 09 	sts	0x09EB, r1
	rx_buffer_head = 0;
    428c:	10 92 ea 09 	sts	0x09EA, r1
	rx_buffer_tail = 0;
    4290:	10 92 e9 09 	sts	0x09E9, r1
	tx_state = 0;
    4294:	10 92 98 09 	sts	0x0998, r1
	tx_buffer_head = 0;
    4298:	10 92 97 09 	sts	0x0997, r1
	tx_buffer_tail = 0;
    429c:	10 92 96 09 	sts	0x0996, r1
	ENABLE_INT_INPUT_CAPTURE();
    42a0:	80 e2       	ldi	r24, 0x20	; 32
    42a2:	8a bb       	out	0x1a, r24	; 26
    42a4:	80 93 73 00 	sts	0x0073, r24
    42a8:	08 95       	ret

000042aa <_ZN13AltSoftSerial9writeByteEh>:

void AltSoftSerial::writeByte(uint8_t b)
{
	uint8_t intr_state, head;

	head = tx_buffer_head + 1;
    42aa:	90 91 97 09 	lds	r25, 0x0997
    42ae:	9f 5f       	subi	r25, 0xFF	; 255
	if (head >= TX_BUFFER_SIZE) head = 0;
    42b0:	94 34       	cpi	r25, 0x44	; 68
    42b2:	08 f0       	brcs	.+2      	; 0x42b6 <_ZN13AltSoftSerial9writeByteEh+0xc>
    42b4:	90 e0       	ldi	r25, 0x00	; 0
	while (tx_buffer_tail == head) ; // wait until space in buffer
    42b6:	20 91 96 09 	lds	r18, 0x0996
    42ba:	29 17       	cp	r18, r25
    42bc:	e1 f3       	breq	.-8      	; 0x42b6 <_ZN13AltSoftSerial9writeByteEh+0xc>
	intr_state = SREG;
    42be:	2f b7       	in	r18, 0x3f	; 63
	cli();
    42c0:	f8 94       	cli
	if (tx_state) {
    42c2:	30 91 98 09 	lds	r19, 0x0998
    42c6:	33 23       	and	r19, r19
    42c8:	41 f0       	breq	.+16     	; 0x42da <_ZN13AltSoftSerial9writeByteEh+0x30>
		tx_buffer[head] = b;
    42ca:	e9 2f       	mov	r30, r25
    42cc:	f0 e0       	ldi	r31, 0x00	; 0
    42ce:	ea 5b       	subi	r30, 0xBA	; 186
    42d0:	f6 4f       	sbci	r31, 0xF6	; 246
    42d2:	80 83       	st	Z, r24
		tx_buffer_head = head;
    42d4:	90 93 97 09 	sts	0x0997, r25
    42d8:	1d c0       	rjmp	.+58     	; 0x4314 <_ZN13AltSoftSerial9writeByteEh+0x6a>
	} else {
		tx_state = 1;
    42da:	91 e0       	ldi	r25, 0x01	; 1
    42dc:	90 93 98 09 	sts	0x0998, r25
		tx_byte = b;
    42e0:	80 93 f1 09 	sts	0x09F1, r24
		tx_bit = 0;
    42e4:	10 92 f2 09 	sts	0x09F2, r1
		ENABLE_INT_COMPARE_A();
    42e8:	82 e0       	ldi	r24, 0x02	; 2
    42ea:	8a bb       	out	0x1a, r24	; 26
    42ec:	80 91 73 00 	lds	r24, 0x0073
    42f0:	82 60       	ori	r24, 0x02	; 2
    42f2:	80 93 73 00 	sts	0x0073, r24
		CONFIG_MATCH_CLEAR();
    42f6:	80 91 20 01 	lds	r24, 0x0120
    42fa:	8f 73       	andi	r24, 0x3F	; 63
    42fc:	80 68       	ori	r24, 0x80	; 128
    42fe:	80 93 20 01 	sts	0x0120, r24
		SET_COMPARE_A(GET_TIMER_COUNT() + 16);
    4302:	80 91 24 01 	lds	r24, 0x0124
    4306:	90 91 25 01 	lds	r25, 0x0125
    430a:	40 96       	adiw	r24, 0x10	; 16
    430c:	90 93 29 01 	sts	0x0129, r25
    4310:	80 93 28 01 	sts	0x0128, r24
	}
	SREG = intr_state;
    4314:	2f bf       	out	0x3f, r18	; 63
    4316:	08 95       	ret

00004318 <_ZN13AltSoftSerial5writeEh>:
    4318:	86 2f       	mov	r24, r22
    431a:	0e 94 55 21 	call	0x42aa	; 0x42aa <_ZN13AltSoftSerial9writeByteEh>
    431e:	81 e0       	ldi	r24, 0x01	; 1
    4320:	90 e0       	ldi	r25, 0x00	; 0
    4322:	08 95       	ret

00004324 <__vector_47>:
}


ISR(COMPARE_A_INTERRUPT)
{
    4324:	1f 92       	push	r1
    4326:	0f 92       	push	r0
    4328:	0f b6       	in	r0, 0x3f	; 63
    432a:	0f 92       	push	r0
    432c:	11 24       	eor	r1, r1
    432e:	0b b6       	in	r0, 0x3b	; 59
    4330:	0f 92       	push	r0
    4332:	1b be       	out	0x3b, r1	; 59
    4334:	2f 93       	push	r18
    4336:	3f 93       	push	r19
    4338:	4f 93       	push	r20
    433a:	5f 93       	push	r21
    433c:	6f 93       	push	r22
    433e:	7f 93       	push	r23
    4340:	8f 93       	push	r24
    4342:	9f 93       	push	r25
    4344:	ef 93       	push	r30
    4346:	ff 93       	push	r31
	uint8_t state, byte, bit, head, tail;
	uint16_t target;

	state = tx_state;
    4348:	40 91 98 09 	lds	r20, 0x0998
	byte = tx_byte;
    434c:	50 91 f1 09 	lds	r21, 0x09F1
	target = GET_COMPARE_A();
    4350:	80 91 28 01 	lds	r24, 0x0128
    4354:	90 91 29 01 	lds	r25, 0x0129
	while (state < 9) {
		target += ticks_per_bit;
    4358:	20 91 ed 09 	lds	r18, 0x09ED
    435c:	30 91 ee 09 	lds	r19, 0x09EE
		bit = byte & 1;
		byte >>= 1;
		state++;
		if (bit != tx_bit) {
    4360:	70 91 f2 09 	lds	r23, 0x09F2
	uint16_t target;

	state = tx_state;
	byte = tx_byte;
	target = GET_COMPARE_A();
	while (state < 9) {
    4364:	1d c0       	rjmp	.+58     	; 0x43a0 <__vector_47+0x7c>
		target += ticks_per_bit;
    4366:	82 0f       	add	r24, r18
    4368:	93 1f       	adc	r25, r19
		bit = byte & 1;
    436a:	65 2f       	mov	r22, r21
    436c:	61 70       	andi	r22, 0x01	; 1
		byte >>= 1;
    436e:	56 95       	lsr	r21
		state++;
    4370:	4f 5f       	subi	r20, 0xFF	; 255
		if (bit != tx_bit) {
    4372:	67 17       	cp	r22, r23
    4374:	a9 f0       	breq	.+42     	; 0x43a0 <__vector_47+0x7c>
			if (bit) {
				CONFIG_MATCH_SET();
    4376:	20 91 20 01 	lds	r18, 0x0120
		target += ticks_per_bit;
		bit = byte & 1;
		byte >>= 1;
		state++;
		if (bit != tx_bit) {
			if (bit) {
    437a:	66 23       	and	r22, r22
    437c:	11 f0       	breq	.+4      	; 0x4382 <__vector_47+0x5e>
				CONFIG_MATCH_SET();
    437e:	20 6c       	ori	r18, 0xC0	; 192
    4380:	02 c0       	rjmp	.+4      	; 0x4386 <__vector_47+0x62>
			} else {
				CONFIG_MATCH_CLEAR();
    4382:	2f 73       	andi	r18, 0x3F	; 63
    4384:	20 68       	ori	r18, 0x80	; 128
    4386:	20 93 20 01 	sts	0x0120, r18
			}
			SET_COMPARE_A(target);
    438a:	90 93 29 01 	sts	0x0129, r25
    438e:	80 93 28 01 	sts	0x0128, r24
			tx_bit = bit;
    4392:	60 93 f2 09 	sts	0x09F2, r22
			tx_byte = byte;
    4396:	50 93 f1 09 	sts	0x09F1, r21
			tx_state = state;
    439a:	40 93 98 09 	sts	0x0998, r20
			// TODO: how to detect timing_error?
			return;
    439e:	3f c0       	rjmp	.+126    	; 0x441e <__vector_47+0xfa>
	uint16_t target;

	state = tx_state;
	byte = tx_byte;
	target = GET_COMPARE_A();
	while (state < 9) {
    43a0:	49 30       	cpi	r20, 0x09	; 9
    43a2:	08 f3       	brcs	.-62     	; 0x4366 <__vector_47+0x42>
			tx_state = state;
			// TODO: how to detect timing_error?
			return;
		}
	}
	if (state == 9) {
    43a4:	49 30       	cpi	r20, 0x09	; 9
    43a6:	39 f4       	brne	.+14     	; 0x43b6 <__vector_47+0x92>
		tx_state = 10;
    43a8:	2a e0       	ldi	r18, 0x0A	; 10
    43aa:	20 93 98 09 	sts	0x0998, r18
		CONFIG_MATCH_SET();
    43ae:	20 91 20 01 	lds	r18, 0x0120
    43b2:	20 6c       	ori	r18, 0xC0	; 192
    43b4:	28 c0       	rjmp	.+80     	; 0x4406 <__vector_47+0xe2>
		SET_COMPARE_A(target + ticks_per_bit);
		return;
	}
	head = tx_buffer_head;
    43b6:	20 91 97 09 	lds	r18, 0x0997
	tail = tx_buffer_tail;
    43ba:	e0 91 96 09 	lds	r30, 0x0996
	if (head == tail) {
    43be:	2e 13       	cpse	r18, r30
    43c0:	0d c0       	rjmp	.+26     	; 0x43dc <__vector_47+0xb8>
		tx_state = 0;
    43c2:	10 92 98 09 	sts	0x0998, r1
		CONFIG_MATCH_NORMAL();
    43c6:	80 91 20 01 	lds	r24, 0x0120
    43ca:	8f 73       	andi	r24, 0x3F	; 63
    43cc:	80 93 20 01 	sts	0x0120, r24
		DISABLE_INT_COMPARE_A();
    43d0:	80 91 73 00 	lds	r24, 0x0073
    43d4:	8d 7f       	andi	r24, 0xFD	; 253
    43d6:	80 93 73 00 	sts	0x0073, r24
    43da:	21 c0       	rjmp	.+66     	; 0x441e <__vector_47+0xfa>
	} else {
		tx_state = 1;
    43dc:	21 e0       	ldi	r18, 0x01	; 1
    43de:	20 93 98 09 	sts	0x0998, r18
		if (++tail >= TX_BUFFER_SIZE) tail = 0;
    43e2:	ef 5f       	subi	r30, 0xFF	; 255
    43e4:	e4 34       	cpi	r30, 0x44	; 68
    43e6:	08 f0       	brcs	.+2      	; 0x43ea <__vector_47+0xc6>
    43e8:	e0 e0       	ldi	r30, 0x00	; 0
		tx_buffer_tail = tail;
    43ea:	e0 93 96 09 	sts	0x0996, r30
		tx_byte = tx_buffer[tail];
    43ee:	f0 e0       	ldi	r31, 0x00	; 0
    43f0:	ea 5b       	subi	r30, 0xBA	; 186
    43f2:	f6 4f       	sbci	r31, 0xF6	; 246
    43f4:	20 81       	ld	r18, Z
    43f6:	20 93 f1 09 	sts	0x09F1, r18
		tx_bit = 0;
    43fa:	10 92 f2 09 	sts	0x09F2, r1
		CONFIG_MATCH_CLEAR();
    43fe:	20 91 20 01 	lds	r18, 0x0120
    4402:	2f 73       	andi	r18, 0x3F	; 63
    4404:	20 68       	ori	r18, 0x80	; 128
    4406:	20 93 20 01 	sts	0x0120, r18
		SET_COMPARE_A(target + ticks_per_bit);
    440a:	20 91 ed 09 	lds	r18, 0x09ED
    440e:	30 91 ee 09 	lds	r19, 0x09EE
    4412:	28 0f       	add	r18, r24
    4414:	39 1f       	adc	r19, r25
    4416:	30 93 29 01 	sts	0x0129, r19
    441a:	20 93 28 01 	sts	0x0128, r18
		// TODO: how to detect timing_error?
	}
}
    441e:	ff 91       	pop	r31
    4420:	ef 91       	pop	r30
    4422:	9f 91       	pop	r25
    4424:	8f 91       	pop	r24
    4426:	7f 91       	pop	r23
    4428:	6f 91       	pop	r22
    442a:	5f 91       	pop	r21
    442c:	4f 91       	pop	r20
    442e:	3f 91       	pop	r19
    4430:	2f 91       	pop	r18
    4432:	0f 90       	pop	r0
    4434:	0b be       	out	0x3b, r0	; 59
    4436:	0f 90       	pop	r0
    4438:	0f be       	out	0x3f, r0	; 63
    443a:	0f 90       	pop	r0
    443c:	1f 90       	pop	r1
    443e:	18 95       	reti

00004440 <_ZN13AltSoftSerial11flushOutputEv>:

void AltSoftSerial::flushOutput(void)
{
	while (tx_state) /* wait */ ;
    4440:	80 91 98 09 	lds	r24, 0x0998
    4444:	81 11       	cpse	r24, r1
    4446:	fc cf       	rjmp	.-8      	; 0x4440 <_ZN13AltSoftSerial11flushOutputEv>
}
    4448:	08 95       	ret

0000444a <_ZN13AltSoftSerial5flushEv>:
    444a:	0c 94 20 22 	jmp	0x4440	; 0x4440 <_ZN13AltSoftSerial11flushOutputEv>

0000444e <__vector_46>:
/****************************************/
/**            Reception               **/
/****************************************/

ISR(CAPTURE_INTERRUPT)
{
    444e:	1f 92       	push	r1
    4450:	0f 92       	push	r0
    4452:	0f b6       	in	r0, 0x3f	; 63
    4454:	0f 92       	push	r0
    4456:	11 24       	eor	r1, r1
    4458:	0b b6       	in	r0, 0x3b	; 59
    445a:	0f 92       	push	r0
    445c:	1b be       	out	0x3b, r1	; 59
    445e:	2f 93       	push	r18
    4460:	3f 93       	push	r19
    4462:	4f 93       	push	r20
    4464:	8f 93       	push	r24
    4466:	9f 93       	push	r25
    4468:	ef 93       	push	r30
    446a:	ff 93       	push	r31
	uint8_t count;
	uint16_t capture, current;

	capture = GET_INPUT_CAPTURE();
    446c:	80 91 26 01 	lds	r24, 0x0126
    4470:	90 91 27 01 	lds	r25, 0x0127
	count = rx_count;
    4474:	40 91 eb 09 	lds	r20, 0x09EB
	if (count & 1) {
		CONFIG_CAPTURE_FALLING_EDGE();
    4478:	20 91 21 01 	lds	r18, 0x0121
	uint8_t count;
	uint16_t capture, current;

	capture = GET_INPUT_CAPTURE();
	count = rx_count;
	if (count & 1) {
    447c:	40 ff       	sbrs	r20, 0
    447e:	04 c0       	rjmp	.+8      	; 0x4488 <__vector_46+0x3a>
		CONFIG_CAPTURE_FALLING_EDGE();
    4480:	2f 7b       	andi	r18, 0xBF	; 191
    4482:	20 93 21 01 	sts	0x0121, r18
    4486:	1b c0       	rjmp	.+54     	; 0x44be <__vector_46+0x70>
	} else {
		CONFIG_CAPTURE_RISING_EDGE();
    4488:	20 64       	ori	r18, 0x40	; 64
    448a:	20 93 21 01 	sts	0x0121, r18
	}
	if (count == 0) {
    448e:	41 11       	cpse	r20, r1
    4490:	16 c0       	rjmp	.+44     	; 0x44be <__vector_46+0x70>
		SET_COMPARE_B(capture + rx_stop_ticks);
    4492:	20 91 ef 09 	lds	r18, 0x09EF
    4496:	30 91 f0 09 	lds	r19, 0x09F0
    449a:	28 0f       	add	r18, r24
    449c:	39 1f       	adc	r19, r25
    449e:	30 93 2b 01 	sts	0x012B, r19
    44a2:	20 93 2a 01 	sts	0x012A, r18
		ENABLE_INT_COMPARE_B();
    44a6:	24 e0       	ldi	r18, 0x04	; 4
    44a8:	2a bb       	out	0x1a, r18	; 26
    44aa:	20 91 73 00 	lds	r18, 0x0073
    44ae:	24 60       	ori	r18, 0x04	; 4
    44b0:	20 93 73 00 	sts	0x0073, r18
		rx_event[0] = capture;
    44b4:	90 93 f4 09 	sts	0x09F4, r25
    44b8:	80 93 f3 09 	sts	0x09F3, r24
    44bc:	0a c0       	rjmp	.+20     	; 0x44d2 <__vector_46+0x84>
	} else if (count < MAX_RX_EVENTS) {
    44be:	4a 30       	cpi	r20, 0x0A	; 10
    44c0:	40 f4       	brcc	.+16     	; 0x44d2 <__vector_46+0x84>
		rx_event[count] = capture;
    44c2:	e4 2f       	mov	r30, r20
    44c4:	f0 e0       	ldi	r31, 0x00	; 0
    44c6:	ee 0f       	add	r30, r30
    44c8:	ff 1f       	adc	r31, r31
    44ca:	ed 50       	subi	r30, 0x0D	; 13
    44cc:	f6 4f       	sbci	r31, 0xF6	; 246
    44ce:	91 83       	std	Z+1, r25	; 0x01
    44d0:	80 83       	st	Z, r24
	}
	rx_count = count + 1;
    44d2:	4f 5f       	subi	r20, 0xFF	; 255
    44d4:	40 93 eb 09 	sts	0x09EB, r20
	if (GET_TIMER_COUNT() - capture > ticks_per_bit) {
    44d8:	20 91 24 01 	lds	r18, 0x0124
    44dc:	30 91 25 01 	lds	r19, 0x0125
    44e0:	28 1b       	sub	r18, r24
    44e2:	39 0b       	sbc	r19, r25
    44e4:	80 91 ed 09 	lds	r24, 0x09ED
    44e8:	90 91 ee 09 	lds	r25, 0x09EE
    44ec:	82 17       	cp	r24, r18
    44ee:	93 07       	cpc	r25, r19
    44f0:	18 f4       	brcc	.+6      	; 0x44f8 <__vector_46+0xaa>
		AltSoftSerial::timing_error = true;
    44f2:	81 e0       	ldi	r24, 0x01	; 1
    44f4:	80 93 ec 09 	sts	0x09EC, r24
	}
}
    44f8:	ff 91       	pop	r31
    44fa:	ef 91       	pop	r30
    44fc:	9f 91       	pop	r25
    44fe:	8f 91       	pop	r24
    4500:	4f 91       	pop	r20
    4502:	3f 91       	pop	r19
    4504:	2f 91       	pop	r18
    4506:	0f 90       	pop	r0
    4508:	0b be       	out	0x3b, r0	; 59
    450a:	0f 90       	pop	r0
    450c:	0f be       	out	0x3f, r0	; 63
    450e:	0f 90       	pop	r0
    4510:	1f 90       	pop	r1
    4512:	18 95       	reti

00004514 <__vector_48>:
	}
	return out;
}

ISR(COMPARE_B_INTERRUPT)
{
    4514:	1f 92       	push	r1
    4516:	0f 92       	push	r0
    4518:	0f b6       	in	r0, 0x3f	; 63
    451a:	0f 92       	push	r0
    451c:	11 24       	eor	r1, r1
    451e:	0b b6       	in	r0, 0x3b	; 59
    4520:	0f 92       	push	r0
    4522:	1b be       	out	0x3b, r1	; 59
    4524:	af 92       	push	r10
    4526:	bf 92       	push	r11
    4528:	cf 92       	push	r12
    452a:	df 92       	push	r13
    452c:	ef 92       	push	r14
    452e:	ff 92       	push	r15
    4530:	0f 93       	push	r16
    4532:	1f 93       	push	r17
    4534:	2f 93       	push	r18
    4536:	3f 93       	push	r19
    4538:	4f 93       	push	r20
    453a:	5f 93       	push	r21
    453c:	6f 93       	push	r22
    453e:	7f 93       	push	r23
    4540:	8f 93       	push	r24
    4542:	9f 93       	push	r25
    4544:	af 93       	push	r26
    4546:	bf 93       	push	r27
    4548:	cf 93       	push	r28
    454a:	df 93       	push	r29
    454c:	ef 93       	push	r30
    454e:	ff 93       	push	r31
	uint8_t head;

	DISABLE_INT_COMPARE_B();
    4550:	80 91 73 00 	lds	r24, 0x0073
    4554:	8b 7f       	andi	r24, 0xFB	; 251
    4556:	80 93 73 00 	sts	0x0073, r24
	CONFIG_CAPTURE_FALLING_EDGE();
    455a:	80 91 21 01 	lds	r24, 0x0121
    455e:	8f 7b       	andi	r24, 0xBF	; 191
    4560:	80 93 21 01 	sts	0x0121, r24
	head = rx_buffer_head + 1;
    4564:	10 91 ea 09 	lds	r17, 0x09EA
    4568:	1f 5f       	subi	r17, 0xFF	; 255
	if (head >= RX_BUFFER_SIZE) head = 0;
    456a:	10 35       	cpi	r17, 0x50	; 80
    456c:	08 f0       	brcs	.+2      	; 0x4570 <__vector_48+0x5c>
    456e:	10 e0       	ldi	r17, 0x00	; 0
	if (head != rx_buffer_tail) {
    4570:	80 91 e9 09 	lds	r24, 0x09E9
    4574:	18 17       	cp	r17, r24
    4576:	e9 f1       	breq	.+122    	; 0x45f2 <__vector_48+0xde>
		rx_buffer[head] = analyze(rx_count);
    4578:	c1 2f       	mov	r28, r17
    457a:	d0 e0       	ldi	r29, 0x00	; 0
    457c:	00 91 eb 09 	lds	r16, 0x09EB
    4580:	0b 30       	cpi	r16, 0x0B	; 11
    4582:	08 f0       	brcs	.+2      	; 0x4586 <__vector_48+0x72>
    4584:	0a e0       	ldi	r16, 0x0A	; 10
	const uint16_t *p = rx_event;
	uint8_t out=0xFF, mask=0x01, state=0;
	uint16_t begin, tmp, target, now=0;

	if (count > MAX_RX_EVENTS) count = MAX_RX_EVENTS;
	begin = *p++;
    4586:	60 91 f3 09 	lds	r22, 0x09F3
    458a:	70 91 f4 09 	lds	r23, 0x09F4
	target = ticks_per_bit + ticks_per_bit / 2;
    458e:	20 91 ed 09 	lds	r18, 0x09ED
    4592:	30 91 ee 09 	lds	r19, 0x09EE
    4596:	c9 01       	movw	r24, r18
    4598:	96 95       	lsr	r25
    459a:	87 95       	ror	r24
    459c:	82 0f       	add	r24, r18
    459e:	93 1f       	adc	r25, r19

static inline uint8_t analyze(uint8_t count)
{
	const uint16_t *p = rx_event;
	uint8_t out=0xFF, mask=0x01, state=0;
	uint16_t begin, tmp, target, now=0;
    45a0:	40 e0       	ldi	r20, 0x00	; 0
    45a2:	50 e0       	ldi	r21, 0x00	; 0
}

static inline uint8_t analyze(uint8_t count)
{
	const uint16_t *p = rx_event;
	uint8_t out=0xFF, mask=0x01, state=0;
    45a4:	e1 2c       	mov	r14, r1
    45a6:	dd 24       	eor	r13, r13
    45a8:	d3 94       	inc	r13
    45aa:	ff 24       	eor	r15, r15
    45ac:	fa 94       	dec	r15
	uint16_t begin, tmp, target, now=0;

	if (count > MAX_RX_EVENTS) count = MAX_RX_EVENTS;
	begin = *p++;
    45ae:	e5 ef       	ldi	r30, 0xF5	; 245
    45b0:	f9 e0       	ldi	r31, 0x09	; 9
		while (now >= target) {
			if (state == 0) out &= ~mask;
			mask <<= 1;
			target += ticks_per_bit;
		}
		state ^= 1;
    45b2:	cc 24       	eor	r12, r12
    45b4:	c3 94       	inc	r12
    45b6:	15 c0       	rjmp	.+42     	; 0x45e2 <__vector_48+0xce>

	if (count > MAX_RX_EVENTS) count = MAX_RX_EVENTS;
	begin = *p++;
	target = ticks_per_bit + ticks_per_bit / 2;
	while (--count > 0) {
		tmp = *p++;
    45b8:	a1 91       	ld	r26, Z+
    45ba:	b1 91       	ld	r27, Z+
		now += tmp - begin;
    45bc:	5d 01       	movw	r10, r26
    45be:	a6 1a       	sub	r10, r22
    45c0:	b7 0a       	sbc	r11, r23
    45c2:	4a 0d       	add	r20, r10
    45c4:	5b 1d       	adc	r21, r11
    45c6:	08 c0       	rjmp	.+16     	; 0x45d8 <__vector_48+0xc4>
		begin = tmp;
		while (now >= target) {
			if (state == 0) out &= ~mask;
    45c8:	e1 10       	cpse	r14, r1
    45ca:	03 c0       	rjmp	.+6      	; 0x45d2 <__vector_48+0xbe>
    45cc:	6d 2d       	mov	r22, r13
    45ce:	60 95       	com	r22
    45d0:	f6 22       	and	r15, r22
			mask <<= 1;
    45d2:	dd 0c       	add	r13, r13
			target += ticks_per_bit;
    45d4:	82 0f       	add	r24, r18
    45d6:	93 1f       	adc	r25, r19
	target = ticks_per_bit + ticks_per_bit / 2;
	while (--count > 0) {
		tmp = *p++;
		now += tmp - begin;
		begin = tmp;
		while (now >= target) {
    45d8:	48 17       	cp	r20, r24
    45da:	59 07       	cpc	r21, r25
    45dc:	a8 f7       	brcc	.-22     	; 0x45c8 <__vector_48+0xb4>
			if (state == 0) out &= ~mask;
			mask <<= 1;
			target += ticks_per_bit;
		}
		state ^= 1;
    45de:	ec 24       	eor	r14, r12
	begin = *p++;
	target = ticks_per_bit + ticks_per_bit / 2;
	while (--count > 0) {
		tmp = *p++;
		now += tmp - begin;
		begin = tmp;
    45e0:	bd 01       	movw	r22, r26
	uint16_t begin, tmp, target, now=0;

	if (count > MAX_RX_EVENTS) count = MAX_RX_EVENTS;
	begin = *p++;
	target = ticks_per_bit + ticks_per_bit / 2;
	while (--count > 0) {
    45e2:	01 50       	subi	r16, 0x01	; 1
    45e4:	49 f7       	brne	.-46     	; 0x45b8 <__vector_48+0xa4>
	DISABLE_INT_COMPARE_B();
	CONFIG_CAPTURE_FALLING_EDGE();
	head = rx_buffer_head + 1;
	if (head >= RX_BUFFER_SIZE) head = 0;
	if (head != rx_buffer_tail) {
		rx_buffer[head] = analyze(rx_count);
    45e6:	fe 01       	movw	r30, r28
    45e8:	e7 56       	subi	r30, 0x67	; 103
    45ea:	f6 4f       	sbci	r31, 0xF6	; 246
    45ec:	f0 82       	st	Z, r15
		rx_buffer_head = head;
    45ee:	10 93 ea 09 	sts	0x09EA, r17
	}
	rx_count = 0;
    45f2:	10 92 eb 09 	sts	0x09EB, r1
}
    45f6:	ff 91       	pop	r31
    45f8:	ef 91       	pop	r30
    45fa:	df 91       	pop	r29
    45fc:	cf 91       	pop	r28
    45fe:	bf 91       	pop	r27
    4600:	af 91       	pop	r26
    4602:	9f 91       	pop	r25
    4604:	8f 91       	pop	r24
    4606:	7f 91       	pop	r23
    4608:	6f 91       	pop	r22
    460a:	5f 91       	pop	r21
    460c:	4f 91       	pop	r20
    460e:	3f 91       	pop	r19
    4610:	2f 91       	pop	r18
    4612:	1f 91       	pop	r17
    4614:	0f 91       	pop	r16
    4616:	ff 90       	pop	r15
    4618:	ef 90       	pop	r14
    461a:	df 90       	pop	r13
    461c:	cf 90       	pop	r12
    461e:	bf 90       	pop	r11
    4620:	af 90       	pop	r10
    4622:	0f 90       	pop	r0
    4624:	0b be       	out	0x3b, r0	; 59
    4626:	0f 90       	pop	r0
    4628:	0f be       	out	0x3f, r0	; 63
    462a:	0f 90       	pop	r0
    462c:	1f 90       	pop	r1
    462e:	18 95       	reti

00004630 <_ZN13AltSoftSerial10flushInputEv>:
	return RX_BUFFER_SIZE + head - tail;
}

void AltSoftSerial::flushInput(void)
{
	rx_buffer_head = rx_buffer_tail;
    4630:	80 91 e9 09 	lds	r24, 0x09E9
    4634:	80 93 ea 09 	sts	0x09EA, r24
    4638:	08 95       	ret

0000463a <_ZN13AltSoftSerial3endEv>:
	tx_buffer_tail = 0;
	ENABLE_INT_INPUT_CAPTURE();
}

void AltSoftSerial::end(void)
{
    463a:	cf 93       	push	r28
    463c:	df 93       	push	r29
	DISABLE_INT_COMPARE_B();
    463e:	c3 e7       	ldi	r28, 0x73	; 115
    4640:	d0 e0       	ldi	r29, 0x00	; 0
    4642:	88 81       	ld	r24, Y
    4644:	8b 7f       	andi	r24, 0xFB	; 251
    4646:	88 83       	st	Y, r24
	DISABLE_INT_INPUT_CAPTURE();
    4648:	88 81       	ld	r24, Y
    464a:	8f 7d       	andi	r24, 0xDF	; 223
    464c:	88 83       	st	Y, r24
	flushInput();
    464e:	0e 94 18 23 	call	0x4630	; 0x4630 <_ZN13AltSoftSerial10flushInputEv>
	flushOutput();
    4652:	0e 94 20 22 	call	0x4440	; 0x4440 <_ZN13AltSoftSerial11flushOutputEv>
	DISABLE_INT_COMPARE_A();
    4656:	88 81       	ld	r24, Y
    4658:	8d 7f       	andi	r24, 0xFD	; 253
    465a:	88 83       	st	Y, r24
	// TODO: restore timer to original settings?
}
    465c:	df 91       	pop	r29
    465e:	cf 91       	pop	r28
    4660:	08 95       	ret

00004662 <_ZN5AlarmD1Ev>:
	pinMode(alarmPin1, OUTPUT);
	pinMode(alarmPin2, OUTPUT);
	pinMode(alarmPin3, OUTPUT);
}

Alarm::~Alarm() {
    4662:	28 e2       	ldi	r18, 0x28	; 40
    4664:	32 e0       	ldi	r19, 0x02	; 2
    4666:	fc 01       	movw	r30, r24
    4668:	31 83       	std	Z+1, r19	; 0x01
    466a:	20 83       	st	Z, r18
    466c:	08 95       	ret

0000466e <_ZN5AlarmD0Ev>:
    466e:	28 e2       	ldi	r18, 0x28	; 40
    4670:	32 e0       	ldi	r19, 0x02	; 2
    4672:	fc 01       	movw	r30, r24
    4674:	31 83       	std	Z+1, r19	; 0x01
    4676:	20 83       	st	Z, r18

}
    4678:	0c 94 89 15 	jmp	0x2b12	; 0x2b12 <_ZdlPv>

0000467c <_ZN5AlarmC1EP14FreeBoardModel>:
 *      Author: robert
 */

#include "Alarm.h"

Alarm::Alarm(FreeBoardModel* model) {
    467c:	fc 01       	movw	r30, r24
    467e:	cb 01       	movw	r24, r22
    4680:	28 e2       	ldi	r18, 0x28	; 40
    4682:	32 e0       	ldi	r19, 0x02	; 2
    4684:	31 83       	std	Z+1, r19	; 0x01
    4686:	20 83       	st	Z, r18
	this->model=model;
    4688:	73 83       	std	Z+3, r23	; 0x03
    468a:	62 83       	std	Z+2, r22	; 0x02
	alarmBeepState=false;
    468c:	14 82       	std	Z+4, r1	; 0x04
	model->setAlarmLast(0);
    468e:	40 e0       	ldi	r20, 0x00	; 0
    4690:	50 e0       	ldi	r21, 0x00	; 0
    4692:	ba 01       	movw	r22, r20
    4694:	0e 94 2c 2d 	call	0x5a58	; 0x5a58 <_ZN14FreeBoardModel12setAlarmLastEm>
	pinMode(alarmPin0, OUTPUT);
    4698:	61 e0       	ldi	r22, 0x01	; 1
    469a:	86 e1       	ldi	r24, 0x16	; 22
    469c:	0e 94 23 17 	call	0x2e46	; 0x2e46 <pinMode>
	pinMode(alarmPin1, OUTPUT);
    46a0:	61 e0       	ldi	r22, 0x01	; 1
    46a2:	87 e1       	ldi	r24, 0x17	; 23
    46a4:	0e 94 23 17 	call	0x2e46	; 0x2e46 <pinMode>
	pinMode(alarmPin2, OUTPUT);
    46a8:	61 e0       	ldi	r22, 0x01	; 1
    46aa:	88 e1       	ldi	r24, 0x18	; 24
    46ac:	0e 94 23 17 	call	0x2e46	; 0x2e46 <pinMode>
	pinMode(alarmPin3, OUTPUT);
    46b0:	61 e0       	ldi	r22, 0x01	; 1
    46b2:	89 e1       	ldi	r24, 0x19	; 25
    46b4:	0c 94 23 17 	jmp	0x2e46	; 0x2e46 <pinMode>

000046b8 <_ZN5Alarm14alarmTriggeredEv>:

Alarm::~Alarm() {

}

bool Alarm::alarmTriggered() {
    46b8:	cf 92       	push	r12
    46ba:	df 92       	push	r13
    46bc:	ef 92       	push	r14
    46be:	ff 92       	push	r15
    46c0:	cf 93       	push	r28
    46c2:	df 93       	push	r29
    46c4:	ec 01       	movw	r28, r24
	return model->isAlarmTriggered() && model->getAlarmSnooze() < millis() ;
    46c6:	8a 81       	ldd	r24, Y+2	; 0x02
    46c8:	9b 81       	ldd	r25, Y+3	; 0x03
    46ca:	0e 94 46 2e 	call	0x5c8c	; 0x5c8c <_ZN14FreeBoardModel16isAlarmTriggeredEv>
    46ce:	88 23       	and	r24, r24
    46d0:	71 f0       	breq	.+28     	; 0x46ee <_ZN5Alarm14alarmTriggeredEv+0x36>
    46d2:	8a 81       	ldd	r24, Y+2	; 0x02
    46d4:	9b 81       	ldd	r25, Y+3	; 0x03
    46d6:	0e 94 bb 2a 	call	0x5576	; 0x5576 <_ZN14FreeBoardModel14getAlarmSnoozeEv>
    46da:	6b 01       	movw	r12, r22
    46dc:	7c 01       	movw	r14, r24
    46de:	0e 94 e7 15 	call	0x2bce	; 0x2bce <millis>
    46e2:	21 e0       	ldi	r18, 0x01	; 1
    46e4:	c6 16       	cp	r12, r22
    46e6:	d7 06       	cpc	r13, r23
    46e8:	e8 06       	cpc	r14, r24
    46ea:	f9 06       	cpc	r15, r25
    46ec:	08 f0       	brcs	.+2      	; 0x46f0 <_ZN5Alarm14alarmTriggeredEv+0x38>
    46ee:	20 e0       	ldi	r18, 0x00	; 0
}
    46f0:	82 2f       	mov	r24, r18
    46f2:	df 91       	pop	r29
    46f4:	cf 91       	pop	r28
    46f6:	ff 90       	pop	r15
    46f8:	ef 90       	pop	r14
    46fa:	df 90       	pop	r13
    46fc:	cf 90       	pop	r12
    46fe:	08 95       	ret

00004700 <_ZN5Alarm11checkAlarmsEv>:


/* Take action if alarms are triggered*/
void Alarm::checkAlarms() {
    4700:	cf 92       	push	r12
    4702:	df 92       	push	r13
    4704:	ef 92       	push	r14
    4706:	ff 92       	push	r15
    4708:	cf 93       	push	r28
    470a:	df 93       	push	r29
    470c:	ec 01       	movw	r28, r24
	if (alarmTriggered()) {
    470e:	0e 94 5c 23 	call	0x46b8	; 0x46b8 <_ZN5Alarm14alarmTriggeredEv>
    4712:	88 23       	and	r24, r24
    4714:	a9 f1       	breq	.+106    	; 0x4780 <_ZN5Alarm11checkAlarmsEv+0x80>
		//alarm beeps on off on off
		//once in the alarm state, hitting any button will give a 5 minute respite from the beeping, eg snooze
		if (millis() - model->getAlarmLast() > 1000) {
    4716:	0e 94 e7 15 	call	0x2bce	; 0x2bce <millis>
    471a:	6b 01       	movw	r12, r22
    471c:	7c 01       	movw	r14, r24
    471e:	8a 81       	ldd	r24, Y+2	; 0x02
    4720:	9b 81       	ldd	r25, Y+3	; 0x03
    4722:	0e 94 b5 2a 	call	0x556a	; 0x556a <_ZN14FreeBoardModel12getAlarmLastEv>
    4726:	c6 1a       	sub	r12, r22
    4728:	d7 0a       	sbc	r13, r23
    472a:	e8 0a       	sbc	r14, r24
    472c:	f9 0a       	sbc	r15, r25
    472e:	89 ee       	ldi	r24, 0xE9	; 233
    4730:	c8 16       	cp	r12, r24
    4732:	83 e0       	ldi	r24, 0x03	; 3
    4734:	d8 06       	cpc	r13, r24
    4736:	e1 04       	cpc	r14, r1
    4738:	f1 04       	cpc	r15, r1
    473a:	c0 f1       	brcs	.+112    	; 0x47ac <_ZN5Alarm11checkAlarmsEv+0xac>
			digitalWrite(alarmPin0, alarmBeepState);
    473c:	6c 81       	ldd	r22, Y+4	; 0x04
    473e:	86 e1       	ldi	r24, 0x16	; 22
    4740:	0e 94 5b 17 	call	0x2eb6	; 0x2eb6 <digitalWrite>
			digitalWrite(alarmPin1, alarmBeepState);
    4744:	6c 81       	ldd	r22, Y+4	; 0x04
    4746:	87 e1       	ldi	r24, 0x17	; 23
    4748:	0e 94 5b 17 	call	0x2eb6	; 0x2eb6 <digitalWrite>
			digitalWrite(alarmPin2, alarmBeepState);
    474c:	6c 81       	ldd	r22, Y+4	; 0x04
    474e:	88 e1       	ldi	r24, 0x18	; 24
    4750:	0e 94 5b 17 	call	0x2eb6	; 0x2eb6 <digitalWrite>
			digitalWrite(alarmPin3, alarmBeepState);
    4754:	6c 81       	ldd	r22, Y+4	; 0x04
    4756:	89 e1       	ldi	r24, 0x19	; 25
    4758:	0e 94 5b 17 	call	0x2eb6	; 0x2eb6 <digitalWrite>
			alarmBeepState = !alarmBeepState;
    475c:	8c 81       	ldd	r24, Y+4	; 0x04
    475e:	91 e0       	ldi	r25, 0x01	; 1
    4760:	89 27       	eor	r24, r25
    4762:	8c 83       	std	Y+4, r24	; 0x04
			model->setAlarmLast(millis());
    4764:	0e 94 e7 15 	call	0x2bce	; 0x2bce <millis>
    4768:	ab 01       	movw	r20, r22
    476a:	bc 01       	movw	r22, r24
    476c:	8a 81       	ldd	r24, Y+2	; 0x02
    476e:	9b 81       	ldd	r25, Y+3	; 0x03
		digitalWrite(alarmPin0, LOW);
		digitalWrite(alarmPin1, LOW);
		digitalWrite(alarmPin2, LOW);
		digitalWrite(alarmPin3, LOW);
	}
}
    4770:	df 91       	pop	r29
    4772:	cf 91       	pop	r28
    4774:	ff 90       	pop	r15
    4776:	ef 90       	pop	r14
    4778:	df 90       	pop	r13
    477a:	cf 90       	pop	r12
			digitalWrite(alarmPin0, alarmBeepState);
			digitalWrite(alarmPin1, alarmBeepState);
			digitalWrite(alarmPin2, alarmBeepState);
			digitalWrite(alarmPin3, alarmBeepState);
			alarmBeepState = !alarmBeepState;
			model->setAlarmLast(millis());
    477c:	0c 94 2c 2d 	jmp	0x5a58	; 0x5a58 <_ZN14FreeBoardModel12setAlarmLastEm>
			//model->setAlarmSnooze(0); //5 minute alarm snooze
		}
	} else {
		//no alarm
		digitalWrite(alarmPin0, LOW);
    4780:	60 e0       	ldi	r22, 0x00	; 0
    4782:	86 e1       	ldi	r24, 0x16	; 22
    4784:	0e 94 5b 17 	call	0x2eb6	; 0x2eb6 <digitalWrite>
		digitalWrite(alarmPin1, LOW);
    4788:	60 e0       	ldi	r22, 0x00	; 0
    478a:	87 e1       	ldi	r24, 0x17	; 23
    478c:	0e 94 5b 17 	call	0x2eb6	; 0x2eb6 <digitalWrite>
		digitalWrite(alarmPin2, LOW);
    4790:	60 e0       	ldi	r22, 0x00	; 0
    4792:	88 e1       	ldi	r24, 0x18	; 24
    4794:	0e 94 5b 17 	call	0x2eb6	; 0x2eb6 <digitalWrite>
		digitalWrite(alarmPin3, LOW);
    4798:	60 e0       	ldi	r22, 0x00	; 0
    479a:	89 e1       	ldi	r24, 0x19	; 25
	}
}
    479c:	df 91       	pop	r29
    479e:	cf 91       	pop	r28
    47a0:	ff 90       	pop	r15
    47a2:	ef 90       	pop	r14
    47a4:	df 90       	pop	r13
    47a6:	cf 90       	pop	r12
	} else {
		//no alarm
		digitalWrite(alarmPin0, LOW);
		digitalWrite(alarmPin1, LOW);
		digitalWrite(alarmPin2, LOW);
		digitalWrite(alarmPin3, LOW);
    47a8:	0c 94 5b 17 	jmp	0x2eb6	; 0x2eb6 <digitalWrite>
	}
}
    47ac:	df 91       	pop	r29
    47ae:	cf 91       	pop	r28
    47b0:	ff 90       	pop	r15
    47b2:	ef 90       	pop	r14
    47b4:	df 90       	pop	r13
    47b6:	cf 90       	pop	r12
    47b8:	08 95       	ret

000047ba <_ZN5Alarm14checkWindAlarmEv>:

void Alarm::checkWindAlarm(){
    47ba:	cf 92       	push	r12
    47bc:	df 92       	push	r13
    47be:	ef 92       	push	r14
    47c0:	ff 92       	push	r15
    47c2:	cf 93       	push	r28
    47c4:	df 93       	push	r29
    47c6:	ec 01       	movw	r28, r24
	//check alarm val
		if (model->isWindAlarmOn() && model->getWindAlarmSpeed() > 0
    47c8:	8a 81       	ldd	r24, Y+2	; 0x02
    47ca:	9b 81       	ldd	r25, Y+3	; 0x03
    47cc:	0e 94 27 2d 	call	0x5a4e	; 0x5a4e <_ZN14FreeBoardModel13isWindAlarmOnEv>
    47d0:	88 23       	and	r24, r24
    47d2:	11 f1       	breq	.+68     	; 0x4818 <_ZN5Alarm14checkWindAlarmEv+0x5e>
    47d4:	8a 81       	ldd	r24, Y+2	; 0x02
    47d6:	9b 81       	ldd	r25, Y+3	; 0x03
    47d8:	0e 94 f3 2c 	call	0x59e6	; 0x59e6 <_ZN14FreeBoardModel17getWindAlarmSpeedEv>
    47dc:	18 16       	cp	r1, r24
    47de:	19 06       	cpc	r1, r25
    47e0:	dc f4       	brge	.+54     	; 0x4818 <_ZN5Alarm14checkWindAlarmEv+0x5e>
				&& model->getWindAverage() > model->getWindAlarmSpeed()) {
    47e2:	8a 81       	ldd	r24, Y+2	; 0x02
    47e4:	9b 81       	ldd	r25, Y+3	; 0x03
    47e6:	0e 94 ff 2c 	call	0x59fe	; 0x59fe <_ZN14FreeBoardModel14getWindAverageEv>
    47ea:	6b 01       	movw	r12, r22
    47ec:	7c 01       	movw	r14, r24
    47ee:	8a 81       	ldd	r24, Y+2	; 0x02
    47f0:	9b 81       	ldd	r25, Y+3	; 0x03
    47f2:	0e 94 f3 2c 	call	0x59e6	; 0x59e6 <_ZN14FreeBoardModel17getWindAlarmSpeedEv>
	}
}

void Alarm::checkWindAlarm(){
	//check alarm val
		if (model->isWindAlarmOn() && model->getWindAlarmSpeed() > 0
    47f6:	bc 01       	movw	r22, r24
    47f8:	88 27       	eor	r24, r24
    47fa:	77 fd       	sbrc	r23, 7
    47fc:	80 95       	com	r24
    47fe:	98 2f       	mov	r25, r24
    4800:	0e 94 8c 42 	call	0x8518	; 0x8518 <__floatsisf>
    4804:	9b 01       	movw	r18, r22
    4806:	ac 01       	movw	r20, r24
    4808:	c7 01       	movw	r24, r14
    480a:	b6 01       	movw	r22, r12
    480c:	0e 94 ed 43 	call	0x87da	; 0x87da <__gesf2>
    4810:	18 16       	cp	r1, r24
    4812:	14 f4       	brge	.+4      	; 0x4818 <_ZN5Alarm14checkWindAlarmEv+0x5e>
				&& model->getWindAverage() > model->getWindAlarmSpeed()) {
			//TODO: Alarm snooze, better handling of this
			//setSnoozeAlarm(0);
			model->setWindAlarmTriggered(true);
    4814:	61 e0       	ldi	r22, 0x01	; 1
    4816:	01 c0       	rjmp	.+2      	; 0x481a <_ZN5Alarm14checkWindAlarmEv+0x60>
		} else {
			model->setWindAlarmTriggered(false);
    4818:	60 e0       	ldi	r22, 0x00	; 0
    481a:	8a 81       	ldd	r24, Y+2	; 0x02
    481c:	9b 81       	ldd	r25, Y+3	; 0x03
		}
}
    481e:	df 91       	pop	r29
    4820:	cf 91       	pop	r28
    4822:	ff 90       	pop	r15
    4824:	ef 90       	pop	r14
    4826:	df 90       	pop	r13
    4828:	cf 90       	pop	r12
				&& model->getWindAverage() > model->getWindAlarmSpeed()) {
			//TODO: Alarm snooze, better handling of this
			//setSnoozeAlarm(0);
			model->setWindAlarmTriggered(true);
		} else {
			model->setWindAlarmTriggered(false);
    482a:	0c 94 7b 2e 	jmp	0x5cf6	; 0x5cf6 <_ZN14FreeBoardModel21setWindAlarmTriggeredEb>

0000482e <_ZN6AnchorD1Ev>:

	this->model=model;
	resetAnchorBox(model->getAnchorLat(), model->getAnchorLon());
}

Anchor::~Anchor(){
    482e:	20 e3       	ldi	r18, 0x30	; 48
    4830:	32 e0       	ldi	r19, 0x02	; 2
    4832:	fc 01       	movw	r30, r24
    4834:	31 83       	std	Z+1, r19	; 0x01
    4836:	20 83       	st	Z, r18
    4838:	08 95       	ret

0000483a <_ZN6AnchorD0Ev>:
    483a:	20 e3       	ldi	r18, 0x30	; 48
    483c:	32 e0       	ldi	r19, 0x02	; 2
    483e:	fc 01       	movw	r30, r24
    4840:	31 83       	std	Z+1, r19	; 0x01
    4842:	20 83       	st	Z, r18

}
    4844:	0c 94 89 15 	jmp	0x2b12	; 0x2b12 <_ZdlPv>

00004848 <_ZN6Anchor15updateAnchorBoxEff>:


/* Adjust the size of the anchor box. Will not go smaller than MINMTRS */
void Anchor::updateAnchorBox(float laty, float lonx) {
    4848:	2f 92       	push	r2
    484a:	3f 92       	push	r3
    484c:	4f 92       	push	r4
    484e:	5f 92       	push	r5
    4850:	6f 92       	push	r6
    4852:	7f 92       	push	r7
    4854:	8f 92       	push	r8
    4856:	9f 92       	push	r9
    4858:	af 92       	push	r10
    485a:	bf 92       	push	r11
    485c:	cf 92       	push	r12
    485e:	df 92       	push	r13
    4860:	ef 92       	push	r14
    4862:	ff 92       	push	r15
    4864:	0f 93       	push	r16
    4866:	1f 93       	push	r17
    4868:	cf 93       	push	r28
    486a:	df 93       	push	r29
    486c:	00 d0       	rcall	.+0      	; 0x486e <_ZN6Anchor15updateAnchorBoxEff+0x26>
    486e:	00 d0       	rcall	.+0      	; 0x4870 <_ZN6Anchor15updateAnchorBoxEff+0x28>
    4870:	cd b7       	in	r28, 0x3d	; 61
    4872:	de b7       	in	r29, 0x3e	; 62
    4874:	9e 83       	std	Y+6, r25	; 0x06
    4876:	8d 83       	std	Y+5, r24	; 0x05
    4878:	4a 01       	movw	r8, r20
    487a:	5b 01       	movw	r10, r22
    487c:	68 01       	movw	r12, r16
    487e:	79 01       	movw	r14, r18
	//TODO: error testing around 0, 90, 180deg

	float n = laty + model->getAnchorRadiusDeg();
    4880:	fc 01       	movw	r30, r24
    4882:	82 81       	ldd	r24, Z+2	; 0x02
    4884:	93 81       	ldd	r25, Z+3	; 0x03
    4886:	0e 94 0d 2b 	call	0x561a	; 0x561a <_ZN14FreeBoardModel18getAnchorRadiusDegEv>
    488a:	9b 01       	movw	r18, r22
    488c:	ac 01       	movw	r20, r24
    488e:	c5 01       	movw	r24, r10
    4890:	b4 01       	movw	r22, r8
    4892:	0e 94 24 41 	call	0x8248	; 0x8248 <__addsf3>
    4896:	69 83       	std	Y+1, r22	; 0x01
    4898:	7a 83       	std	Y+2, r23	; 0x02
    489a:	1c 01       	movw	r2, r24
	float s = laty - model->getAnchorRadiusDeg();
    489c:	ed 81       	ldd	r30, Y+5	; 0x05
    489e:	fe 81       	ldd	r31, Y+6	; 0x06
    48a0:	82 81       	ldd	r24, Z+2	; 0x02
    48a2:	93 81       	ldd	r25, Z+3	; 0x03
    48a4:	0e 94 0d 2b 	call	0x561a	; 0x561a <_ZN14FreeBoardModel18getAnchorRadiusDegEv>
    48a8:	9b 01       	movw	r18, r22
    48aa:	ac 01       	movw	r20, r24
    48ac:	c5 01       	movw	r24, r10
    48ae:	b4 01       	movw	r22, r8
    48b0:	0e 94 23 41 	call	0x8246	; 0x8246 <__subsf3>
    48b4:	2b 01       	movw	r4, r22
    48b6:	3c 01       	movw	r6, r24
	float e = lonx + model->getAnchorRadiusDeg();
    48b8:	ed 81       	ldd	r30, Y+5	; 0x05
    48ba:	fe 81       	ldd	r31, Y+6	; 0x06
    48bc:	82 81       	ldd	r24, Z+2	; 0x02
    48be:	93 81       	ldd	r25, Z+3	; 0x03
    48c0:	0e 94 0d 2b 	call	0x561a	; 0x561a <_ZN14FreeBoardModel18getAnchorRadiusDegEv>
    48c4:	9b 01       	movw	r18, r22
    48c6:	ac 01       	movw	r20, r24
    48c8:	c7 01       	movw	r24, r14
    48ca:	b6 01       	movw	r22, r12
    48cc:	0e 94 24 41 	call	0x8248	; 0x8248 <__addsf3>
    48d0:	4b 01       	movw	r8, r22
    48d2:	5c 01       	movw	r10, r24
	float w = lonx - model->getAnchorRadiusDeg();
    48d4:	ed 81       	ldd	r30, Y+5	; 0x05
    48d6:	fe 81       	ldd	r31, Y+6	; 0x06
    48d8:	82 81       	ldd	r24, Z+2	; 0x02
    48da:	93 81       	ldd	r25, Z+3	; 0x03
    48dc:	0e 94 0d 2b 	call	0x561a	; 0x561a <_ZN14FreeBoardModel18getAnchorRadiusDegEv>
    48e0:	9b 01       	movw	r18, r22
    48e2:	ac 01       	movw	r20, r24
    48e4:	c7 01       	movw	r24, r14
    48e6:	b6 01       	movw	r22, r12
    48e8:	0e 94 23 41 	call	0x8246	; 0x8246 <__subsf3>
    48ec:	16 2f       	mov	r17, r22
    48ee:	7b 83       	std	Y+3, r23	; 0x03
    48f0:	8c 83       	std	Y+4, r24	; 0x04
    48f2:	09 2f       	mov	r16, r25
	//shrink anchor box if we can
	if ((n - MINMTRS) > model->getAnchorS() && n < model->getAnchorN())
    48f4:	ed 81       	ldd	r30, Y+5	; 0x05
    48f6:	fe 81       	ldd	r31, Y+6	; 0x06
    48f8:	82 81       	ldd	r24, Z+2	; 0x02
    48fa:	93 81       	ldd	r25, Z+3	; 0x03
    48fc:	0e 94 17 2b 	call	0x562e	; 0x562e <_ZN14FreeBoardModel10getAnchorSEv>
    4900:	6b 01       	movw	r12, r22
    4902:	7c 01       	movw	r14, r24
    4904:	24 e8       	ldi	r18, 0x84	; 132
    4906:	3a eb       	ldi	r19, 0xBA	; 186
    4908:	4c e3       	ldi	r20, 0x3C	; 60
    490a:	58 e3       	ldi	r21, 0x38	; 56
    490c:	b9 81       	ldd	r27, Y+1	; 0x01
    490e:	aa 81       	ldd	r26, Y+2	; 0x02
    4910:	6b 2f       	mov	r22, r27
    4912:	7a 2f       	mov	r23, r26
    4914:	82 2d       	mov	r24, r2
    4916:	93 2d       	mov	r25, r3
    4918:	0e 94 23 41 	call	0x8246	; 0x8246 <__subsf3>
    491c:	a7 01       	movw	r20, r14
    491e:	96 01       	movw	r18, r12
    4920:	0e 94 ed 43 	call	0x87da	; 0x87da <__gesf2>
    4924:	18 16       	cp	r1, r24
    4926:	94 f4       	brge	.+36     	; 0x494c <_ZN6Anchor15updateAnchorBoxEff+0x104>
    4928:	ed 81       	ldd	r30, Y+5	; 0x05
    492a:	fe 81       	ldd	r31, Y+6	; 0x06
    492c:	82 81       	ldd	r24, Z+2	; 0x02
    492e:	93 81       	ldd	r25, Z+3	; 0x03
    4930:	0e 94 f7 2a 	call	0x55ee	; 0x55ee <_ZN14FreeBoardModel10getAnchorNEv>
    4934:	9b 01       	movw	r18, r22
    4936:	ac 01       	movw	r20, r24
    4938:	b9 81       	ldd	r27, Y+1	; 0x01
    493a:	aa 81       	ldd	r26, Y+2	; 0x02
    493c:	6b 2f       	mov	r22, r27
    493e:	7a 2f       	mov	r23, r26
    4940:	82 2d       	mov	r24, r2
    4942:	93 2d       	mov	r25, r3
    4944:	0e 94 ea 41 	call	0x83d4	; 0x83d4 <__cmpsf2>
    4948:	87 fd       	sbrc	r24, 7
    494a:	7e c0       	rjmp	.+252    	; 0x4a48 <_ZN6Anchor15updateAnchorBoxEff+0x200>
		model->setAnchorN(n);
	if ((s + MINMTRS) < model->getAnchorN() && s > model->getAnchorS())
    494c:	ed 81       	ldd	r30, Y+5	; 0x05
    494e:	fe 81       	ldd	r31, Y+6	; 0x06
    4950:	82 81       	ldd	r24, Z+2	; 0x02
    4952:	93 81       	ldd	r25, Z+3	; 0x03
    4954:	0e 94 f7 2a 	call	0x55ee	; 0x55ee <_ZN14FreeBoardModel10getAnchorNEv>
    4958:	6b 01       	movw	r12, r22
    495a:	7c 01       	movw	r14, r24
    495c:	24 e8       	ldi	r18, 0x84	; 132
    495e:	3a eb       	ldi	r19, 0xBA	; 186
    4960:	4c e3       	ldi	r20, 0x3C	; 60
    4962:	58 e3       	ldi	r21, 0x38	; 56
    4964:	64 2d       	mov	r22, r4
    4966:	75 2d       	mov	r23, r5
    4968:	86 2d       	mov	r24, r6
    496a:	97 2d       	mov	r25, r7
    496c:	0e 94 24 41 	call	0x8248	; 0x8248 <__addsf3>
    4970:	a7 01       	movw	r20, r14
    4972:	96 01       	movw	r18, r12
    4974:	0e 94 ea 41 	call	0x83d4	; 0x83d4 <__cmpsf2>
    4978:	87 ff       	sbrs	r24, 7
    497a:	11 c0       	rjmp	.+34     	; 0x499e <_ZN6Anchor15updateAnchorBoxEff+0x156>
    497c:	ed 81       	ldd	r30, Y+5	; 0x05
    497e:	fe 81       	ldd	r31, Y+6	; 0x06
    4980:	82 81       	ldd	r24, Z+2	; 0x02
    4982:	93 81       	ldd	r25, Z+3	; 0x03
    4984:	0e 94 17 2b 	call	0x562e	; 0x562e <_ZN14FreeBoardModel10getAnchorSEv>
    4988:	9b 01       	movw	r18, r22
    498a:	ac 01       	movw	r20, r24
    498c:	64 2d       	mov	r22, r4
    498e:	75 2d       	mov	r23, r5
    4990:	86 2d       	mov	r24, r6
    4992:	97 2d       	mov	r25, r7
    4994:	0e 94 ed 43 	call	0x87da	; 0x87da <__gesf2>
    4998:	18 16       	cp	r1, r24
    499a:	0c f4       	brge	.+2      	; 0x499e <_ZN6Anchor15updateAnchorBoxEff+0x156>
    499c:	62 c0       	rjmp	.+196    	; 0x4a62 <_ZN6Anchor15updateAnchorBoxEff+0x21a>
		model->setAnchorS(s);
	if ((e - MINMTRS) > model->getAnchorW() && e < model->getAnchorE())
    499e:	ed 81       	ldd	r30, Y+5	; 0x05
    49a0:	fe 81       	ldd	r31, Y+6	; 0x06
    49a2:	82 81       	ldd	r24, Z+2	; 0x02
    49a4:	93 81       	ldd	r25, Z+3	; 0x03
    49a6:	0e 94 21 2b 	call	0x5642	; 0x5642 <_ZN14FreeBoardModel10getAnchorWEv>
    49aa:	2b 01       	movw	r4, r22
    49ac:	3c 01       	movw	r6, r24
    49ae:	24 e8       	ldi	r18, 0x84	; 132
    49b0:	3a eb       	ldi	r19, 0xBA	; 186
    49b2:	4c e3       	ldi	r20, 0x3C	; 60
    49b4:	58 e3       	ldi	r21, 0x38	; 56
    49b6:	68 2d       	mov	r22, r8
    49b8:	79 2d       	mov	r23, r9
    49ba:	8a 2d       	mov	r24, r10
    49bc:	9b 2d       	mov	r25, r11
    49be:	0e 94 23 41 	call	0x8246	; 0x8246 <__subsf3>
    49c2:	a3 01       	movw	r20, r6
    49c4:	92 01       	movw	r18, r4
    49c6:	0e 94 ed 43 	call	0x87da	; 0x87da <__gesf2>
    49ca:	18 16       	cp	r1, r24
    49cc:	84 f4       	brge	.+32     	; 0x49ee <_ZN6Anchor15updateAnchorBoxEff+0x1a6>
    49ce:	ed 81       	ldd	r30, Y+5	; 0x05
    49d0:	fe 81       	ldd	r31, Y+6	; 0x06
    49d2:	82 81       	ldd	r24, Z+2	; 0x02
    49d4:	93 81       	ldd	r25, Z+3	; 0x03
    49d6:	0e 94 cb 2a 	call	0x5596	; 0x5596 <_ZN14FreeBoardModel10getAnchorEEv>
    49da:	9b 01       	movw	r18, r22
    49dc:	ac 01       	movw	r20, r24
    49de:	68 2d       	mov	r22, r8
    49e0:	79 2d       	mov	r23, r9
    49e2:	8a 2d       	mov	r24, r10
    49e4:	9b 2d       	mov	r25, r11
    49e6:	0e 94 ea 41 	call	0x83d4	; 0x83d4 <__cmpsf2>
    49ea:	87 fd       	sbrc	r24, 7
    49ec:	45 c0       	rjmp	.+138    	; 0x4a78 <_ZN6Anchor15updateAnchorBoxEff+0x230>
		model->setAnchorE(e);
	if ((w + MINMTRS) < model->getAnchorE() && w > model->getAnchorW())
    49ee:	ed 81       	ldd	r30, Y+5	; 0x05
    49f0:	fe 81       	ldd	r31, Y+6	; 0x06
    49f2:	82 81       	ldd	r24, Z+2	; 0x02
    49f4:	93 81       	ldd	r25, Z+3	; 0x03
    49f6:	0e 94 cb 2a 	call	0x5596	; 0x5596 <_ZN14FreeBoardModel10getAnchorEEv>
    49fa:	4b 01       	movw	r8, r22
    49fc:	5c 01       	movw	r10, r24
    49fe:	24 e8       	ldi	r18, 0x84	; 132
    4a00:	3a eb       	ldi	r19, 0xBA	; 186
    4a02:	4c e3       	ldi	r20, 0x3C	; 60
    4a04:	58 e3       	ldi	r21, 0x38	; 56
    4a06:	ab 81       	ldd	r26, Y+3	; 0x03
    4a08:	fc 80       	ldd	r15, Y+4	; 0x04
    4a0a:	61 2f       	mov	r22, r17
    4a0c:	7a 2f       	mov	r23, r26
    4a0e:	8f 2d       	mov	r24, r15
    4a10:	90 2f       	mov	r25, r16
    4a12:	0e 94 24 41 	call	0x8248	; 0x8248 <__addsf3>
    4a16:	a5 01       	movw	r20, r10
    4a18:	94 01       	movw	r18, r8
    4a1a:	0e 94 ea 41 	call	0x83d4	; 0x83d4 <__cmpsf2>
    4a1e:	87 ff       	sbrs	r24, 7
    4a20:	5a c0       	rjmp	.+180    	; 0x4ad6 <_ZN6Anchor15updateAnchorBoxEff+0x28e>
    4a22:	ed 81       	ldd	r30, Y+5	; 0x05
    4a24:	fe 81       	ldd	r31, Y+6	; 0x06
    4a26:	82 81       	ldd	r24, Z+2	; 0x02
    4a28:	93 81       	ldd	r25, Z+3	; 0x03
    4a2a:	0e 94 21 2b 	call	0x5642	; 0x5642 <_ZN14FreeBoardModel10getAnchorWEv>
    4a2e:	9b 01       	movw	r18, r22
    4a30:	ac 01       	movw	r20, r24
    4a32:	ab 81       	ldd	r26, Y+3	; 0x03
    4a34:	fc 80       	ldd	r15, Y+4	; 0x04
    4a36:	61 2f       	mov	r22, r17
    4a38:	7a 2f       	mov	r23, r26
    4a3a:	8f 2d       	mov	r24, r15
    4a3c:	90 2f       	mov	r25, r16
    4a3e:	0e 94 ed 43 	call	0x87da	; 0x87da <__gesf2>
    4a42:	18 16       	cp	r1, r24
    4a44:	24 f1       	brlt	.+72     	; 0x4a8e <_ZN6Anchor15updateAnchorBoxEff+0x246>
    4a46:	47 c0       	rjmp	.+142    	; 0x4ad6 <_ZN6Anchor15updateAnchorBoxEff+0x28e>
	float s = laty - model->getAnchorRadiusDeg();
	float e = lonx + model->getAnchorRadiusDeg();
	float w = lonx - model->getAnchorRadiusDeg();
	//shrink anchor box if we can
	if ((n - MINMTRS) > model->getAnchorS() && n < model->getAnchorN())
		model->setAnchorN(n);
    4a48:	39 81       	ldd	r19, Y+1	; 0x01
    4a4a:	2a 81       	ldd	r18, Y+2	; 0x02
    4a4c:	43 2f       	mov	r20, r19
    4a4e:	52 2f       	mov	r21, r18
    4a50:	62 2d       	mov	r22, r2
    4a52:	73 2d       	mov	r23, r3
    4a54:	ed 81       	ldd	r30, Y+5	; 0x05
    4a56:	fe 81       	ldd	r31, Y+6	; 0x06
    4a58:	82 81       	ldd	r24, Z+2	; 0x02
    4a5a:	93 81       	ldd	r25, Z+3	; 0x03
    4a5c:	0e 94 62 2d 	call	0x5ac4	; 0x5ac4 <_ZN14FreeBoardModel10setAnchorNEf>
    4a60:	75 cf       	rjmp	.-278    	; 0x494c <_ZN6Anchor15updateAnchorBoxEff+0x104>
	if ((s + MINMTRS) < model->getAnchorN() && s > model->getAnchorS())
		model->setAnchorS(s);
    4a62:	44 2d       	mov	r20, r4
    4a64:	55 2d       	mov	r21, r5
    4a66:	66 2d       	mov	r22, r6
    4a68:	77 2d       	mov	r23, r7
    4a6a:	ed 81       	ldd	r30, Y+5	; 0x05
    4a6c:	fe 81       	ldd	r31, Y+6	; 0x06
    4a6e:	82 81       	ldd	r24, Z+2	; 0x02
    4a70:	93 81       	ldd	r25, Z+3	; 0x03
    4a72:	0e 94 76 2d 	call	0x5aec	; 0x5aec <_ZN14FreeBoardModel10setAnchorSEf>
    4a76:	93 cf       	rjmp	.-218    	; 0x499e <_ZN6Anchor15updateAnchorBoxEff+0x156>
	if ((e - MINMTRS) > model->getAnchorW() && e < model->getAnchorE())
		model->setAnchorE(e);
    4a78:	48 2d       	mov	r20, r8
    4a7a:	59 2d       	mov	r21, r9
    4a7c:	6a 2d       	mov	r22, r10
    4a7e:	7b 2d       	mov	r23, r11
    4a80:	ed 81       	ldd	r30, Y+5	; 0x05
    4a82:	fe 81       	ldd	r31, Y+6	; 0x06
    4a84:	82 81       	ldd	r24, Z+2	; 0x02
    4a86:	93 81       	ldd	r25, Z+3	; 0x03
    4a88:	0e 94 46 2d 	call	0x5a8c	; 0x5a8c <_ZN14FreeBoardModel10setAnchorEEf>
    4a8c:	b0 cf       	rjmp	.-160    	; 0x49ee <_ZN6Anchor15updateAnchorBoxEff+0x1a6>
	if ((w + MINMTRS) < model->getAnchorE() && w > model->getAnchorW())
		model->setAnchorW(w);
    4a8e:	2b 81       	ldd	r18, Y+3	; 0x03
    4a90:	9c 81       	ldd	r25, Y+4	; 0x04
    4a92:	41 2f       	mov	r20, r17
    4a94:	52 2f       	mov	r21, r18
    4a96:	69 2f       	mov	r22, r25
    4a98:	70 2f       	mov	r23, r16
    4a9a:	ed 81       	ldd	r30, Y+5	; 0x05
    4a9c:	fe 81       	ldd	r31, Y+6	; 0x06
    4a9e:	82 81       	ldd	r24, Z+2	; 0x02
    4aa0:	93 81       	ldd	r25, Z+3	; 0x03

}
    4aa2:	26 96       	adiw	r28, 0x06	; 6
    4aa4:	0f b6       	in	r0, 0x3f	; 63
    4aa6:	f8 94       	cli
    4aa8:	de bf       	out	0x3e, r29	; 62
    4aaa:	0f be       	out	0x3f, r0	; 63
    4aac:	cd bf       	out	0x3d, r28	; 61
    4aae:	df 91       	pop	r29
    4ab0:	cf 91       	pop	r28
    4ab2:	1f 91       	pop	r17
    4ab4:	0f 91       	pop	r16
    4ab6:	ff 90       	pop	r15
    4ab8:	ef 90       	pop	r14
    4aba:	df 90       	pop	r13
    4abc:	cf 90       	pop	r12
    4abe:	bf 90       	pop	r11
    4ac0:	af 90       	pop	r10
    4ac2:	9f 90       	pop	r9
    4ac4:	8f 90       	pop	r8
    4ac6:	7f 90       	pop	r7
    4ac8:	6f 90       	pop	r6
    4aca:	5f 90       	pop	r5
    4acc:	4f 90       	pop	r4
    4ace:	3f 90       	pop	r3
    4ad0:	2f 90       	pop	r2
	if ((s + MINMTRS) < model->getAnchorN() && s > model->getAnchorS())
		model->setAnchorS(s);
	if ((e - MINMTRS) > model->getAnchorW() && e < model->getAnchorE())
		model->setAnchorE(e);
	if ((w + MINMTRS) < model->getAnchorE() && w > model->getAnchorW())
		model->setAnchorW(w);
    4ad2:	0c 94 7c 2d 	jmp	0x5af8	; 0x5af8 <_ZN14FreeBoardModel10setAnchorWEf>

}
    4ad6:	26 96       	adiw	r28, 0x06	; 6
    4ad8:	0f b6       	in	r0, 0x3f	; 63
    4ada:	f8 94       	cli
    4adc:	de bf       	out	0x3e, r29	; 62
    4ade:	0f be       	out	0x3f, r0	; 63
    4ae0:	cd bf       	out	0x3d, r28	; 61
    4ae2:	df 91       	pop	r29
    4ae4:	cf 91       	pop	r28
    4ae6:	1f 91       	pop	r17
    4ae8:	0f 91       	pop	r16
    4aea:	ff 90       	pop	r15
    4aec:	ef 90       	pop	r14
    4aee:	df 90       	pop	r13
    4af0:	cf 90       	pop	r12
    4af2:	bf 90       	pop	r11
    4af4:	af 90       	pop	r10
    4af6:	9f 90       	pop	r9
    4af8:	8f 90       	pop	r8
    4afa:	7f 90       	pop	r7
    4afc:	6f 90       	pop	r6
    4afe:	5f 90       	pop	r5
    4b00:	4f 90       	pop	r4
    4b02:	3f 90       	pop	r3
    4b04:	2f 90       	pop	r2
    4b06:	08 95       	ret

00004b08 <_ZN6Anchor14resetAnchorBoxEff>:

void Anchor::resetAnchorBox(float laty, float lonx) {
    4b08:	8f 92       	push	r8
    4b0a:	9f 92       	push	r9
    4b0c:	af 92       	push	r10
    4b0e:	bf 92       	push	r11
    4b10:	cf 92       	push	r12
    4b12:	df 92       	push	r13
    4b14:	ef 92       	push	r14
    4b16:	ff 92       	push	r15
    4b18:	0f 93       	push	r16
    4b1a:	1f 93       	push	r17
    4b1c:	cf 93       	push	r28
    4b1e:	df 93       	push	r29
    4b20:	ec 01       	movw	r28, r24
    4b22:	6a 01       	movw	r12, r20
    4b24:	7b 01       	movw	r14, r22
    4b26:	48 01       	movw	r8, r16
    4b28:	59 01       	movw	r10, r18
	model->setAnchorN(90.0);
    4b2a:	40 e0       	ldi	r20, 0x00	; 0
    4b2c:	50 e0       	ldi	r21, 0x00	; 0
    4b2e:	64 eb       	ldi	r22, 0xB4	; 180
    4b30:	72 e4       	ldi	r23, 0x42	; 66
    4b32:	8a 81       	ldd	r24, Y+2	; 0x02
    4b34:	9b 81       	ldd	r25, Y+3	; 0x03
    4b36:	0e 94 62 2d 	call	0x5ac4	; 0x5ac4 <_ZN14FreeBoardModel10setAnchorNEf>
	model->setAnchorS(-90.0);
    4b3a:	40 e0       	ldi	r20, 0x00	; 0
    4b3c:	50 e0       	ldi	r21, 0x00	; 0
    4b3e:	64 eb       	ldi	r22, 0xB4	; 180
    4b40:	72 ec       	ldi	r23, 0xC2	; 194
    4b42:	8a 81       	ldd	r24, Y+2	; 0x02
    4b44:	9b 81       	ldd	r25, Y+3	; 0x03
    4b46:	0e 94 76 2d 	call	0x5aec	; 0x5aec <_ZN14FreeBoardModel10setAnchorSEf>
	model->setAnchorE(180.0);
    4b4a:	40 e0       	ldi	r20, 0x00	; 0
    4b4c:	50 e0       	ldi	r21, 0x00	; 0
    4b4e:	64 e3       	ldi	r22, 0x34	; 52
    4b50:	73 e4       	ldi	r23, 0x43	; 67
    4b52:	8a 81       	ldd	r24, Y+2	; 0x02
    4b54:	9b 81       	ldd	r25, Y+3	; 0x03
    4b56:	0e 94 46 2d 	call	0x5a8c	; 0x5a8c <_ZN14FreeBoardModel10setAnchorEEf>
	model->setAnchorW(-180.0);
    4b5a:	40 e0       	ldi	r20, 0x00	; 0
    4b5c:	50 e0       	ldi	r21, 0x00	; 0
    4b5e:	64 e3       	ldi	r22, 0x34	; 52
    4b60:	73 ec       	ldi	r23, 0xC3	; 195
    4b62:	8a 81       	ldd	r24, Y+2	; 0x02
    4b64:	9b 81       	ldd	r25, Y+3	; 0x03
    4b66:	0e 94 7c 2d 	call	0x5af8	; 0x5af8 <_ZN14FreeBoardModel10setAnchorWEf>
	model->setAnchorRadiusDeg(model->getAnchorRadius() * LLMTRS);
    4b6a:	8a 81       	ldd	r24, Y+2	; 0x02
    4b6c:	9b 81       	ldd	r25, Y+3	; 0x03
    4b6e:	0e 94 01 2b 	call	0x5602	; 0x5602 <_ZN14FreeBoardModel15getAnchorRadiusEv>
    4b72:	2d e9       	ldi	r18, 0x9D	; 157
    4b74:	3b ef       	ldi	r19, 0xFB	; 251
    4b76:	46 e1       	ldi	r20, 0x16	; 22
    4b78:	57 e3       	ldi	r21, 0x37	; 55
    4b7a:	0e 94 f8 43 	call	0x87f0	; 0x87f0 <__mulsf3>
    4b7e:	ab 01       	movw	r20, r22
    4b80:	bc 01       	movw	r22, r24
    4b82:	8a 81       	ldd	r24, Y+2	; 0x02
    4b84:	9b 81       	ldd	r25, Y+3	; 0x03
    4b86:	0e 94 70 2d 	call	0x5ae0	; 0x5ae0 <_ZN14FreeBoardModel18setAnchorRadiusDegEf>
	updateAnchorBox(laty, lonx);
    4b8a:	95 01       	movw	r18, r10
    4b8c:	84 01       	movw	r16, r8
    4b8e:	b7 01       	movw	r22, r14
    4b90:	a6 01       	movw	r20, r12
    4b92:	ce 01       	movw	r24, r28
    4b94:	0e 94 24 24 	call	0x4848	; 0x4848 <_ZN6Anchor15updateAnchorBoxEff>
}
    4b98:	df 91       	pop	r29
    4b9a:	cf 91       	pop	r28
    4b9c:	1f 91       	pop	r17
    4b9e:	0f 91       	pop	r16
    4ba0:	ff 90       	pop	r15
    4ba2:	ef 90       	pop	r14
    4ba4:	df 90       	pop	r13
    4ba6:	cf 90       	pop	r12
    4ba8:	bf 90       	pop	r11
    4baa:	af 90       	pop	r10
    4bac:	9f 90       	pop	r9
    4bae:	8f 90       	pop	r8
    4bb0:	08 95       	ret

00004bb2 <_ZN6AnchorC1EP14FreeBoardModel>:

#include "Anchor.h"



Anchor::Anchor(FreeBoardModel* model) {
    4bb2:	cf 92       	push	r12
    4bb4:	df 92       	push	r13
    4bb6:	ef 92       	push	r14
    4bb8:	ff 92       	push	r15
    4bba:	0f 93       	push	r16
    4bbc:	1f 93       	push	r17
    4bbe:	cf 93       	push	r28
    4bc0:	df 93       	push	r29
    4bc2:	1f 92       	push	r1
    4bc4:	1f 92       	push	r1
    4bc6:	cd b7       	in	r28, 0x3d	; 61
    4bc8:	de b7       	in	r29, 0x3e	; 62
    4bca:	6c 01       	movw	r12, r24
    4bcc:	7b 01       	movw	r14, r22
    4bce:	80 e3       	ldi	r24, 0x30	; 48
    4bd0:	92 e0       	ldi	r25, 0x02	; 2
    4bd2:	f6 01       	movw	r30, r12
    4bd4:	91 83       	std	Z+1, r25	; 0x01
    4bd6:	80 83       	st	Z, r24


	this->model=model;
    4bd8:	73 83       	std	Z+3, r23	; 0x03
    4bda:	62 83       	std	Z+2, r22	; 0x02
	resetAnchorBox(model->getAnchorLat(), model->getAnchorLon());
    4bdc:	cb 01       	movw	r24, r22
    4bde:	0e 94 e1 2a 	call	0x55c2	; 0x55c2 <_ZN14FreeBoardModel12getAnchorLonEv>
    4be2:	8b 01       	movw	r16, r22
    4be4:	9c 01       	movw	r18, r24
    4be6:	c7 01       	movw	r24, r14
    4be8:	29 83       	std	Y+1, r18	; 0x01
    4bea:	3a 83       	std	Y+2, r19	; 0x02
    4bec:	0e 94 d5 2a 	call	0x55aa	; 0x55aa <_ZN14FreeBoardModel12getAnchorLatEv>
    4bf0:	ab 01       	movw	r20, r22
    4bf2:	bc 01       	movw	r22, r24
    4bf4:	29 81       	ldd	r18, Y+1	; 0x01
    4bf6:	3a 81       	ldd	r19, Y+2	; 0x02
    4bf8:	c6 01       	movw	r24, r12
    4bfa:	0e 94 84 25 	call	0x4b08	; 0x4b08 <_ZN6Anchor14resetAnchorBoxEff>
}
    4bfe:	0f 90       	pop	r0
    4c00:	0f 90       	pop	r0
    4c02:	df 91       	pop	r29
    4c04:	cf 91       	pop	r28
    4c06:	1f 91       	pop	r17
    4c08:	0f 91       	pop	r16
    4c0a:	ff 90       	pop	r15
    4c0c:	ef 90       	pop	r14
    4c0e:	df 90       	pop	r13
    4c10:	cf 90       	pop	r12
    4c12:	08 95       	ret

00004c14 <_ZN6Anchor11checkAnchorEv>:
		model->setAnchorW(model->getAnchorW() - change);

	}
}
/*calc all params, and set alarm buzzer state*/
void Anchor::checkAnchor() {
    4c14:	8f 92       	push	r8
    4c16:	9f 92       	push	r9
    4c18:	af 92       	push	r10
    4c1a:	bf 92       	push	r11
    4c1c:	cf 92       	push	r12
    4c1e:	df 92       	push	r13
    4c20:	ef 92       	push	r14
    4c22:	ff 92       	push	r15
    4c24:	0f 93       	push	r16
    4c26:	1f 93       	push	r17
    4c28:	cf 93       	push	r28
    4c2a:	df 93       	push	r29
    4c2c:	00 d0       	rcall	.+0      	; 0x4c2e <_ZN6Anchor11checkAnchorEv+0x1a>
    4c2e:	1f 92       	push	r1
    4c30:	cd b7       	in	r28, 0x3d	; 61
    4c32:	de b7       	in	r29, 0x3e	; 62
    4c34:	4c 01       	movw	r8, r24

	//we dont need to do this if the anchor alarm is off
	if(model->isAnchorAlarmOn()){
    4c36:	fc 01       	movw	r30, r24
    4c38:	82 81       	ldd	r24, Z+2	; 0x02
    4c3a:	93 81       	ldd	r25, Z+3	; 0x03
    4c3c:	0e 94 1d 2d 	call	0x5a3a	; 0x5a3a <_ZN14FreeBoardModel15isAnchorAlarmOnEv>
    4c40:	88 23       	and	r24, r24
    4c42:	09 f4       	brne	.+2      	; 0x4c46 <_ZN6Anchor11checkAnchorEv+0x32>
    4c44:	cf c0       	rjmp	.+414    	; 0x4de4 <_ZN6Anchor11checkAnchorEv+0x1d0>
		//TODO: if anchor distance greater than 1000 mtrs its probably a mistake so dont fire alarm?
		// check if GPS positioning was active, if we havent had a signal in a while that may be a problem....
		if ((millis() - model->getGpsLastFix() > MAX_SINCE_LAST_GPS_FIX)
    4c46:	0e 94 e7 15 	call	0x2bce	; 0x2bce <millis>
    4c4a:	6b 01       	movw	r12, r22
    4c4c:	7c 01       	movw	r14, r24
    4c4e:	f4 01       	movw	r30, r8
    4c50:	82 81       	ldd	r24, Z+2	; 0x02
    4c52:	93 81       	ldd	r25, Z+3	; 0x03
    4c54:	0e 94 a8 2c 	call	0x5950	; 0x5950 <_ZN14FreeBoardModel13getGpsLastFixEv>
    4c58:	c6 1a       	sub	r12, r22
    4c5a:	d7 0a       	sbc	r13, r23
    4c5c:	e8 0a       	sbc	r14, r24
    4c5e:	f9 0a       	sbc	r15, r25
    4c60:	f1 ee       	ldi	r31, 0xE1	; 225
    4c62:	cf 16       	cp	r12, r31
    4c64:	f3 e9       	ldi	r31, 0x93	; 147
    4c66:	df 06       	cpc	r13, r31
    4c68:	f4 e0       	ldi	r31, 0x04	; 4
    4c6a:	ef 06       	cpc	r14, r31
    4c6c:	f1 04       	cpc	r15, r1
    4c6e:	38 f0       	brcs	.+14     	; 0x4c7e <_ZN6Anchor11checkAnchorEv+0x6a>
				&& model->isAnchorAlarmOn()) {
    4c70:	f4 01       	movw	r30, r8
    4c72:	82 81       	ldd	r24, Z+2	; 0x02
    4c74:	93 81       	ldd	r25, Z+3	; 0x03
    4c76:	0e 94 1d 2d 	call	0x5a3a	; 0x5a3a <_ZN14FreeBoardModel15isAnchorAlarmOnEv>

	//we dont need to do this if the anchor alarm is off
	if(model->isAnchorAlarmOn()){
		//TODO: if anchor distance greater than 1000 mtrs its probably a mistake so dont fire alarm?
		// check if GPS positioning was active, if we havent had a signal in a while that may be a problem....
		if ((millis() - model->getGpsLastFix() > MAX_SINCE_LAST_GPS_FIX)
    4c7a:	81 11       	cpse	r24, r1
    4c7c:	84 c0       	rjmp	.+264    	; 0x4d86 <_ZN6Anchor11checkAnchorEv+0x172>
				&& model->isAnchorAlarmOn()) {
			model->setAlarmSnooze(0);
			model->setAnchorAlarmTriggered(true);
		}
		//now check position
		if (model->getGpsStatus()) {
    4c7e:	f4 01       	movw	r30, r8
    4c80:	82 81       	ldd	r24, Z+2	; 0x02
    4c82:	93 81       	ldd	r25, Z+3	; 0x03
    4c84:	0e 94 d4 2c 	call	0x59a8	; 0x59a8 <_ZN14FreeBoardModel12getGpsStatusEv>
    4c88:	88 23       	and	r24, r24
    4c8a:	09 f4       	brne	.+2      	; 0x4c8e <_ZN6Anchor11checkAnchorEv+0x7a>
    4c8c:	ab c0       	rjmp	.+342    	; 0x4de4 <_ZN6Anchor11checkAnchorEv+0x1d0>
			model->setAnchorDistance(Gps::getMetersTo(model->getAnchorLat(), model->getAnchorLon(),model->getGpsLatitude(),model->getGpsLongitude()));
    4c8e:	f4 01       	movw	r30, r8
    4c90:	82 81       	ldd	r24, Z+2	; 0x02
    4c92:	93 81       	ldd	r25, Z+3	; 0x03
    4c94:	0e 94 bc 2c 	call	0x5978	; 0x5978 <_ZN14FreeBoardModel15getGpsLongitudeEv>
    4c98:	5b 01       	movw	r10, r22
    4c9a:	6c 01       	movw	r12, r24
    4c9c:	f4 01       	movw	r30, r8
    4c9e:	82 81       	ldd	r24, Z+2	; 0x02
    4ca0:	93 81       	ldd	r25, Z+3	; 0x03
    4ca2:	0e 94 b0 2c 	call	0x5960	; 0x5960 <_ZN14FreeBoardModel14getGpsLatitudeEv>
    4ca6:	7b 01       	movw	r14, r22
    4ca8:	8c 01       	movw	r16, r24
    4caa:	f4 01       	movw	r30, r8
    4cac:	82 81       	ldd	r24, Z+2	; 0x02
    4cae:	93 81       	ldd	r25, Z+3	; 0x03
    4cb0:	0e 94 e1 2a 	call	0x55c2	; 0x55c2 <_ZN14FreeBoardModel12getAnchorLonEv>
    4cb4:	9b 01       	movw	r18, r22
    4cb6:	ac 01       	movw	r20, r24
    4cb8:	f4 01       	movw	r30, r8
    4cba:	82 81       	ldd	r24, Z+2	; 0x02
    4cbc:	93 81       	ldd	r25, Z+3	; 0x03
    4cbe:	2b 83       	std	Y+3, r18	; 0x03
    4cc0:	3c 83       	std	Y+4, r19	; 0x04
    4cc2:	49 83       	std	Y+1, r20	; 0x01
    4cc4:	5a 83       	std	Y+2, r21	; 0x02
    4cc6:	0e 94 d5 2a 	call	0x55aa	; 0x55aa <_ZN14FreeBoardModel12getAnchorLatEv>
    4cca:	2b 81       	ldd	r18, Y+3	; 0x03
    4ccc:	3c 81       	ldd	r19, Y+4	; 0x04
    4cce:	49 81       	ldd	r20, Y+1	; 0x01
    4cd0:	5a 81       	ldd	r21, Y+2	; 0x02
    4cd2:	0e 94 11 35 	call	0x6a22	; 0x6a22 <_ZN3Gps11getMetersToEffff>
    4cd6:	ab 01       	movw	r20, r22
    4cd8:	bc 01       	movw	r22, r24
    4cda:	f4 01       	movw	r30, r8
    4cdc:	82 81       	ldd	r24, Z+2	; 0x02
    4cde:	93 81       	ldd	r25, Z+3	; 0x03
    4ce0:	0e 94 40 2d 	call	0x5a80	; 0x5a80 <_ZN14FreeBoardModel17setAnchorDistanceEf>
			if (model->getAnchorDistance() > model->getAnchorMaxDistance())
    4ce4:	f4 01       	movw	r30, r8
    4ce6:	82 81       	ldd	r24, Z+2	; 0x02
    4ce8:	93 81       	ldd	r25, Z+3	; 0x03
    4cea:	0e 94 c1 2a 	call	0x5582	; 0x5582 <_ZN14FreeBoardModel17getAnchorDistanceEv>
    4cee:	6b 01       	movw	r12, r22
    4cf0:	7c 01       	movw	r14, r24
    4cf2:	f4 01       	movw	r30, r8
    4cf4:	82 81       	ldd	r24, Z+2	; 0x02
    4cf6:	93 81       	ldd	r25, Z+3	; 0x03
    4cf8:	0e 94 ed 2a 	call	0x55da	; 0x55da <_ZN14FreeBoardModel20getAnchorMaxDistanceEv>
    4cfc:	9b 01       	movw	r18, r22
    4cfe:	ac 01       	movw	r20, r24
    4d00:	c7 01       	movw	r24, r14
    4d02:	b6 01       	movw	r22, r12
    4d04:	0e 94 ed 43 	call	0x87da	; 0x87da <__gesf2>
    4d08:	18 16       	cp	r1, r24
    4d0a:	64 f4       	brge	.+24     	; 0x4d24 <_ZN6Anchor11checkAnchorEv+0x110>
				model->setAnchorMaxDistance(model->getAnchorDistance());
    4d0c:	f4 01       	movw	r30, r8
    4d0e:	82 81       	ldd	r24, Z+2	; 0x02
    4d10:	93 81       	ldd	r25, Z+3	; 0x03
    4d12:	0e 94 c1 2a 	call	0x5582	; 0x5582 <_ZN14FreeBoardModel17getAnchorDistanceEv>
    4d16:	ab 01       	movw	r20, r22
    4d18:	bc 01       	movw	r22, r24
    4d1a:	f4 01       	movw	r30, r8
    4d1c:	82 81       	ldd	r24, Z+2	; 0x02
    4d1e:	93 81       	ldd	r25, Z+3	; 0x03
    4d20:	0e 94 5c 2d 	call	0x5ab8	; 0x5ab8 <_ZN14FreeBoardModel20setAnchorMaxDistanceEf>

			//update the anchor box
			updateAnchorBox(model->getGpsLatitude(), model->getGpsLongitude());
    4d24:	f4 01       	movw	r30, r8
    4d26:	82 81       	ldd	r24, Z+2	; 0x02
    4d28:	93 81       	ldd	r25, Z+3	; 0x03
    4d2a:	0e 94 bc 2c 	call	0x5978	; 0x5978 <_ZN14FreeBoardModel15getGpsLongitudeEv>
    4d2e:	8b 01       	movw	r16, r22
    4d30:	9c 01       	movw	r18, r24
    4d32:	f4 01       	movw	r30, r8
    4d34:	82 81       	ldd	r24, Z+2	; 0x02
    4d36:	93 81       	ldd	r25, Z+3	; 0x03
    4d38:	2b 83       	std	Y+3, r18	; 0x03
    4d3a:	3c 83       	std	Y+4, r19	; 0x04
    4d3c:	0e 94 b0 2c 	call	0x5960	; 0x5960 <_ZN14FreeBoardModel14getGpsLatitudeEv>
    4d40:	ab 01       	movw	r20, r22
    4d42:	bc 01       	movw	r22, r24
    4d44:	2b 81       	ldd	r18, Y+3	; 0x03
    4d46:	3c 81       	ldd	r19, Y+4	; 0x04
    4d48:	c4 01       	movw	r24, r8
    4d4a:	0e 94 24 24 	call	0x4848	; 0x4848 <_ZN6Anchor15updateAnchorBoxEff>

			// read distance to anchorPoint in meters and set anchorAlarm accordingly
			// if ( anchorAlarmOn && (anchorDistance > anchorRadius || !inAnchorBox(gps->gprmc_latitude(),gps->gprmc_longitude()))) {
			if (model->isAnchorAlarmOn() && model->getAnchorDistance() > model->getAnchorRadius()) {
    4d4e:	f4 01       	movw	r30, r8
    4d50:	82 81       	ldd	r24, Z+2	; 0x02
    4d52:	93 81       	ldd	r25, Z+3	; 0x03
    4d54:	0e 94 1d 2d 	call	0x5a3a	; 0x5a3a <_ZN14FreeBoardModel15isAnchorAlarmOnEv>
    4d58:	88 23       	and	r24, r24
    4d5a:	71 f1       	breq	.+92     	; 0x4db8 <_ZN6Anchor11checkAnchorEv+0x1a4>
    4d5c:	f4 01       	movw	r30, r8
    4d5e:	82 81       	ldd	r24, Z+2	; 0x02
    4d60:	93 81       	ldd	r25, Z+3	; 0x03
    4d62:	0e 94 c1 2a 	call	0x5582	; 0x5582 <_ZN14FreeBoardModel17getAnchorDistanceEv>
    4d66:	6b 01       	movw	r12, r22
    4d68:	7c 01       	movw	r14, r24
    4d6a:	f4 01       	movw	r30, r8
    4d6c:	82 81       	ldd	r24, Z+2	; 0x02
    4d6e:	93 81       	ldd	r25, Z+3	; 0x03
    4d70:	0e 94 01 2b 	call	0x5602	; 0x5602 <_ZN14FreeBoardModel15getAnchorRadiusEv>
    4d74:	9b 01       	movw	r18, r22
    4d76:	ac 01       	movw	r20, r24
    4d78:	c7 01       	movw	r24, r14
    4d7a:	b6 01       	movw	r22, r12
    4d7c:	0e 94 ed 43 	call	0x87da	; 0x87da <__gesf2>
    4d80:	18 16       	cp	r1, r24
    4d82:	84 f0       	brlt	.+32     	; 0x4da4 <_ZN6Anchor11checkAnchorEv+0x190>
    4d84:	19 c0       	rjmp	.+50     	; 0x4db8 <_ZN6Anchor11checkAnchorEv+0x1a4>
	if(model->isAnchorAlarmOn()){
		//TODO: if anchor distance greater than 1000 mtrs its probably a mistake so dont fire alarm?
		// check if GPS positioning was active, if we havent had a signal in a while that may be a problem....
		if ((millis() - model->getGpsLastFix() > MAX_SINCE_LAST_GPS_FIX)
				&& model->isAnchorAlarmOn()) {
			model->setAlarmSnooze(0);
    4d86:	40 e0       	ldi	r20, 0x00	; 0
    4d88:	50 e0       	ldi	r21, 0x00	; 0
    4d8a:	ba 01       	movw	r22, r20
    4d8c:	f4 01       	movw	r30, r8
    4d8e:	82 81       	ldd	r24, Z+2	; 0x02
    4d90:	93 81       	ldd	r25, Z+3	; 0x03
    4d92:	0e 94 32 2d 	call	0x5a64	; 0x5a64 <_ZN14FreeBoardModel14setAlarmSnoozeEm>
			model->setAnchorAlarmTriggered(true);
    4d96:	61 e0       	ldi	r22, 0x01	; 1
    4d98:	f4 01       	movw	r30, r8
    4d9a:	82 81       	ldd	r24, Z+2	; 0x02
    4d9c:	93 81       	ldd	r25, Z+3	; 0x03
    4d9e:	0e 94 3d 2d 	call	0x5a7a	; 0x5a7a <_ZN14FreeBoardModel23setAnchorAlarmTriggeredEb>
    4da2:	6d cf       	rjmp	.-294    	; 0x4c7e <_ZN6Anchor11checkAnchorEv+0x6a>
			updateAnchorBox(model->getGpsLatitude(), model->getGpsLongitude());

			// read distance to anchorPoint in meters and set anchorAlarm accordingly
			// if ( anchorAlarmOn && (anchorDistance > anchorRadius || !inAnchorBox(gps->gprmc_latitude(),gps->gprmc_longitude()))) {
			if (model->isAnchorAlarmOn() && model->getAnchorDistance() > model->getAnchorRadius()) {
				model->setAlarmSnooze(0);
    4da4:	40 e0       	ldi	r20, 0x00	; 0
    4da6:	50 e0       	ldi	r21, 0x00	; 0
    4da8:	ba 01       	movw	r22, r20
    4daa:	f4 01       	movw	r30, r8
    4dac:	82 81       	ldd	r24, Z+2	; 0x02
    4dae:	93 81       	ldd	r25, Z+3	; 0x03
    4db0:	0e 94 32 2d 	call	0x5a64	; 0x5a64 <_ZN14FreeBoardModel14setAlarmSnoozeEm>
				model->setAnchorAlarmTriggered(true);
    4db4:	61 e0       	ldi	r22, 0x01	; 1
    4db6:	01 c0       	rjmp	.+2      	; 0x4dba <_ZN6Anchor11checkAnchorEv+0x1a6>
			} else {
				model->setAnchorAlarmTriggered(false);
    4db8:	60 e0       	ldi	r22, 0x00	; 0
    4dba:	f4 01       	movw	r30, r8
    4dbc:	82 81       	ldd	r24, Z+2	; 0x02
    4dbe:	93 81       	ldd	r25, Z+3	; 0x03
			}
		}
	}

}
    4dc0:	0f 90       	pop	r0
    4dc2:	0f 90       	pop	r0
    4dc4:	0f 90       	pop	r0
    4dc6:	0f 90       	pop	r0
    4dc8:	df 91       	pop	r29
    4dca:	cf 91       	pop	r28
    4dcc:	1f 91       	pop	r17
    4dce:	0f 91       	pop	r16
    4dd0:	ff 90       	pop	r15
    4dd2:	ef 90       	pop	r14
    4dd4:	df 90       	pop	r13
    4dd6:	cf 90       	pop	r12
    4dd8:	bf 90       	pop	r11
    4dda:	af 90       	pop	r10
    4ddc:	9f 90       	pop	r9
    4dde:	8f 90       	pop	r8
			// if ( anchorAlarmOn && (anchorDistance > anchorRadius || !inAnchorBox(gps->gprmc_latitude(),gps->gprmc_longitude()))) {
			if (model->isAnchorAlarmOn() && model->getAnchorDistance() > model->getAnchorRadius()) {
				model->setAlarmSnooze(0);
				model->setAnchorAlarmTriggered(true);
			} else {
				model->setAnchorAlarmTriggered(false);
    4de0:	0c 94 3d 2d 	jmp	0x5a7a	; 0x5a7a <_ZN14FreeBoardModel23setAnchorAlarmTriggeredEb>
			}
		}
	}

}
    4de4:	0f 90       	pop	r0
    4de6:	0f 90       	pop	r0
    4de8:	0f 90       	pop	r0
    4dea:	0f 90       	pop	r0
    4dec:	df 91       	pop	r29
    4dee:	cf 91       	pop	r28
    4df0:	1f 91       	pop	r17
    4df2:	0f 91       	pop	r16
    4df4:	ff 90       	pop	r15
    4df6:	ef 90       	pop	r14
    4df8:	df 90       	pop	r13
    4dfa:	cf 90       	pop	r12
    4dfc:	bf 90       	pop	r11
    4dfe:	af 90       	pop	r10
    4e00:	9f 90       	pop	r9
    4e02:	8f 90       	pop	r8
    4e04:	08 95       	ret

00004e06 <_ZN6Anchor14setAnchorPointEv>:

/*Set anchor position*/
void Anchor::setAnchorPoint() {
    4e06:	cf 93       	push	r28
    4e08:	df 93       	push	r29
    4e0a:	ec 01       	movw	r28, r24
	model->setAnchorLat(model->getGpsLatitude());
    4e0c:	8a 81       	ldd	r24, Y+2	; 0x02
    4e0e:	9b 81       	ldd	r25, Y+3	; 0x03
    4e10:	0e 94 b0 2c 	call	0x5960	; 0x5960 <_ZN14FreeBoardModel14getGpsLatitudeEv>
    4e14:	ab 01       	movw	r20, r22
    4e16:	bc 01       	movw	r22, r24
    4e18:	8a 81       	ldd	r24, Y+2	; 0x02
    4e1a:	9b 81       	ldd	r25, Y+3	; 0x03
    4e1c:	0e 94 4c 2d 	call	0x5a98	; 0x5a98 <_ZN14FreeBoardModel12setAnchorLatEf>
	model->setAnchorLon(model->getGpsLongitude());
    4e20:	8a 81       	ldd	r24, Y+2	; 0x02
    4e22:	9b 81       	ldd	r25, Y+3	; 0x03
    4e24:	0e 94 bc 2c 	call	0x5978	; 0x5978 <_ZN14FreeBoardModel15getGpsLongitudeEv>
    4e28:	ab 01       	movw	r20, r22
    4e2a:	bc 01       	movw	r22, r24
    4e2c:	8a 81       	ldd	r24, Y+2	; 0x02
    4e2e:	9b 81       	ldd	r25, Y+3	; 0x03
    4e30:	0e 94 54 2d 	call	0x5aa8	; 0x5aa8 <_ZN14FreeBoardModel12setAnchorLonEf>
	model->setAnchorMaxDistance(0);
    4e34:	40 e0       	ldi	r20, 0x00	; 0
    4e36:	50 e0       	ldi	r21, 0x00	; 0
    4e38:	ba 01       	movw	r22, r20
    4e3a:	8a 81       	ldd	r24, Y+2	; 0x02
    4e3c:	9b 81       	ldd	r25, Y+3	; 0x03

}
    4e3e:	df 91       	pop	r29
    4e40:	cf 91       	pop	r28

/*Set anchor position*/
void Anchor::setAnchorPoint() {
	model->setAnchorLat(model->getGpsLatitude());
	model->setAnchorLon(model->getGpsLongitude());
	model->setAnchorMaxDistance(0);
    4e42:	0c 94 5c 2d 	jmp	0x5ab8	; 0x5ab8 <_ZN14FreeBoardModel20setAnchorMaxDistanceEf>

00004e46 <_ZN9AutopilotC1EP14FreeBoardModel>:
 * And lastly, if the second you enable the controller the output goes in the wrong direction and pegs at 0 or 100%, you've got the sign of the P_Param wrong.
 * That is, if you've got a 3 in there, make it -3.
 */
#include "Autopilot.h"

Autopilot::Autopilot(FreeBoardModel* model) {
    4e46:	6f 92       	push	r6
    4e48:	7f 92       	push	r7
    4e4a:	8f 92       	push	r8
    4e4c:	9f 92       	push	r9
    4e4e:	af 92       	push	r10
    4e50:	bf 92       	push	r11
    4e52:	cf 92       	push	r12
    4e54:	df 92       	push	r13
    4e56:	ef 92       	push	r14
    4e58:	ff 92       	push	r15
    4e5a:	0f 93       	push	r16
    4e5c:	1f 93       	push	r17
    4e5e:	cf 93       	push	r28
    4e60:	df 93       	push	r29
    4e62:	cd b7       	in	r28, 0x3d	; 61
    4e64:	de b7       	in	r29, 0x3e	; 62
    4e66:	e7 97       	sbiw	r28, 0x37	; 55
    4e68:	0f b6       	in	r0, 0x3f	; 63
    4e6a:	f8 94       	cli
    4e6c:	de bf       	out	0x3e, r29	; 62
    4e6e:	0f be       	out	0x3f, r0	; 63
    4e70:	cd bf       	out	0x3d, r28	; 61
    4e72:	4c 01       	movw	r8, r24
    4e74:	8b 01       	movw	r16, r22
    4e76:	3c 01       	movw	r6, r24
    4e78:	83 e1       	ldi	r24, 0x13	; 19
    4e7a:	68 0e       	add	r6, r24
    4e7c:	71 1c       	adc	r7, r1
    4e7e:	c3 01       	movw	r24, r6
    4e80:	0e 94 e2 17 	call	0x2fc4	; 0x2fc4 <_ZN3PIDC1Ev>
	this->model = model;
    4e84:	f4 01       	movw	r30, r8
    4e86:	12 8b       	std	Z+18, r17	; 0x12
    4e88:	01 8b       	std	Z+17, r16	; 0x11
	autopilotTargetHeading = model->getAutopilotTargetHeading() + 720;
    4e8a:	c8 01       	movw	r24, r16
    4e8c:	0e 94 35 2b 	call	0x566a	; 0x566a <_ZN14FreeBoardModel25getAutopilotTargetHeadingEv>
    4e90:	20 e0       	ldi	r18, 0x00	; 0
    4e92:	30 e0       	ldi	r19, 0x00	; 0
    4e94:	44 e3       	ldi	r20, 0x34	; 52
    4e96:	54 e4       	ldi	r21, 0x44	; 68
    4e98:	0e 94 24 41 	call	0x8248	; 0x8248 <__addsf3>
    4e9c:	6b 01       	movw	r12, r22
    4e9e:	7c 01       	movw	r14, r24
    4ea0:	98 2f       	mov	r25, r24
    4ea2:	4c 2d       	mov	r20, r12
    4ea4:	5d 2d       	mov	r21, r13
    4ea6:	69 2f       	mov	r22, r25
    4ea8:	7f 2d       	mov	r23, r15
    4eaa:	f4 01       	movw	r30, r8
    4eac:	40 83       	st	Z, r20
    4eae:	51 83       	std	Z+1, r21	; 0x01
    4eb0:	62 83       	std	Z+2, r22	; 0x02
    4eb2:	73 83       	std	Z+3, r23	; 0x03
	autopilotCurrentHeading = autopilotTargetHeading + model->getAutopilotOffCourse();
    4eb4:	c8 01       	movw	r24, r16
    4eb6:	0e 94 53 2b 	call	0x56a6	; 0x56a6 <_ZN14FreeBoardModel21getAutopilotOffCourseEv>
    4eba:	9b 01       	movw	r18, r22
    4ebc:	ac 01       	movw	r20, r24
    4ebe:	6c 2d       	mov	r22, r12
    4ec0:	7d 2d       	mov	r23, r13
    4ec2:	8e 2d       	mov	r24, r14
    4ec4:	9f 2d       	mov	r25, r15
    4ec6:	0e 94 24 41 	call	0x8248	; 0x8248 <__addsf3>
    4eca:	f4 01       	movw	r30, r8
    4ecc:	64 83       	std	Z+4, r22	; 0x04
    4ece:	75 83       	std	Z+5, r23	; 0x05
    4ed0:	86 83       	std	Z+6, r24	; 0x06
    4ed2:	97 83       	std	Z+7, r25	; 0x07
	autopilotRudderCommand = model->getAutopilotRudderCommand();
    4ed4:	c8 01       	movw	r24, r16
    4ed6:	0e 94 2b 2b 	call	0x5656	; 0x5656 <_ZN14FreeBoardModel25getAutopilotRudderCommandEv>
    4eda:	f4 01       	movw	r30, r8
    4edc:	60 87       	std	Z+8, r22	; 0x08
    4ede:	71 87       	std	Z+9, r23	; 0x09
    4ee0:	82 87       	std	Z+10, r24	; 0x0a
    4ee2:	93 87       	std	Z+11, r25	; 0x0b
	lastDirection=true;
    4ee4:	81 e0       	ldi	r24, 0x01	; 1
    4ee6:	80 8b       	std	Z+16, r24	; 0x10
	this->headingPid = PID(&autopilotCurrentHeading, &autopilotRudderCommand, &autopilotTargetHeading, P_Param, I_Param, D_Param, REVERSE);
    4ee8:	a4 01       	movw	r20, r8
    4eea:	48 5f       	subi	r20, 0xF8	; 248
    4eec:	5f 4f       	sbci	r21, 0xFF	; 255
    4eee:	b4 01       	movw	r22, r8
    4ef0:	6c 5f       	subi	r22, 0xFC	; 252
    4ef2:	7f 4f       	sbci	r23, 0xFF	; 255
    4ef4:	1f 92       	push	r1
    4ef6:	8f 93       	push	r24
    4ef8:	8f e3       	ldi	r24, 0x3F	; 63
    4efa:	8f 93       	push	r24
    4efc:	85 e0       	ldi	r24, 0x05	; 5
    4efe:	8f 93       	push	r24
    4f00:	8e e1       	ldi	r24, 0x1E	; 30
    4f02:	8f 93       	push	r24
    4f04:	88 eb       	ldi	r24, 0xB8	; 184
    4f06:	8f 93       	push	r24
    4f08:	8a e0       	ldi	r24, 0x0A	; 10
    4f0a:	a8 2e       	mov	r10, r24
    4f0c:	87 ed       	ldi	r24, 0xD7	; 215
    4f0e:	b8 2e       	mov	r11, r24
    4f10:	83 ea       	ldi	r24, 0xA3	; 163
    4f12:	c8 2e       	mov	r12, r24
    4f14:	8d e3       	ldi	r24, 0x3D	; 61
    4f16:	d8 2e       	mov	r13, r24
    4f18:	16 e6       	ldi	r17, 0x66	; 102
    4f1a:	e1 2e       	mov	r14, r17
    4f1c:	fe 2c       	mov	r15, r14
    4f1e:	06 ee       	ldi	r16, 0xE6	; 230
    4f20:	1e e3       	ldi	r17, 0x3E	; 62
    4f22:	94 01       	movw	r18, r8
    4f24:	ce 01       	movw	r24, r28
    4f26:	01 96       	adiw	r24, 0x01	; 1
    4f28:	0e 94 3c 1b 	call	0x3678	; 0x3678 <_ZN3PIDC1EPdS0_S0_dddi>
    4f2c:	87 e3       	ldi	r24, 0x37	; 55
    4f2e:	fe 01       	movw	r30, r28
    4f30:	31 96       	adiw	r30, 0x01	; 1
    4f32:	d3 01       	movw	r26, r6
    4f34:	01 90       	ld	r0, Z+
    4f36:	0d 92       	st	X+, r0
    4f38:	8a 95       	dec	r24
    4f3a:	e1 f7       	brne	.-8      	; 0x4f34 <_ZN9AutopilotC1EP14FreeBoardModel+0xee>

	headingPid.SetOutputLimits(0.0, 66.0); //output limits
    4f3c:	00 e0       	ldi	r16, 0x00	; 0
    4f3e:	10 e0       	ldi	r17, 0x00	; 0
    4f40:	24 e8       	ldi	r18, 0x84	; 132
    4f42:	32 e4       	ldi	r19, 0x42	; 66
    4f44:	40 e0       	ldi	r20, 0x00	; 0
    4f46:	50 e0       	ldi	r21, 0x00	; 0
    4f48:	ba 01       	movw	r22, r20
    4f4a:	c3 01       	movw	r24, r6
    4f4c:	0e 94 26 1a 	call	0x344c	; 0x344c <_ZN3PID15SetOutputLimitsEdd>
	headingPid.SetSampleTime(100);
    4f50:	64 e6       	ldi	r22, 0x64	; 100
    4f52:	70 e0       	ldi	r23, 0x00	; 0
    4f54:	c3 01       	movw	r24, r6
    4f56:	0e 94 d9 19 	call	0x33b2	; 0x33b2 <_ZN3PID13SetSampleTimeEi>
    4f5a:	0f 90       	pop	r0
    4f5c:	0f 90       	pop	r0
    4f5e:	0f 90       	pop	r0
    4f60:	0f 90       	pop	r0
    4f62:	0f 90       	pop	r0
    4f64:	0f 90       	pop	r0

}
    4f66:	e7 96       	adiw	r28, 0x37	; 55
    4f68:	0f b6       	in	r0, 0x3f	; 63
    4f6a:	f8 94       	cli
    4f6c:	de bf       	out	0x3e, r29	; 62
    4f6e:	0f be       	out	0x3f, r0	; 63
    4f70:	cd bf       	out	0x3d, r28	; 61
    4f72:	df 91       	pop	r29
    4f74:	cf 91       	pop	r28
    4f76:	1f 91       	pop	r17
    4f78:	0f 91       	pop	r16
    4f7a:	ff 90       	pop	r15
    4f7c:	ef 90       	pop	r14
    4f7e:	df 90       	pop	r13
    4f80:	cf 90       	pop	r12
    4f82:	bf 90       	pop	r11
    4f84:	af 90       	pop	r10
    4f86:	9f 90       	pop	r9
    4f88:	8f 90       	pop	r8
    4f8a:	7f 90       	pop	r7
    4f8c:	6f 90       	pop	r6
    4f8e:	08 95       	ret

00004f90 <_ZN9AutopilotD1Ev>:
Autopilot::~Autopilot() {
    4f90:	08 95       	ret

00004f92 <_ZN9Autopilot13calcAutoPilotEv>:

}

void Autopilot::calcAutoPilot() {
    4f92:	8f 92       	push	r8
    4f94:	9f 92       	push	r9
    4f96:	af 92       	push	r10
    4f98:	bf 92       	push	r11
    4f9a:	cf 92       	push	r12
    4f9c:	df 92       	push	r13
    4f9e:	ef 92       	push	r14
    4fa0:	ff 92       	push	r15
    4fa2:	0f 93       	push	r16
    4fa4:	1f 93       	push	r17
    4fa6:	cf 93       	push	r28
    4fa8:	df 93       	push	r29
    4faa:	ec 01       	movw	r28, r24
	//we dont do this if the autopilot is MANUAL
	if (model->isAutopilotOn()) {
    4fac:	89 89       	ldd	r24, Y+17	; 0x11
    4fae:	9a 89       	ldd	r25, Y+18	; 0x12
    4fb0:	0e 94 65 2e 	call	0x5cca	; 0x5cca <_ZN14FreeBoardModel13isAutopilotOnEv>
    4fb4:	8e 01       	movw	r16, r28
    4fb6:	0d 5e       	subi	r16, 0xED	; 237
    4fb8:	1f 4f       	sbci	r17, 0xFF	; 255
    4fba:	88 23       	and	r24, r24
    4fbc:	09 f4       	brne	.+2      	; 0x4fc0 <_ZN9Autopilot13calcAutoPilotEv+0x2e>
    4fbe:	cd c0       	rjmp	.+410    	; 0x515a <_ZN9Autopilot13calcAutoPilotEv+0x1c8>
		//does nothing if its already on, inits if off
		headingPid.SetMode(AUTOMATIC);
    4fc0:	61 e0       	ldi	r22, 0x01	; 1
    4fc2:	70 e0       	ldi	r23, 0x00	; 0
    4fc4:	c8 01       	movw	r24, r16
    4fc6:	0e 94 ea 1a 	call	0x35d4	; 0x35d4 <_ZN3PID7SetModeEi>
		autopilotTargetHeading = model->getAutopilotTargetHeading() + 720;
    4fca:	89 89       	ldd	r24, Y+17	; 0x11
    4fcc:	9a 89       	ldd	r25, Y+18	; 0x12
    4fce:	0e 94 35 2b 	call	0x566a	; 0x566a <_ZN14FreeBoardModel25getAutopilotTargetHeadingEv>
    4fd2:	20 e0       	ldi	r18, 0x00	; 0
    4fd4:	30 e0       	ldi	r19, 0x00	; 0
    4fd6:	44 e3       	ldi	r20, 0x34	; 52
    4fd8:	54 e4       	ldi	r21, 0x44	; 68
    4fda:	0e 94 24 41 	call	0x8248	; 0x8248 <__addsf3>
    4fde:	6b 01       	movw	r12, r22
    4fe0:	7c 01       	movw	r14, r24
    4fe2:	98 2f       	mov	r25, r24
    4fe4:	4c 2d       	mov	r20, r12
    4fe6:	5d 2d       	mov	r21, r13
    4fe8:	69 2f       	mov	r22, r25
    4fea:	7f 2d       	mov	r23, r15
    4fec:	48 83       	st	Y, r20
    4fee:	59 83       	std	Y+1, r21	; 0x01
    4ff0:	6a 83       	std	Y+2, r22	; 0x02
    4ff2:	7b 83       	std	Y+3, r23	; 0x03
		autopilotCurrentHeading = autopilotTargetHeading + model->getAutopilotOffCourse();
    4ff4:	89 89       	ldd	r24, Y+17	; 0x11
    4ff6:	9a 89       	ldd	r25, Y+18	; 0x12
    4ff8:	0e 94 53 2b 	call	0x56a6	; 0x56a6 <_ZN14FreeBoardModel21getAutopilotOffCourseEv>
    4ffc:	9b 01       	movw	r18, r22
    4ffe:	ac 01       	movw	r20, r24
    5000:	6c 2d       	mov	r22, r12
    5002:	7d 2d       	mov	r23, r13
    5004:	8e 2d       	mov	r24, r14
    5006:	9f 2d       	mov	r25, r15
    5008:	0e 94 24 41 	call	0x8248	; 0x8248 <__addsf3>
    500c:	6c 83       	std	Y+4, r22	; 0x04
    500e:	7d 83       	std	Y+5, r23	; 0x05
    5010:	8e 83       	std	Y+6, r24	; 0x06
    5012:	9f 83       	std	Y+7, r25	; 0x07
		headingPid.Compute();
    5014:	c8 01       	movw	r24, r16
    5016:	0e 94 e3 17 	call	0x2fc6	; 0x2fc6 <_ZN3PID7ComputeEv>
		//check deadzone
		if (abs(autopilotRudderCommand - lastRudderCommand) > model->getAutopilotDeadZone()) {
    501a:	2c 85       	ldd	r18, Y+12	; 0x0c
    501c:	3d 85       	ldd	r19, Y+13	; 0x0d
    501e:	4e 85       	ldd	r20, Y+14	; 0x0e
    5020:	5f 85       	ldd	r21, Y+15	; 0x0f
    5022:	68 85       	ldd	r22, Y+8	; 0x08
    5024:	79 85       	ldd	r23, Y+9	; 0x09
    5026:	8a 85       	ldd	r24, Y+10	; 0x0a
    5028:	9b 85       	ldd	r25, Y+11	; 0x0b
    502a:	0e 94 23 41 	call	0x8246	; 0x8246 <__subsf3>
    502e:	b6 2f       	mov	r27, r22
    5030:	a7 2f       	mov	r26, r23
    5032:	46 2f       	mov	r20, r22
    5034:	57 2f       	mov	r21, r23
    5036:	68 2f       	mov	r22, r24
    5038:	79 2f       	mov	r23, r25
    503a:	4a 01       	movw	r8, r20
    503c:	5b 01       	movw	r10, r22
    503e:	20 e0       	ldi	r18, 0x00	; 0
    5040:	30 e0       	ldi	r19, 0x00	; 0
    5042:	a9 01       	movw	r20, r18
    5044:	6b 2f       	mov	r22, r27
    5046:	7a 2f       	mov	r23, r26
    5048:	0e 94 ed 43 	call	0x87da	; 0x87da <__gesf2>
    504c:	18 16       	cp	r1, r24
    504e:	24 f0       	brlt	.+8      	; 0x5058 <_ZN9Autopilot13calcAutoPilotEv+0xc6>
    5050:	b7 fa       	bst	r11, 7
    5052:	b0 94       	com	r11
    5054:	b7 f8       	bld	r11, 7
    5056:	b0 94       	com	r11
    5058:	89 89       	ldd	r24, Y+17	; 0x11
    505a:	9a 89       	ldd	r25, Y+18	; 0x12
    505c:	0e 94 9c 2c 	call	0x5938	; 0x5938 <_ZN14FreeBoardModel20getAutopilotDeadZoneEv>
    5060:	bc 01       	movw	r22, r24
    5062:	88 27       	eor	r24, r24
    5064:	77 fd       	sbrc	r23, 7
    5066:	80 95       	com	r24
    5068:	98 2f       	mov	r25, r24
    506a:	0e 94 8c 42 	call	0x8518	; 0x8518 <__floatsisf>
    506e:	9b 01       	movw	r18, r22
    5070:	ac 01       	movw	r20, r24
    5072:	c5 01       	movw	r24, r10
    5074:	b4 01       	movw	r22, r8
    5076:	0e 94 ed 43 	call	0x87da	; 0x87da <__gesf2>
    507a:	18 16       	cp	r1, r24
    507c:	0c f0       	brlt	.+2      	; 0x5080 <_ZN9Autopilot13calcAutoPilotEv+0xee>
    507e:	7e c0       	rjmp	.+252    	; 0x517c <_ZN9Autopilot13calcAutoPilotEv+0x1ea>
			//then we move the rudder.
			//is it changing movement direction, we need to compensate for slack
			if (lastDirection && autopilotRudderCommand > lastRudderCommand) {
    5080:	88 89       	ldd	r24, Y+16	; 0x10
    5082:	c8 84       	ldd	r12, Y+8	; 0x08
    5084:	d9 84       	ldd	r13, Y+9	; 0x09
    5086:	ea 84       	ldd	r14, Y+10	; 0x0a
    5088:	fb 84       	ldd	r15, Y+11	; 0x0b
    508a:	8c 84       	ldd	r8, Y+12	; 0x0c
    508c:	9d 84       	ldd	r9, Y+13	; 0x0d
    508e:	ae 84       	ldd	r10, Y+14	; 0x0e
    5090:	bf 84       	ldd	r11, Y+15	; 0x0f
    5092:	a5 01       	movw	r20, r10
    5094:	94 01       	movw	r18, r8
    5096:	88 23       	and	r24, r24
    5098:	11 f1       	breq	.+68     	; 0x50de <_ZN9Autopilot13calcAutoPilotEv+0x14c>
    509a:	c7 01       	movw	r24, r14
    509c:	b6 01       	movw	r22, r12
    509e:	0e 94 ed 43 	call	0x87da	; 0x87da <__gesf2>
    50a2:	18 16       	cp	r1, r24
    50a4:	0c f4       	brge	.+2      	; 0x50a8 <_ZN9Autopilot13calcAutoPilotEv+0x116>
    50a6:	21 c0       	rjmp	.+66     	; 0x50ea <_ZN9Autopilot13calcAutoPilotEv+0x158>
				//same direction to stbd, no slack
				lastRudderCommand = autopilotRudderCommand;
			}else if (lastDirection && autopilotRudderCommand < lastRudderCommand) {
    50a8:	a5 01       	movw	r20, r10
    50aa:	94 01       	movw	r18, r8
    50ac:	c7 01       	movw	r24, r14
    50ae:	b6 01       	movw	r22, r12
    50b0:	0e 94 ea 41 	call	0x83d4	; 0x83d4 <__cmpsf2>
    50b4:	87 ff       	sbrs	r24, 7
    50b6:	3d c0       	rjmp	.+122    	; 0x5132 <_ZN9Autopilot13calcAutoPilotEv+0x1a0>
				//changed direction to port, subtract slack
				lastDirection = false;
    50b8:	18 8a       	std	Y+16, r1	; 0x10
				lastRudderCommand = autopilotRudderCommand - model->getAutopilotSlack();
    50ba:	89 89       	ldd	r24, Y+17	; 0x11
    50bc:	9a 89       	ldd	r25, Y+18	; 0x12
    50be:	0e 94 a2 2c 	call	0x5944	; 0x5944 <_ZN14FreeBoardModel17getAutopilotSlackEv>
    50c2:	bc 01       	movw	r22, r24
    50c4:	88 27       	eor	r24, r24
    50c6:	77 fd       	sbrc	r23, 7
    50c8:	80 95       	com	r24
    50ca:	98 2f       	mov	r25, r24
    50cc:	0e 94 8c 42 	call	0x8518	; 0x8518 <__floatsisf>
    50d0:	9b 01       	movw	r18, r22
    50d2:	ac 01       	movw	r20, r24
    50d4:	c7 01       	movw	r24, r14
    50d6:	b6 01       	movw	r22, r12
    50d8:	0e 94 23 41 	call	0x8246	; 0x8246 <__subsf3>
    50dc:	26 c0       	rjmp	.+76     	; 0x512a <_ZN9Autopilot13calcAutoPilotEv+0x198>
			}else if (!lastDirection && autopilotRudderCommand < lastRudderCommand) {
    50de:	c7 01       	movw	r24, r14
    50e0:	b6 01       	movw	r22, r12
    50e2:	0e 94 ea 41 	call	0x83d4	; 0x83d4 <__cmpsf2>
    50e6:	87 ff       	sbrs	r24, 7
    50e8:	05 c0       	rjmp	.+10     	; 0x50f4 <_ZN9Autopilot13calcAutoPilotEv+0x162>
				//same direction to port
				lastRudderCommand = autopilotRudderCommand;
    50ea:	cc 86       	std	Y+12, r12	; 0x0c
    50ec:	dd 86       	std	Y+13, r13	; 0x0d
    50ee:	ee 86       	std	Y+14, r14	; 0x0e
    50f0:	ff 86       	std	Y+15, r15	; 0x0f
    50f2:	1f c0       	rjmp	.+62     	; 0x5132 <_ZN9Autopilot13calcAutoPilotEv+0x1a0>
			}else if (!lastDirection && autopilotRudderCommand > lastRudderCommand) {
    50f4:	a5 01       	movw	r20, r10
    50f6:	94 01       	movw	r18, r8
    50f8:	c7 01       	movw	r24, r14
    50fa:	b6 01       	movw	r22, r12
    50fc:	0e 94 ed 43 	call	0x87da	; 0x87da <__gesf2>
    5100:	18 16       	cp	r1, r24
    5102:	bc f4       	brge	.+46     	; 0x5132 <_ZN9Autopilot13calcAutoPilotEv+0x1a0>
				//changed direction to stbd, add slack
				lastDirection = true;
    5104:	81 e0       	ldi	r24, 0x01	; 1
    5106:	88 8b       	std	Y+16, r24	; 0x10
				lastRudderCommand = autopilotRudderCommand + model->getAutopilotSlack();
    5108:	89 89       	ldd	r24, Y+17	; 0x11
    510a:	9a 89       	ldd	r25, Y+18	; 0x12
    510c:	0e 94 a2 2c 	call	0x5944	; 0x5944 <_ZN14FreeBoardModel17getAutopilotSlackEv>
    5110:	bc 01       	movw	r22, r24
    5112:	88 27       	eor	r24, r24
    5114:	77 fd       	sbrc	r23, 7
    5116:	80 95       	com	r24
    5118:	98 2f       	mov	r25, r24
    511a:	0e 94 8c 42 	call	0x8518	; 0x8518 <__floatsisf>
    511e:	9b 01       	movw	r18, r22
    5120:	ac 01       	movw	r20, r24
    5122:	c7 01       	movw	r24, r14
    5124:	b6 01       	movw	r22, r12
    5126:	0e 94 24 41 	call	0x8248	; 0x8248 <__addsf3>
    512a:	6c 87       	std	Y+12, r22	; 0x0c
    512c:	7d 87       	std	Y+13, r23	; 0x0d
    512e:	8e 87       	std	Y+14, r24	; 0x0e
    5130:	9f 87       	std	Y+15, r25	; 0x0f
			}
			//constrain(lastRudderCommand,0.0,66.0);
			//update model
			model->setAutopilotRudderCommand(lastRudderCommand);
    5132:	4c 85       	ldd	r20, Y+12	; 0x0c
    5134:	5d 85       	ldd	r21, Y+13	; 0x0d
    5136:	6e 85       	ldd	r22, Y+14	; 0x0e
    5138:	7f 85       	ldd	r23, Y+15	; 0x0f
    513a:	89 89       	ldd	r24, Y+17	; 0x11
    513c:	9a 89       	ldd	r25, Y+18	; 0x12
		}

	} else {
		headingPid.SetMode(MANUAL);
	}
}
    513e:	df 91       	pop	r29
    5140:	cf 91       	pop	r28
    5142:	1f 91       	pop	r17
    5144:	0f 91       	pop	r16
    5146:	ff 90       	pop	r15
    5148:	ef 90       	pop	r14
    514a:	df 90       	pop	r13
    514c:	cf 90       	pop	r12
    514e:	bf 90       	pop	r11
    5150:	af 90       	pop	r10
    5152:	9f 90       	pop	r9
    5154:	8f 90       	pop	r8
				lastDirection = true;
				lastRudderCommand = autopilotRudderCommand + model->getAutopilotSlack();
			}
			//constrain(lastRudderCommand,0.0,66.0);
			//update model
			model->setAutopilotRudderCommand(lastRudderCommand);
    5156:	0c 94 b1 2d 	jmp	0x5b62	; 0x5b62 <_ZN14FreeBoardModel25setAutopilotRudderCommandEd>
		}

	} else {
		headingPid.SetMode(MANUAL);
    515a:	60 e0       	ldi	r22, 0x00	; 0
    515c:	70 e0       	ldi	r23, 0x00	; 0
    515e:	c8 01       	movw	r24, r16
	}
}
    5160:	df 91       	pop	r29
    5162:	cf 91       	pop	r28
    5164:	1f 91       	pop	r17
    5166:	0f 91       	pop	r16
    5168:	ff 90       	pop	r15
    516a:	ef 90       	pop	r14
    516c:	df 90       	pop	r13
    516e:	cf 90       	pop	r12
    5170:	bf 90       	pop	r11
    5172:	af 90       	pop	r10
    5174:	9f 90       	pop	r9
    5176:	8f 90       	pop	r8
			//update model
			model->setAutopilotRudderCommand(lastRudderCommand);
		}

	} else {
		headingPid.SetMode(MANUAL);
    5178:	0c 94 ea 1a 	jmp	0x35d4	; 0x35d4 <_ZN3PID7SetModeEi>
	}
}
    517c:	df 91       	pop	r29
    517e:	cf 91       	pop	r28
    5180:	1f 91       	pop	r17
    5182:	0f 91       	pop	r16
    5184:	ff 90       	pop	r15
    5186:	ef 90       	pop	r14
    5188:	df 90       	pop	r13
    518a:	cf 90       	pop	r12
    518c:	bf 90       	pop	r11
    518e:	af 90       	pop	r10
    5190:	9f 90       	pop	r9
    5192:	8f 90       	pop	r8
    5194:	08 95       	ret

00005196 <_ZN14FreeBoardModelC1Ev>:
 *      Author: robert
 */

#include "FreeBoardModel.h"

FreeBoardModel::FreeBoardModel() {
    5196:	fc 01       	movw	r30, r24
	alarmLast = 0; //millis time of last beep state change
    5198:	10 82       	st	Z, r1
    519a:	11 82       	std	Z+1, r1	; 0x01
    519c:	12 82       	std	Z+2, r1	; 0x02
    519e:	13 82       	std	Z+3, r1	; 0x03
	alarmSnooze = 0; //5 minute alarm snooze
    51a0:	14 82       	std	Z+4, r1	; 0x04
    51a2:	15 82       	std	Z+5, r1	; 0x05
    51a4:	16 82       	std	Z+6, r1	; 0x06
    51a6:	17 82       	std	Z+7, r1	; 0x07
	//unsigned long alarmTriggered ; //true if any alarm is triggered - derived

	//anchor
	//float anchorRadius; //anchor alarm radius in meters
	anchorState.anchorRadiusDeg = 0.0; //anchor alarm radius in decimal degrees, eg 1deg = 60NM.
    51a8:	10 8a       	std	Z+16, r1	; 0x10
    51aa:	11 8a       	std	Z+17, r1	; 0x11
    51ac:	12 8a       	std	Z+18, r1	; 0x12
    51ae:	13 8a       	std	Z+19, r1	; 0x13

	//anchor alarm data
	//float anchorLat; // variable for reading the anchor latitude
	//float anchorLon; // variable for reading the anchor longitude
	anchorState.anchorDistance = 0.0;
    51b0:	14 8a       	std	Z+20, r1	; 0x14
    51b2:	15 8a       	std	Z+21, r1	; 0x15
    51b4:	16 8a       	std	Z+22, r1	; 0x16
    51b6:	17 8a       	std	Z+23, r1	; 0x17
	anchorState.anchorMaxDistance = 0.0;
    51b8:	10 8e       	std	Z+24, r1	; 0x18
    51ba:	11 8e       	std	Z+25, r1	; 0x19
    51bc:	12 8e       	std	Z+26, r1	; 0x1a
    51be:	13 8e       	std	Z+27, r1	; 0x1b
	//bool anchorAlarmOn; //flag to turn anchor alarm on/off toggle
	anchorState.anchorAlarmTriggered = false; //set to true to trigger anchor alarm
    51c0:	14 8e       	std	Z+28, r1	; 0x1c

	//a box around the anchor, shrinks with every GPS reading to home in on the anchor itself
	anchorState.anchorN = 90.0;
    51c2:	40 e0       	ldi	r20, 0x00	; 0
    51c4:	50 e0       	ldi	r21, 0x00	; 0
    51c6:	64 eb       	ldi	r22, 0xB4	; 180
    51c8:	72 e4       	ldi	r23, 0x42	; 66
    51ca:	45 8f       	std	Z+29, r20	; 0x1d
    51cc:	56 8f       	std	Z+30, r21	; 0x1e
    51ce:	67 8f       	std	Z+31, r22	; 0x1f
    51d0:	70 a3       	std	Z+32, r23	; 0x20
	anchorState.anchorS = -90.0;
    51d2:	40 e0       	ldi	r20, 0x00	; 0
    51d4:	50 e0       	ldi	r21, 0x00	; 0
    51d6:	64 eb       	ldi	r22, 0xB4	; 180
    51d8:	72 ec       	ldi	r23, 0xC2	; 194
    51da:	41 a3       	std	Z+33, r20	; 0x21
    51dc:	52 a3       	std	Z+34, r21	; 0x22
    51de:	63 a3       	std	Z+35, r22	; 0x23
    51e0:	74 a3       	std	Z+36, r23	; 0x24
	anchorState.anchorE = 180.0;
    51e2:	40 e0       	ldi	r20, 0x00	; 0
    51e4:	50 e0       	ldi	r21, 0x00	; 0
    51e6:	64 e3       	ldi	r22, 0x34	; 52
    51e8:	73 e4       	ldi	r23, 0x43	; 67
    51ea:	45 a3       	std	Z+37, r20	; 0x25
    51ec:	56 a3       	std	Z+38, r21	; 0x26
    51ee:	67 a3       	std	Z+39, r22	; 0x27
    51f0:	70 a7       	std	Z+40, r23	; 0x28
	anchorState.anchorW = -180.0;
    51f2:	40 e0       	ldi	r20, 0x00	; 0
    51f4:	50 e0       	ldi	r21, 0x00	; 0
    51f6:	64 e3       	ldi	r22, 0x34	; 52
    51f8:	73 ec       	ldi	r23, 0xC3	; 195
    51fa:	41 a7       	std	Z+41, r20	; 0x29
    51fc:	52 a7       	std	Z+42, r21	; 0x2a
    51fe:	63 a7       	std	Z+43, r22	; 0x2b
    5200:	74 a7       	std	Z+44, r23	; 0x2c

	//autopilot
	autopilotState.autopilotOn=false;
    5202:	15 a6       	std	Z+45, r1	; 0x2d
	//disengage the autopilot if we reboot!!
	//Dont want to go screaming off on wrong course.
	autopilotState.autopilotReference = AUTOPILOT_COMPASS;
    5204:	83 e4       	ldi	r24, 0x43	; 67
    5206:	82 ab       	std	Z+50, r24	; 0x32
	autopilotState.autopilotTargetHeading = 0; //Setpoint
    5208:	13 aa       	std	Z+51, r1	; 0x33
    520a:	14 aa       	std	Z+52, r1	; 0x34
    520c:	15 aa       	std	Z+53, r1	; 0x35
    520e:	16 aa       	std	Z+54, r1	; 0x36
	autopilotState.autopilotRudderCommand = 33; //Output (rudder central)
    5210:	40 e0       	ldi	r20, 0x00	; 0
    5212:	50 e0       	ldi	r21, 0x00	; 0
    5214:	64 e0       	ldi	r22, 0x04	; 4
    5216:	72 e4       	ldi	r23, 0x42	; 66
    5218:	47 ab       	std	Z+55, r20	; 0x37
    521a:	50 af       	std	Z+56, r21	; 0x38
    521c:	61 af       	std	Z+57, r22	; 0x39
    521e:	72 af       	std	Z+58, r23	; 0x3a
	//bool autopilotAlarmOn;
	autopilotState.autopilotAlarmTriggered = false;
    5220:	13 ae       	std	Z+59, r1	; 0x3b
	autopilotState.autopilotAlarmMaxXTError = 100; // +/- meters cross track error
    5222:	40 e0       	ldi	r20, 0x00	; 0
    5224:	50 e0       	ldi	r21, 0x00	; 0
    5226:	68 ec       	ldi	r22, 0xC8	; 200
    5228:	72 e4       	ldi	r23, 0x42	; 66
    522a:	44 af       	std	Z+60, r20	; 0x3c
    522c:	55 af       	std	Z+61, r21	; 0x3d
    522e:	66 af       	std	Z+62, r22	; 0x3e
    5230:	77 af       	std	Z+63, r23	; 0x3f
	autopilotState.autopilotAlarmMaxWindError = 10; // +/- wind angle change, for over 1 minute
    5232:	df 01       	movw	r26, r30
    5234:	a0 5c       	subi	r26, 0xC0	; 192
    5236:	bf 4f       	sbci	r27, 0xFF	; 255
    5238:	40 e0       	ldi	r20, 0x00	; 0
    523a:	50 e0       	ldi	r21, 0x00	; 0
    523c:	60 e2       	ldi	r22, 0x20	; 32
    523e:	71 e4       	ldi	r23, 0x41	; 65
    5240:	4d 93       	st	X+, r20
    5242:	5d 93       	st	X+, r21
    5244:	6d 93       	st	X+, r22
    5246:	7c 93       	st	X, r23
    5248:	13 97       	sbiw	r26, 0x03	; 3
	autopilotState.autopilotAlarmMaxCourseError = 10; // +/- course error, for over 1 minute
    524a:	df 01       	movw	r26, r30
    524c:	ac 5b       	subi	r26, 0xBC	; 188
    524e:	bf 4f       	sbci	r27, 0xFF	; 255
    5250:	4d 93       	st	X+, r20
    5252:	5d 93       	st	X+, r21
    5254:	6d 93       	st	X+, r22
    5256:	7c 93       	st	X, r23
    5258:	13 97       	sbiw	r26, 0x03	; 3

	//compass
	magneticHeading=0;
    525a:	10 86       	std	Z+8, r1	; 0x08
    525c:	11 86       	std	Z+9, r1	; 0x09
    525e:	12 86       	std	Z+10, r1	; 0x0a
    5260:	13 86       	std	Z+11, r1	; 0x0b
	declination=0;
    5262:	14 86       	std	Z+12, r1	; 0x0c
    5264:	15 86       	std	Z+13, r1	; 0x0d
    5266:	16 86       	std	Z+14, r1	; 0x0e
    5268:	17 86       	std	Z+15, r1	; 0x0f
	//gps
	gpsState.gpsDecode = false; //flag to indicate a new sentence was decoded.
    526a:	df 01       	movw	r26, r30
    526c:	a8 5b       	subi	r26, 0xB8	; 184
    526e:	bf 4f       	sbci	r27, 0xFF	; 255
    5270:	1c 92       	st	X, r1
	gpsState.gpsLastFix = 0; //time of last good gps fix.
    5272:	df 01       	movw	r26, r30
    5274:	a7 5b       	subi	r26, 0xB7	; 183
    5276:	bf 4f       	sbci	r27, 0xFF	; 255
    5278:	1d 92       	st	X+, r1
    527a:	1d 92       	st	X+, r1
    527c:	1d 92       	st	X+, r1
    527e:	1c 92       	st	X, r1
    5280:	13 97       	sbiw	r26, 0x03	; 3
	gpsState.gpsUtc = 0; // decimal value of UTC term in last full GPRMC sentence
    5282:	df 01       	movw	r26, r30
    5284:	a3 5b       	subi	r26, 0xB3	; 179
    5286:	bf 4f       	sbci	r27, 0xFF	; 255
    5288:	1d 92       	st	X+, r1
    528a:	1d 92       	st	X+, r1
    528c:	1d 92       	st	X+, r1
    528e:	1c 92       	st	X, r1
    5290:	13 97       	sbiw	r26, 0x03	; 3
	gpsState.gpsStatus = 'V'; //  status character in last full GPRMC sentence ('A' or 'V')
    5292:	df 01       	movw	r26, r30
    5294:	af 5a       	subi	r26, 0xAF	; 175
    5296:	bf 4f       	sbci	r27, 0xFF	; 255
    5298:	86 e5       	ldi	r24, 0x56	; 86
    529a:	8c 93       	st	X, r24
	gpsState.gpsLatitude = 0.0; // signed degree-decimal value of latitude terms in last full GPRMC sentence
    529c:	df 01       	movw	r26, r30
    529e:	ae 5a       	subi	r26, 0xAE	; 174
    52a0:	bf 4f       	sbci	r27, 0xFF	; 255
    52a2:	1d 92       	st	X+, r1
    52a4:	1d 92       	st	X+, r1
    52a6:	1d 92       	st	X+, r1
    52a8:	1c 92       	st	X, r1
    52aa:	13 97       	sbiw	r26, 0x03	; 3
	gpsState.gpsLongitude = 0.0; // signed degree-decimal value of longitude terms in last full GPRMC sentence
    52ac:	df 01       	movw	r26, r30
    52ae:	aa 5a       	subi	r26, 0xAA	; 170
    52b0:	bf 4f       	sbci	r27, 0xFF	; 255
    52b2:	1d 92       	st	X+, r1
    52b4:	1d 92       	st	X+, r1
    52b6:	1d 92       	st	X+, r1
    52b8:	1c 92       	st	X, r1
    52ba:	13 97       	sbiw	r26, 0x03	; 3
	//float gpsSpeedUnit; //unit multiplier for gpsSpeed. 1.0 = KNT,1.1507794	=MPH, see nmea.h
	gpsState.gpsSpeed = 0.0; // speed-on-ground term in last full GPRMC sentence
    52bc:	df 01       	movw	r26, r30
    52be:	a6 5a       	subi	r26, 0xA6	; 166
    52c0:	bf 4f       	sbci	r27, 0xFF	; 255
    52c2:	1d 92       	st	X+, r1
    52c4:	1d 92       	st	X+, r1
    52c6:	1d 92       	st	X+, r1
    52c8:	1c 92       	st	X, r1
    52ca:	13 97       	sbiw	r26, 0x03	; 3
	gpsState.gpsCourse = 0.0; // track-angle-made-good term in last full GPRMC sentence
    52cc:	df 01       	movw	r26, r30
    52ce:	a2 5a       	subi	r26, 0xA2	; 162
    52d0:	bf 4f       	sbci	r27, 0xFF	; 255
    52d2:	1d 92       	st	X+, r1
    52d4:	1d 92       	st	X+, r1
    52d6:	1d 92       	st	X+, r1
    52d8:	1c 92       	st	X, r1
    52da:	13 97       	sbiw	r26, 0x03	; 3
	//bool gpsAlarmOn; //true to engage alarm
	gpsState.gpsAlarmTriggered = false; //set to true to trigger gps alarm
    52dc:	df 01       	movw	r26, r30
    52de:	ae 59       	subi	r26, 0x9E	; 158
    52e0:	bf 4f       	sbci	r27, 0xFF	; 255
    52e2:	1c 92       	st	X, r1
	//double gpsAlarmFixTime; //max time in millis without fix

	//seatalk
	//volatile bool radarAlarmOn; //set to true to enable radar alarm
	radarAlarmTriggered = false; //set to true to trigger radar alarm
    52e4:	df 01       	movw	r26, r30
    52e6:	ad 59       	subi	r26, 0x9D	; 157
    52e8:	bf 4f       	sbci	r27, 0xFF	; 255
    52ea:	1c 92       	st	X, r1
	//volatile bool mobAlarmOn; //set to true to enable mob alarm
	mobAlarmTriggered = false; //set to true to trigger MOB alarm
    52ec:	df 01       	movw	r26, r30
    52ee:	ac 59       	subi	r26, 0x9C	; 156
    52f0:	bf 4f       	sbci	r27, 0xFF	; 255
    52f2:	1c 92       	st	X, r1

	//wind
	windState.windLastUpdate = 0;
    52f4:	df 01       	movw	r26, r30
    52f6:	ab 59       	subi	r26, 0x9B	; 155
    52f8:	bf 4f       	sbci	r27, 0xFF	; 255
    52fa:	1d 92       	st	X+, r1
    52fc:	1d 92       	st	X+, r1
    52fe:	1d 92       	st	X+, r1
    5300:	1c 92       	st	X, r1
    5302:	13 97       	sbiw	r26, 0x03	; 3
	windState.windAverage = 0.0;
    5304:	df 01       	movw	r26, r30
    5306:	a7 59       	subi	r26, 0x97	; 151
    5308:	bf 4f       	sbci	r27, 0xFF	; 255
    530a:	1d 92       	st	X+, r1
    530c:	1d 92       	st	X+, r1
    530e:	1d 92       	st	X+, r1
    5310:	1c 92       	st	X, r1
    5312:	13 97       	sbiw	r26, 0x03	; 3
	//windState.windFactor=0;
	windState.windMax = 0;
    5314:	df 01       	movw	r26, r30
    5316:	a3 59       	subi	r26, 0x93	; 147
    5318:	bf 4f       	sbci	r27, 0xFF	; 255
    531a:	1d 92       	st	X+, r1
    531c:	1c 92       	st	X, r1
	windState.windApparentDir = 0;
    531e:	df 01       	movw	r26, r30
    5320:	a1 59       	subi	r26, 0x91	; 145
    5322:	bf 4f       	sbci	r27, 0xFF	; 255
    5324:	1d 92       	st	X+, r1
    5326:	1c 92       	st	X, r1
	windState.windTrueDir=0;
    5328:	df 01       	movw	r26, r30
    532a:	af 58       	subi	r26, 0x8F	; 143
    532c:	bf 4f       	sbci	r27, 0xFF	; 255
    532e:	1d 92       	st	X+, r1
    5330:	1c 92       	st	X, r1
	//int windAlarmSpeed;
	//bool windAlarmOn;
	windState.windAlarmTriggered = false;
    5332:	df 01       	movw	r26, r30
    5334:	ad 58       	subi	r26, 0x8D	; 141
    5336:	bf 4f       	sbci	r27, 0xFF	; 255
    5338:	1c 92       	st	X, r1

	//struct Configuration{
	config.anchorLat = 0.0;
    533a:	df 01       	movw	r26, r30
    533c:	ac 58       	subi	r26, 0x8C	; 140
    533e:	bf 4f       	sbci	r27, 0xFF	; 255
    5340:	1d 92       	st	X+, r1
    5342:	1d 92       	st	X+, r1
    5344:	1d 92       	st	X+, r1
    5346:	1c 92       	st	X, r1
    5348:	13 97       	sbiw	r26, 0x03	; 3
	config.anchorLon = 0.0;
    534a:	df 01       	movw	r26, r30
    534c:	a8 58       	subi	r26, 0x88	; 136
    534e:	bf 4f       	sbci	r27, 0xFF	; 255
    5350:	1d 92       	st	X+, r1
    5352:	1d 92       	st	X+, r1
    5354:	1d 92       	st	X+, r1
    5356:	1c 92       	st	X, r1
    5358:	13 97       	sbiw	r26, 0x03	; 3
	config.anchorRadius = 40.0;
    535a:	df 01       	movw	r26, r30
    535c:	a4 58       	subi	r26, 0x84	; 132
    535e:	bf 4f       	sbci	r27, 0xFF	; 255
    5360:	40 e0       	ldi	r20, 0x00	; 0
    5362:	50 e0       	ldi	r21, 0x00	; 0
    5364:	60 e2       	ldi	r22, 0x20	; 32
    5366:	72 e4       	ldi	r23, 0x42	; 66
    5368:	4d 93       	st	X+, r20
    536a:	5d 93       	st	X+, r21
    536c:	6d 93       	st	X+, r22
    536e:	7c 93       	st	X, r23
    5370:	13 97       	sbiw	r26, 0x03	; 3
	config.anchorAlarmOn = false;
    5372:	df 01       	movw	r26, r30
    5374:	a0 58       	subi	r26, 0x80	; 128
    5376:	bf 4f       	sbci	r27, 0xFF	; 255
    5378:	1c 92       	st	X, r1
	config.autopilotAlarmOn = false;
    537a:	df 01       	movw	r26, r30
    537c:	af 57       	subi	r26, 0x7F	; 127
    537e:	bf 4f       	sbci	r27, 0xFF	; 255
    5380:	1c 92       	st	X, r1
	config.autopilotDeadZone = 0;
    5382:	df 01       	movw	r26, r30
    5384:	ae 57       	subi	r26, 0x7E	; 126
    5386:	bf 4f       	sbci	r27, 0xFF	; 255
    5388:	1d 92       	st	X+, r1
    538a:	1c 92       	st	X, r1
	config.autopilotSlack = 0;
    538c:	df 01       	movw	r26, r30
    538e:	ac 57       	subi	r26, 0x7C	; 124
    5390:	bf 4f       	sbci	r27, 0xFF	; 255
    5392:	1d 92       	st	X+, r1
    5394:	1c 92       	st	X, r1
	config.gpsSpeedUnit = KTS;
    5396:	df 01       	movw	r26, r30
    5398:	aa 57       	subi	r26, 0x7A	; 122
    539a:	bf 4f       	sbci	r27, 0xFF	; 255
    539c:	40 e0       	ldi	r20, 0x00	; 0
    539e:	50 e0       	ldi	r21, 0x00	; 0
    53a0:	60 e8       	ldi	r22, 0x80	; 128
    53a2:	7f e3       	ldi	r23, 0x3F	; 63
    53a4:	4d 93       	st	X+, r20
    53a6:	5d 93       	st	X+, r21
    53a8:	6d 93       	st	X+, r22
    53aa:	7c 93       	st	X, r23
    53ac:	13 97       	sbiw	r26, 0x03	; 3
	config.gpsAlarmOn = false;
    53ae:	df 01       	movw	r26, r30
    53b0:	a6 57       	subi	r26, 0x76	; 118
    53b2:	bf 4f       	sbci	r27, 0xFF	; 255
    53b4:	1c 92       	st	X, r1
	config.gpsAlarmFixTime = 1000l * 60 * 5; //5 min
    53b6:	df 01       	movw	r26, r30
    53b8:	a5 57       	subi	r26, 0x75	; 117
    53ba:	bf 4f       	sbci	r27, 0xFF	; 255
    53bc:	40 ee       	ldi	r20, 0xE0	; 224
    53be:	53 e9       	ldi	r21, 0x93	; 147
    53c0:	64 e0       	ldi	r22, 0x04	; 4
    53c2:	70 e0       	ldi	r23, 0x00	; 0
    53c4:	4d 93       	st	X+, r20
    53c6:	5d 93       	st	X+, r21
    53c8:	6d 93       	st	X+, r22
    53ca:	7c 93       	st	X, r23
    53cc:	13 97       	sbiw	r26, 0x03	; 3
	config.radarAlarmOn = false;
    53ce:	df 01       	movw	r26, r30
    53d0:	a1 57       	subi	r26, 0x71	; 113
    53d2:	bf 4f       	sbci	r27, 0xFF	; 255
    53d4:	1c 92       	st	X, r1
	config.mobAlarmOn = false;
    53d6:	df 01       	movw	r26, r30
    53d8:	a0 57       	subi	r26, 0x70	; 112
    53da:	bf 4f       	sbci	r27, 0xFF	; 255
    53dc:	1c 92       	st	X, r1
	config.windAlarmSpeed = 99;
    53de:	df 01       	movw	r26, r30
    53e0:	af 56       	subi	r26, 0x6F	; 111
    53e2:	bf 4f       	sbci	r27, 0xFF	; 255
    53e4:	83 e6       	ldi	r24, 0x63	; 99
    53e6:	90 e0       	ldi	r25, 0x00	; 0
    53e8:	8d 93       	st	X+, r24
    53ea:	9c 93       	st	X, r25
	config.windAlarmOn = false;
    53ec:	df 01       	movw	r26, r30
    53ee:	ad 56       	subi	r26, 0x6D	; 109
    53f0:	bf 4f       	sbci	r27, 0xFF	; 255
    53f2:	1c 92       	st	X, r1
	config.windFactor = 10000.0;
    53f4:	df 01       	movw	r26, r30
    53f6:	ac 56       	subi	r26, 0x6C	; 108
    53f8:	bf 4f       	sbci	r27, 0xFF	; 255
    53fa:	40 e0       	ldi	r20, 0x00	; 0
    53fc:	50 e4       	ldi	r21, 0x40	; 64
    53fe:	6c e1       	ldi	r22, 0x1C	; 28
    5400:	76 e4       	ldi	r23, 0x46	; 70
    5402:	4d 93       	st	X+, r20
    5404:	5d 93       	st	X+, r21
    5406:	6d 93       	st	X+, r22
    5408:	7c 93       	st	X, r23
    540a:	13 97       	sbiw	r26, 0x03	; 3
	config.windZeroOffset = 0;
    540c:	df 01       	movw	r26, r30
    540e:	a8 56       	subi	r26, 0x68	; 104
    5410:	bf 4f       	sbci	r27, 0xFF	; 255
    5412:	1d 92       	st	X+, r1
    5414:	1c 92       	st	X, r1
	//ver6
	config.gpsModel= GPS_EM_406A;
    5416:	df 01       	movw	r26, r30
    5418:	a6 56       	subi	r26, 0x66	; 102
    541a:	bf 4f       	sbci	r27, 0xFF	; 255
    541c:	81 e0       	ldi	r24, 0x01	; 1
    541e:	90 e0       	ldi	r25, 0x00	; 0
    5420:	8d 93       	st	X+, r24
    5422:	9c 93       	st	X, r25
	config.serialBaud=38400l;
    5424:	df 01       	movw	r26, r30
    5426:	a4 56       	subi	r26, 0x64	; 100
    5428:	bf 4f       	sbci	r27, 0xFF	; 255
    542a:	40 e0       	ldi	r20, 0x00	; 0
    542c:	56 e9       	ldi	r21, 0x96	; 150
    542e:	60 e0       	ldi	r22, 0x00	; 0
    5430:	70 e0       	ldi	r23, 0x00	; 0
    5432:	4d 93       	st	X+, r20
    5434:	5d 93       	st	X+, r21
    5436:	6d 93       	st	X+, r22
    5438:	7c 93       	st	X, r23
    543a:	13 97       	sbiw	r26, 0x03	; 3
	config.serialBaud1=38400l;
    543c:	df 01       	movw	r26, r30
    543e:	a0 56       	subi	r26, 0x60	; 96
    5440:	bf 4f       	sbci	r27, 0xFF	; 255
    5442:	4d 93       	st	X+, r20
    5444:	5d 93       	st	X+, r21
    5446:	6d 93       	st	X+, r22
    5448:	7c 93       	st	X, r23
    544a:	13 97       	sbiw	r26, 0x03	; 3
	config.serialBaud2=9600l; //seatalk?
    544c:	df 01       	movw	r26, r30
    544e:	ac 55       	subi	r26, 0x5C	; 92
    5450:	bf 4f       	sbci	r27, 0xFF	; 255
    5452:	40 e8       	ldi	r20, 0x80	; 128
    5454:	55 e2       	ldi	r21, 0x25	; 37
    5456:	60 e0       	ldi	r22, 0x00	; 0
    5458:	70 e0       	ldi	r23, 0x00	; 0
    545a:	4d 93       	st	X+, r20
    545c:	5d 93       	st	X+, r21
    545e:	6d 93       	st	X+, r22
    5460:	7c 93       	st	X, r23
    5462:	13 97       	sbiw	r26, 0x03	; 3
	config.serialBaud3=9600l; //16 bytes
    5464:	df 01       	movw	r26, r30
    5466:	a8 55       	subi	r26, 0x58	; 88
    5468:	bf 4f       	sbci	r27, 0xFF	; 255
    546a:	4d 93       	st	X+, r20
    546c:	5d 93       	st	X+, r21
    546e:	6d 93       	st	X+, r22
    5470:	7c 93       	st	X, r23
    5472:	13 97       	sbiw	r26, 0x03	; 3
	config.seaTalk=false;
    5474:	df 01       	movw	r26, r30
    5476:	a4 55       	subi	r26, 0x54	; 84
    5478:	bf 4f       	sbci	r27, 0xFF	; 255
    547a:	1c 92       	st	X, r1
	//}config;

//we change this if we change the struct so we can tell before reloading incompatible versions
	version = EEPROM_VER;
    547c:	e3 55       	subi	r30, 0x53	; 83
    547e:	ff 4f       	sbci	r31, 0xFF	; 255
    5480:	87 e0       	ldi	r24, 0x07	; 7
    5482:	90 e0       	ldi	r25, 0x00	; 0
    5484:	91 83       	std	Z+1, r25	; 0x01
    5486:	80 83       	st	Z, r24
    5488:	08 95       	ret

0000548a <_ZN14FreeBoardModel10saveConfigEv>:
	unsigned int i;
	for (i = 0; i < sizeof(value); i++)
		*p++ = EEPROM.read(ee++);
	return i;
}
void FreeBoardModel::saveConfig() {
    548a:	0f 93       	push	r16
    548c:	1f 93       	push	r17
    548e:	cf 93       	push	r28
    5490:	df 93       	push	r29
    5492:	ec 01       	movw	r28, r24

template<class T> int EEPROM_writeAnything(int ee, T& value) {
	unsigned char* p = (unsigned char*) (void*) &value;
	unsigned int i;
	for (i = 0; i < sizeof(value); i++)
		EEPROM.write(ee++, *p++);
    5494:	fc 01       	movw	r30, r24
    5496:	e3 55       	subi	r30, 0x53	; 83
    5498:	ff 4f       	sbci	r31, 0xFF	; 255
    549a:	40 81       	ld	r20, Z
    549c:	60 e0       	ldi	r22, 0x00	; 0
    549e:	70 e0       	ldi	r23, 0x00	; 0
    54a0:	85 e4       	ldi	r24, 0x45	; 69
    54a2:	99 e0       	ldi	r25, 0x09	; 9
    54a4:	0e 94 c7 20 	call	0x418e	; 0x418e <_ZN11EEPROMClass5writeEih>
    54a8:	fe 01       	movw	r30, r28
    54aa:	e2 55       	subi	r30, 0x52	; 82
    54ac:	ff 4f       	sbci	r31, 0xFF	; 255
    54ae:	40 81       	ld	r20, Z
    54b0:	61 e0       	ldi	r22, 0x01	; 1
    54b2:	70 e0       	ldi	r23, 0x00	; 0
    54b4:	85 e4       	ldi	r24, 0x45	; 69
    54b6:	99 e0       	ldi	r25, 0x09	; 9
    54b8:	0e 94 c7 20 	call	0x418e	; 0x418e <_ZN11EEPROMClass5writeEih>
}
void FreeBoardModel::saveConfig() {
	//write out a current version
	EEPROM_writeAnything(0, version);
	//write data
	EEPROM_writeAnything(EEPROM_DATA, config);
    54bc:	cc 58       	subi	r28, 0x8C	; 140
    54be:	df 4f       	sbci	r29, 0xFF	; 255
    54c0:	64 e0       	ldi	r22, 0x04	; 4
    54c2:	70 e0       	ldi	r23, 0x00	; 0

template<class T> int EEPROM_writeAnything(int ee, T& value) {
	unsigned char* p = (unsigned char*) (void*) &value;
	unsigned int i;
	for (i = 0; i < sizeof(value); i++)
		EEPROM.write(ee++, *p++);
    54c4:	49 91       	ld	r20, Y+
    54c6:	8b 01       	movw	r16, r22
    54c8:	0f 5f       	subi	r16, 0xFF	; 255
    54ca:	1f 4f       	sbci	r17, 0xFF	; 255
    54cc:	85 e4       	ldi	r24, 0x45	; 69
    54ce:	99 e0       	ldi	r25, 0x09	; 9
    54d0:	0e 94 c7 20 	call	0x418e	; 0x418e <_ZN11EEPROMClass5writeEih>
    54d4:	b8 01       	movw	r22, r16
}

template<class T> int EEPROM_writeAnything(int ee, T& value) {
	unsigned char* p = (unsigned char*) (void*) &value;
	unsigned int i;
	for (i = 0; i < sizeof(value); i++)
    54d6:	0d 33       	cpi	r16, 0x3D	; 61
    54d8:	11 05       	cpc	r17, r1
    54da:	a1 f7       	brne	.-24     	; 0x54c4 <_ZN14FreeBoardModel10saveConfigEv+0x3a>
void FreeBoardModel::saveConfig() {
	//write out a current version
	EEPROM_writeAnything(0, version);
	//write data
	EEPROM_writeAnything(EEPROM_DATA, config);
}
    54dc:	df 91       	pop	r29
    54de:	cf 91       	pop	r28
    54e0:	1f 91       	pop	r17
    54e2:	0f 91       	pop	r16
    54e4:	08 95       	ret

000054e6 <_ZN14FreeBoardModel10readConfigEv>:

void FreeBoardModel::readConfig() {
    54e6:	ef 92       	push	r14
    54e8:	ff 92       	push	r15
    54ea:	0f 93       	push	r16
    54ec:	1f 93       	push	r17
    54ee:	cf 93       	push	r28
    54f0:	df 93       	push	r29
    54f2:	1f 92       	push	r1
    54f4:	1f 92       	push	r1
    54f6:	cd b7       	in	r28, 0x3d	; 61
    54f8:	de b7       	in	r29, 0x3e	; 62
    54fa:	8c 01       	movw	r16, r24
//saving
template<class T> int EEPROM_readAnything(int ee, T& value) {
	unsigned char* p = (unsigned char*) (void*) &value;
	unsigned int i;
	for (i = 0; i < sizeof(value); i++)
		*p++ = EEPROM.read(ee++);
    54fc:	60 e0       	ldi	r22, 0x00	; 0
    54fe:	70 e0       	ldi	r23, 0x00	; 0
    5500:	85 e4       	ldi	r24, 0x45	; 69
    5502:	99 e0       	ldi	r25, 0x09	; 9
    5504:	0e 94 c4 20 	call	0x4188	; 0x4188 <_ZN11EEPROMClass4readEi>
    5508:	89 83       	std	Y+1, r24	; 0x01
    550a:	61 e0       	ldi	r22, 0x01	; 1
    550c:	70 e0       	ldi	r23, 0x00	; 0
    550e:	85 e4       	ldi	r24, 0x45	; 69
    5510:	99 e0       	ldi	r25, 0x09	; 9
    5512:	0e 94 c4 20 	call	0x4188	; 0x4188 <_ZN11EEPROMClass4readEi>
    5516:	8a 83       	std	Y+2, r24	; 0x02

void FreeBoardModel::readConfig() {
	//check versions here
	int ver;
	EEPROM_readAnything(0, ver);
	if (ver != version) {
    5518:	f8 01       	movw	r30, r16
    551a:	e3 55       	subi	r30, 0x53	; 83
    551c:	ff 4f       	sbci	r31, 0xFF	; 255
    551e:	29 81       	ldd	r18, Y+1	; 0x01
    5520:	3a 81       	ldd	r19, Y+2	; 0x02
    5522:	80 81       	ld	r24, Z
    5524:	91 81       	ldd	r25, Z+1	; 0x01
    5526:	28 17       	cp	r18, r24
    5528:	39 07       	cpc	r19, r25
    552a:	19 f0       	breq	.+6      	; 0x5532 <_ZN14FreeBoardModel10readConfigEv+0x4c>
		//save a default config, since we cant read the old one safely
		saveConfig();
    552c:	c8 01       	movw	r24, r16
    552e:	0e 94 45 2a 	call	0x548a	; 0x548a <_ZN14FreeBoardModel10saveConfigEv>
	}

	//now we know its compatible
	EEPROM_readAnything(EEPROM_DATA, config);
    5532:	0c 58       	subi	r16, 0x8C	; 140
    5534:	1f 4f       	sbci	r17, 0xFF	; 255
    5536:	64 e0       	ldi	r22, 0x04	; 4
    5538:	70 e0       	ldi	r23, 0x00	; 0
//saving
template<class T> int EEPROM_readAnything(int ee, T& value) {
	unsigned char* p = (unsigned char*) (void*) &value;
	unsigned int i;
	for (i = 0; i < sizeof(value); i++)
		*p++ = EEPROM.read(ee++);
    553a:	7b 01       	movw	r14, r22
    553c:	8f ef       	ldi	r24, 0xFF	; 255
    553e:	e8 1a       	sub	r14, r24
    5540:	f8 0a       	sbc	r15, r24
    5542:	85 e4       	ldi	r24, 0x45	; 69
    5544:	99 e0       	ldi	r25, 0x09	; 9
    5546:	0e 94 c4 20 	call	0x4188	; 0x4188 <_ZN11EEPROMClass4readEi>
    554a:	f8 01       	movw	r30, r16
    554c:	81 93       	st	Z+, r24
    554e:	8f 01       	movw	r16, r30
    5550:	b7 01       	movw	r22, r14
}
//saving
template<class T> int EEPROM_readAnything(int ee, T& value) {
	unsigned char* p = (unsigned char*) (void*) &value;
	unsigned int i;
	for (i = 0; i < sizeof(value); i++)
    5552:	6d 33       	cpi	r22, 0x3D	; 61
    5554:	71 05       	cpc	r23, r1
    5556:	89 f7       	brne	.-30     	; 0x553a <_ZN14FreeBoardModel10readConfigEv+0x54>
	}

	//now we know its compatible
	EEPROM_readAnything(EEPROM_DATA, config);

}
    5558:	0f 90       	pop	r0
    555a:	0f 90       	pop	r0
    555c:	df 91       	pop	r29
    555e:	cf 91       	pop	r28
    5560:	1f 91       	pop	r17
    5562:	0f 91       	pop	r16
    5564:	ff 90       	pop	r15
    5566:	ef 90       	pop	r14
    5568:	08 95       	ret

0000556a <_ZN14FreeBoardModel12getAlarmLastEv>:
//accessors
bool FreeBoardModel::isWindAlarmTriggered() {
	return windState.windAlarmTriggered;
}

unsigned long FreeBoardModel::getAlarmLast() {
    556a:	fc 01       	movw	r30, r24
	return alarmLast;
    556c:	60 81       	ld	r22, Z
    556e:	71 81       	ldd	r23, Z+1	; 0x01
}
    5570:	82 81       	ldd	r24, Z+2	; 0x02
    5572:	93 81       	ldd	r25, Z+3	; 0x03
    5574:	08 95       	ret

00005576 <_ZN14FreeBoardModel14getAlarmSnoozeEv>:

unsigned long FreeBoardModel::getAlarmSnooze() {
    5576:	fc 01       	movw	r30, r24
	return alarmSnooze;
    5578:	64 81       	ldd	r22, Z+4	; 0x04
    557a:	75 81       	ldd	r23, Z+5	; 0x05
}
    557c:	86 81       	ldd	r24, Z+6	; 0x06
    557e:	97 81       	ldd	r25, Z+7	; 0x07
    5580:	08 95       	ret

00005582 <_ZN14FreeBoardModel17getAnchorDistanceEv>:

float FreeBoardModel::getAnchorDistance() {
    5582:	fc 01       	movw	r30, r24
	return anchorState.anchorDistance;
}
    5584:	54 89       	ldd	r21, Z+20	; 0x14
    5586:	45 89       	ldd	r20, Z+21	; 0x15
    5588:	36 89       	ldd	r19, Z+22	; 0x16
    558a:	27 89       	ldd	r18, Z+23	; 0x17
    558c:	65 2f       	mov	r22, r21
    558e:	74 2f       	mov	r23, r20
    5590:	83 2f       	mov	r24, r19
    5592:	92 2f       	mov	r25, r18
    5594:	08 95       	ret

00005596 <_ZN14FreeBoardModel10getAnchorEEv>:

float FreeBoardModel::getAnchorE() {
    5596:	fc 01       	movw	r30, r24
	return anchorState.anchorE;
}
    5598:	55 a1       	ldd	r21, Z+37	; 0x25
    559a:	46 a1       	ldd	r20, Z+38	; 0x26
    559c:	37 a1       	ldd	r19, Z+39	; 0x27
    559e:	20 a5       	ldd	r18, Z+40	; 0x28
    55a0:	65 2f       	mov	r22, r21
    55a2:	74 2f       	mov	r23, r20
    55a4:	83 2f       	mov	r24, r19
    55a6:	92 2f       	mov	r25, r18
    55a8:	08 95       	ret

000055aa <_ZN14FreeBoardModel12getAnchorLatEv>:

float FreeBoardModel::getAnchorLat() {
	return config.anchorLat;
    55aa:	fc 01       	movw	r30, r24
    55ac:	ec 58       	subi	r30, 0x8C	; 140
    55ae:	ff 4f       	sbci	r31, 0xFF	; 255
}
    55b0:	50 81       	ld	r21, Z
    55b2:	41 81       	ldd	r20, Z+1	; 0x01
    55b4:	32 81       	ldd	r19, Z+2	; 0x02
    55b6:	23 81       	ldd	r18, Z+3	; 0x03
    55b8:	65 2f       	mov	r22, r21
    55ba:	74 2f       	mov	r23, r20
    55bc:	83 2f       	mov	r24, r19
    55be:	92 2f       	mov	r25, r18
    55c0:	08 95       	ret

000055c2 <_ZN14FreeBoardModel12getAnchorLonEv>:

float FreeBoardModel::getAnchorLon() {
	return config.anchorLon;
    55c2:	fc 01       	movw	r30, r24
    55c4:	e8 58       	subi	r30, 0x88	; 136
    55c6:	ff 4f       	sbci	r31, 0xFF	; 255
}
    55c8:	50 81       	ld	r21, Z
    55ca:	41 81       	ldd	r20, Z+1	; 0x01
    55cc:	32 81       	ldd	r19, Z+2	; 0x02
    55ce:	23 81       	ldd	r18, Z+3	; 0x03
    55d0:	65 2f       	mov	r22, r21
    55d2:	74 2f       	mov	r23, r20
    55d4:	83 2f       	mov	r24, r19
    55d6:	92 2f       	mov	r25, r18
    55d8:	08 95       	ret

000055da <_ZN14FreeBoardModel20getAnchorMaxDistanceEv>:

float FreeBoardModel::getAnchorMaxDistance() {
    55da:	fc 01       	movw	r30, r24
	return anchorState.anchorMaxDistance;
}
    55dc:	50 8d       	ldd	r21, Z+24	; 0x18
    55de:	41 8d       	ldd	r20, Z+25	; 0x19
    55e0:	32 8d       	ldd	r19, Z+26	; 0x1a
    55e2:	23 8d       	ldd	r18, Z+27	; 0x1b
    55e4:	65 2f       	mov	r22, r21
    55e6:	74 2f       	mov	r23, r20
    55e8:	83 2f       	mov	r24, r19
    55ea:	92 2f       	mov	r25, r18
    55ec:	08 95       	ret

000055ee <_ZN14FreeBoardModel10getAnchorNEv>:

float FreeBoardModel::getAnchorN() {
    55ee:	fc 01       	movw	r30, r24
	return anchorState.anchorN;
}
    55f0:	55 8d       	ldd	r21, Z+29	; 0x1d
    55f2:	46 8d       	ldd	r20, Z+30	; 0x1e
    55f4:	37 8d       	ldd	r19, Z+31	; 0x1f
    55f6:	20 a1       	ldd	r18, Z+32	; 0x20
    55f8:	65 2f       	mov	r22, r21
    55fa:	74 2f       	mov	r23, r20
    55fc:	83 2f       	mov	r24, r19
    55fe:	92 2f       	mov	r25, r18
    5600:	08 95       	ret

00005602 <_ZN14FreeBoardModel15getAnchorRadiusEv>:

float FreeBoardModel::getAnchorRadius() {
	return config.anchorRadius;
    5602:	fc 01       	movw	r30, r24
    5604:	e4 58       	subi	r30, 0x84	; 132
    5606:	ff 4f       	sbci	r31, 0xFF	; 255
}
    5608:	50 81       	ld	r21, Z
    560a:	41 81       	ldd	r20, Z+1	; 0x01
    560c:	32 81       	ldd	r19, Z+2	; 0x02
    560e:	23 81       	ldd	r18, Z+3	; 0x03
    5610:	65 2f       	mov	r22, r21
    5612:	74 2f       	mov	r23, r20
    5614:	83 2f       	mov	r24, r19
    5616:	92 2f       	mov	r25, r18
    5618:	08 95       	ret

0000561a <_ZN14FreeBoardModel18getAnchorRadiusDegEv>:

float FreeBoardModel::getAnchorRadiusDeg() {
    561a:	fc 01       	movw	r30, r24
	return anchorState.anchorRadiusDeg;
}
    561c:	50 89       	ldd	r21, Z+16	; 0x10
    561e:	41 89       	ldd	r20, Z+17	; 0x11
    5620:	32 89       	ldd	r19, Z+18	; 0x12
    5622:	23 89       	ldd	r18, Z+19	; 0x13
    5624:	65 2f       	mov	r22, r21
    5626:	74 2f       	mov	r23, r20
    5628:	83 2f       	mov	r24, r19
    562a:	92 2f       	mov	r25, r18
    562c:	08 95       	ret

0000562e <_ZN14FreeBoardModel10getAnchorSEv>:

float FreeBoardModel::getAnchorS() {
    562e:	fc 01       	movw	r30, r24
	return anchorState.anchorS;
}
    5630:	51 a1       	ldd	r21, Z+33	; 0x21
    5632:	42 a1       	ldd	r20, Z+34	; 0x22
    5634:	33 a1       	ldd	r19, Z+35	; 0x23
    5636:	24 a1       	ldd	r18, Z+36	; 0x24
    5638:	65 2f       	mov	r22, r21
    563a:	74 2f       	mov	r23, r20
    563c:	83 2f       	mov	r24, r19
    563e:	92 2f       	mov	r25, r18
    5640:	08 95       	ret

00005642 <_ZN14FreeBoardModel10getAnchorWEv>:

float FreeBoardModel::getAnchorW() {
    5642:	fc 01       	movw	r30, r24
	return anchorState.anchorW;
}
    5644:	51 a5       	ldd	r21, Z+41	; 0x29
    5646:	42 a5       	ldd	r20, Z+42	; 0x2a
    5648:	33 a5       	ldd	r19, Z+43	; 0x2b
    564a:	24 a5       	ldd	r18, Z+44	; 0x2c
    564c:	65 2f       	mov	r22, r21
    564e:	74 2f       	mov	r23, r20
    5650:	83 2f       	mov	r24, r19
    5652:	92 2f       	mov	r25, r18
    5654:	08 95       	ret

00005656 <_ZN14FreeBoardModel25getAutopilotRudderCommandEv>:

double FreeBoardModel::getAutopilotAlarmMaxXtError() {
	return autopilotState.autopilotAlarmMaxXTError;
}

double FreeBoardModel::getAutopilotRudderCommand() {
    5656:	fc 01       	movw	r30, r24
	return autopilotState.autopilotRudderCommand;
}
    5658:	57 a9       	ldd	r21, Z+55	; 0x37
    565a:	40 ad       	ldd	r20, Z+56	; 0x38
    565c:	31 ad       	ldd	r19, Z+57	; 0x39
    565e:	22 ad       	ldd	r18, Z+58	; 0x3a
    5660:	65 2f       	mov	r22, r21
    5662:	74 2f       	mov	r23, r20
    5664:	83 2f       	mov	r24, r19
    5666:	92 2f       	mov	r25, r18
    5668:	08 95       	ret

0000566a <_ZN14FreeBoardModel25getAutopilotTargetHeadingEv>:

double FreeBoardModel::getAutopilotTargetHeading() {
    566a:	fc 01       	movw	r30, r24
	return autopilotState.autopilotTargetHeading;
}
    566c:	53 a9       	ldd	r21, Z+51	; 0x33
    566e:	44 a9       	ldd	r20, Z+52	; 0x34
    5670:	35 a9       	ldd	r19, Z+53	; 0x35
    5672:	26 a9       	ldd	r18, Z+54	; 0x36
    5674:	65 2f       	mov	r22, r21
    5676:	74 2f       	mov	r23, r20
    5678:	83 2f       	mov	r24, r19
    567a:	92 2f       	mov	r25, r18
    567c:	08 95       	ret

0000567e <_ZN14FreeBoardModel26getAutopilotCurrentHeadingEv>:
double FreeBoardModel::getAutopilotCurrentHeading() {
    567e:	fc 01       	movw	r30, r24
	if(autopilotState.autopilotReference == AUTOPILOT_WIND){
    5680:	82 a9       	ldd	r24, Z+50	; 0x32
    5682:	87 35       	cpi	r24, 0x57	; 87
    5684:	59 f4       	brne	.+22     	; 0x569c <_ZN14FreeBoardModel26getAutopilotCurrentHeadingEv+0x1e>
		return windState.windApparentDir;
    5686:	e1 59       	subi	r30, 0x91	; 145
    5688:	ff 4f       	sbci	r31, 0xFF	; 255
    568a:	60 81       	ld	r22, Z
    568c:	71 81       	ldd	r23, Z+1	; 0x01
    568e:	88 27       	eor	r24, r24
    5690:	77 fd       	sbrc	r23, 7
    5692:	80 95       	com	r24
    5694:	98 2f       	mov	r25, r24
    5696:	0e 94 8c 42 	call	0x8518	; 0x8518 <__floatsisf>
    569a:	04 c0       	rjmp	.+8      	; 0x56a4 <_ZN14FreeBoardModel26getAutopilotCurrentHeadingEv+0x26>
	}
	//default option - compass
	return magneticHeading;
    569c:	60 85       	ldd	r22, Z+8	; 0x08
    569e:	71 85       	ldd	r23, Z+9	; 0x09
    56a0:	82 85       	ldd	r24, Z+10	; 0x0a
    56a2:	93 85       	ldd	r25, Z+11	; 0x0b
}
    56a4:	08 95       	ret

000056a6 <_ZN14FreeBoardModel21getAutopilotOffCourseEv>:
}

/*
 * Returns -179 to +180 as the degrees off course
 */
double FreeBoardModel::getAutopilotOffCourse() {
    56a6:	ef 92       	push	r14
    56a8:	ff 92       	push	r15
    56aa:	0f 93       	push	r16
    56ac:	1f 93       	push	r17
    56ae:	cf 93       	push	r28
    56b0:	df 93       	push	r29
    56b2:	ec 01       	movw	r28, r24
	//get degrees between
	autopilotState.autopilotOffCourse = getAutopilotTargetHeading()	- getAutopilotCurrentHeading();
    56b4:	0e 94 3f 2b 	call	0x567e	; 0x567e <_ZN14FreeBoardModel26getAutopilotCurrentHeadingEv>
    56b8:	9b 01       	movw	r18, r22
    56ba:	ac 01       	movw	r20, r24
    56bc:	6b a9       	ldd	r22, Y+51	; 0x33
    56be:	7c a9       	ldd	r23, Y+52	; 0x34
    56c0:	8d a9       	ldd	r24, Y+53	; 0x35
    56c2:	9e a9       	ldd	r25, Y+54	; 0x36
    56c4:	0e 94 23 41 	call	0x8246	; 0x8246 <__subsf3>
    56c8:	7b 01       	movw	r14, r22
    56ca:	8c 01       	movw	r16, r24
	autopilotState.autopilotOffCourse += (autopilotState.autopilotOffCourse>180) ? -360 : (autopilotState.autopilotOffCourse<-180) ? 360 : 0;
    56cc:	20 e0       	ldi	r18, 0x00	; 0
    56ce:	30 e0       	ldi	r19, 0x00	; 0
    56d0:	44 e3       	ldi	r20, 0x34	; 52
    56d2:	53 e4       	ldi	r21, 0x43	; 67
    56d4:	7f 2d       	mov	r23, r15
    56d6:	91 2f       	mov	r25, r17
    56d8:	0e 94 ed 43 	call	0x87da	; 0x87da <__gesf2>
    56dc:	18 16       	cp	r1, r24
    56de:	8c f0       	brlt	.+34     	; 0x5702 <_ZN14FreeBoardModel21getAutopilotOffCourseEv+0x5c>
    56e0:	20 e0       	ldi	r18, 0x00	; 0
    56e2:	30 e0       	ldi	r19, 0x00	; 0
    56e4:	44 e3       	ldi	r20, 0x34	; 52
    56e6:	53 ec       	ldi	r21, 0xC3	; 195
    56e8:	6e 2d       	mov	r22, r14
    56ea:	7f 2d       	mov	r23, r15
    56ec:	80 2f       	mov	r24, r16
    56ee:	91 2f       	mov	r25, r17
    56f0:	0e 94 ea 41 	call	0x83d4	; 0x83d4 <__cmpsf2>
    56f4:	87 ff       	sbrs	r24, 7
    56f6:	0a c0       	rjmp	.+20     	; 0x570c <_ZN14FreeBoardModel21getAutopilotOffCourseEv+0x66>
    56f8:	20 e0       	ldi	r18, 0x00	; 0
    56fa:	30 e0       	ldi	r19, 0x00	; 0
    56fc:	44 eb       	ldi	r20, 0xB4	; 180
    56fe:	53 e4       	ldi	r21, 0x43	; 67
    5700:	08 c0       	rjmp	.+16     	; 0x5712 <_ZN14FreeBoardModel21getAutopilotOffCourseEv+0x6c>
    5702:	20 e0       	ldi	r18, 0x00	; 0
    5704:	30 e0       	ldi	r19, 0x00	; 0
    5706:	44 eb       	ldi	r20, 0xB4	; 180
    5708:	53 ec       	ldi	r21, 0xC3	; 195
    570a:	03 c0       	rjmp	.+6      	; 0x5712 <_ZN14FreeBoardModel21getAutopilotOffCourseEv+0x6c>
    570c:	20 e0       	ldi	r18, 0x00	; 0
    570e:	30 e0       	ldi	r19, 0x00	; 0
    5710:	a9 01       	movw	r20, r18
    5712:	6e 2d       	mov	r22, r14
    5714:	7f 2d       	mov	r23, r15
    5716:	80 2f       	mov	r24, r16
    5718:	91 2f       	mov	r25, r17
    571a:	0e 94 24 41 	call	0x8248	; 0x8248 <__addsf3>
    571e:	9b 01       	movw	r18, r22
    5720:	46 2f       	mov	r20, r22
    5722:	53 2f       	mov	r21, r19
    5724:	68 2f       	mov	r22, r24
    5726:	79 2f       	mov	r23, r25
    5728:	4e a7       	std	Y+46, r20	; 0x2e
    572a:	5f a7       	std	Y+47, r21	; 0x2f
    572c:	68 ab       	std	Y+48, r22	; 0x30
    572e:	79 ab       	std	Y+49, r23	; 0x31

	return autopilotState.autopilotOffCourse;
}
    5730:	62 2f       	mov	r22, r18
    5732:	73 2f       	mov	r23, r19
    5734:	df 91       	pop	r29
    5736:	cf 91       	pop	r28
    5738:	1f 91       	pop	r17
    573a:	0f 91       	pop	r16
    573c:	ff 90       	pop	r15
    573e:	ef 90       	pop	r14
    5740:	08 95       	ret

00005742 <_ZN14FreeBoardModel11writeSimpleE14HardwareSerial>:
	return i;

}


int FreeBoardModel::writeSimple(HardwareSerial ser) {
    5742:	ef 92       	push	r14
    5744:	ff 92       	push	r15
    5746:	0f 93       	push	r16
    5748:	1f 93       	push	r17
    574a:	cf 93       	push	r28
    574c:	df 93       	push	r29
    574e:	8c 01       	movw	r16, r24
    5750:	d6 2f       	mov	r29, r22
    5752:	c7 2f       	mov	r28, r23
	//ArduIMU output format
	//!!VER:1.9,RLL:-0.52,PCH:0.06,YAW:80.24,IMUH:253,MGX:44,MGY:-254,MGZ:-257,MGH:80.11,LAT:-412937350,LON:1732472000,ALT:14,COG:116,SOG:0,FIX:1,SAT:5,TOW:22504700,

	ser.print("!!VER:1.9,");
    5754:	64 e5       	ldi	r22, 0x54	; 84
    5756:	72 e0       	ldi	r23, 0x02	; 2
    5758:	8d 2f       	mov	r24, r29
    575a:	9c 2f       	mov	r25, r28
    575c:	0e 94 99 06 	call	0xd32	; 0xd32 <_ZN5Print5printEPKc>
	ser.print("UID:MEGA,APX:");
    5760:	6f e5       	ldi	r22, 0x5F	; 95
    5762:	72 e0       	ldi	r23, 0x02	; 2
    5764:	8d 2f       	mov	r24, r29
    5766:	9c 2f       	mov	r25, r28
    5768:	0e 94 99 06 	call	0xd32	; 0xd32 <_ZN5Print5printEPKc>
	ser.print(autopilotState.autopilotOn);
    576c:	f8 01       	movw	r30, r16
    576e:	65 a5       	ldd	r22, Z+45	; 0x2d
    5770:	4a e0       	ldi	r20, 0x0A	; 10
    5772:	50 e0       	ldi	r21, 0x00	; 0
    5774:	70 e0       	ldi	r23, 0x00	; 0
    5776:	8d 2f       	mov	r24, r29
    5778:	9c 2f       	mov	r25, r28
    577a:	0e 94 41 08 	call	0x1082	; 0x1082 <_ZN5Print5printEii>
	ser.print(",APS:");
    577e:	6d e6       	ldi	r22, 0x6D	; 109
    5780:	72 e0       	ldi	r23, 0x02	; 2
    5782:	8d 2f       	mov	r24, r29
    5784:	9c 2f       	mov	r25, r28
    5786:	0e 94 99 06 	call	0xd32	; 0xd32 <_ZN5Print5printEPKc>
	ser.print(autopilotState.autopilotReference);
    578a:	f8 01       	movw	r30, r16
    578c:	62 a9       	ldd	r22, Z+50	; 0x32
    578e:	8d 2f       	mov	r24, r29
    5790:	9c 2f       	mov	r25, r28
    5792:	0e 94 9b 06 	call	0xd36	; 0xd36 <_ZN5Print5printEc>
	//if autopilot on, send autopilot data
	if (autopilotState.autopilotOn) {
    5796:	f8 01       	movw	r30, r16
    5798:	85 a5       	ldd	r24, Z+45	; 0x2d
    579a:	88 23       	and	r24, r24
    579c:	d9 f1       	breq	.+118    	; 0x5814 <_ZN14FreeBoardModel11writeSimpleE14HardwareSerial+0xd2>
		ser.print(",APT:");
    579e:	63 e7       	ldi	r22, 0x73	; 115
    57a0:	72 e0       	ldi	r23, 0x02	; 2
    57a2:	8d 2f       	mov	r24, r29
    57a4:	9c 2f       	mov	r25, r28
    57a6:	0e 94 99 06 	call	0xd32	; 0xd32 <_ZN5Print5printEPKc>
		ser.print(getAutopilotTargetHeading());
    57aa:	f8 01       	movw	r30, r16
    57ac:	43 a9       	ldd	r20, Z+51	; 0x33
    57ae:	54 a9       	ldd	r21, Z+52	; 0x34
    57b0:	65 a9       	ldd	r22, Z+53	; 0x35
    57b2:	76 a9       	ldd	r23, Z+54	; 0x36
    57b4:	22 e0       	ldi	r18, 0x02	; 2
    57b6:	30 e0       	ldi	r19, 0x00	; 0
    57b8:	8d 2f       	mov	r24, r29
    57ba:	9c 2f       	mov	r25, r28
    57bc:	0e 94 57 09 	call	0x12ae	; 0x12ae <_ZN5Print5printEdi>
		ser.print(",APC:");
    57c0:	69 e7       	ldi	r22, 0x79	; 121
    57c2:	72 e0       	ldi	r23, 0x02	; 2
    57c4:	8d 2f       	mov	r24, r29
    57c6:	9c 2f       	mov	r25, r28
    57c8:	0e 94 99 06 	call	0xd32	; 0xd32 <_ZN5Print5printEPKc>
		ser.print(getAutopilotCurrentHeading());
    57cc:	c8 01       	movw	r24, r16
    57ce:	0e 94 3f 2b 	call	0x567e	; 0x567e <_ZN14FreeBoardModel26getAutopilotCurrentHeadingEv>
    57d2:	ab 01       	movw	r20, r22
    57d4:	bc 01       	movw	r22, r24
    57d6:	22 e0       	ldi	r18, 0x02	; 2
    57d8:	30 e0       	ldi	r19, 0x00	; 0
    57da:	8d 2f       	mov	r24, r29
    57dc:	9c 2f       	mov	r25, r28
    57de:	0e 94 57 09 	call	0x12ae	; 0x12ae <_ZN5Print5printEdi>
		ser.print(",APR:");
    57e2:	6f e7       	ldi	r22, 0x7F	; 127
    57e4:	72 e0       	ldi	r23, 0x02	; 2
    57e6:	8d 2f       	mov	r24, r29
    57e8:	9c 2f       	mov	r25, r28
    57ea:	0e 94 99 06 	call	0xd32	; 0xd32 <_ZN5Print5printEPKc>
		ser.print(autopilotState.autopilotRudderCommand-33.0);// 0-66 in model
    57ee:	20 e0       	ldi	r18, 0x00	; 0
    57f0:	30 e0       	ldi	r19, 0x00	; 0
    57f2:	44 e0       	ldi	r20, 0x04	; 4
    57f4:	52 e4       	ldi	r21, 0x42	; 66
    57f6:	f8 01       	movw	r30, r16
    57f8:	67 a9       	ldd	r22, Z+55	; 0x37
    57fa:	70 ad       	ldd	r23, Z+56	; 0x38
    57fc:	81 ad       	ldd	r24, Z+57	; 0x39
    57fe:	92 ad       	ldd	r25, Z+58	; 0x3a
    5800:	0e 94 23 41 	call	0x8246	; 0x8246 <__subsf3>
    5804:	ab 01       	movw	r20, r22
    5806:	bc 01       	movw	r22, r24
    5808:	22 e0       	ldi	r18, 0x02	; 2
    580a:	30 e0       	ldi	r19, 0x00	; 0
    580c:	8d 2f       	mov	r24, r29
    580e:	9c 2f       	mov	r25, r28
    5810:	0e 94 57 09 	call	0x12ae	; 0x12ae <_ZN5Print5printEdi>
	}
	//if anchor alarm on, send data
	ser.print(",AAX:");
    5814:	65 e8       	ldi	r22, 0x85	; 133
    5816:	72 e0       	ldi	r23, 0x02	; 2
    5818:	8d 2f       	mov	r24, r29
    581a:	9c 2f       	mov	r25, r28
    581c:	0e 94 99 06 	call	0xd32	; 0xd32 <_ZN5Print5printEPKc>
	ser.print(config.anchorAlarmOn);
    5820:	78 01       	movw	r14, r16
    5822:	f0 e8       	ldi	r31, 0x80	; 128
    5824:	ef 0e       	add	r14, r31
    5826:	f1 1c       	adc	r15, r1
    5828:	f7 01       	movw	r30, r14
    582a:	60 81       	ld	r22, Z
    582c:	4a e0       	ldi	r20, 0x0A	; 10
    582e:	50 e0       	ldi	r21, 0x00	; 0
    5830:	70 e0       	ldi	r23, 0x00	; 0
    5832:	8d 2f       	mov	r24, r29
    5834:	9c 2f       	mov	r25, r28
    5836:	0e 94 41 08 	call	0x1082	; 0x1082 <_ZN5Print5printEii>
	ser.print(",AAR:");
    583a:	6b e8       	ldi	r22, 0x8B	; 139
    583c:	72 e0       	ldi	r23, 0x02	; 2
    583e:	8d 2f       	mov	r24, r29
    5840:	9c 2f       	mov	r25, r28
    5842:	0e 94 99 06 	call	0xd32	; 0xd32 <_ZN5Print5printEPKc>
	ser.print(config.anchorRadius);
    5846:	f8 01       	movw	r30, r16
    5848:	e4 58       	subi	r30, 0x84	; 132
    584a:	ff 4f       	sbci	r31, 0xFF	; 255
    584c:	40 81       	ld	r20, Z
    584e:	51 81       	ldd	r21, Z+1	; 0x01
    5850:	62 81       	ldd	r22, Z+2	; 0x02
    5852:	73 81       	ldd	r23, Z+3	; 0x03
    5854:	22 e0       	ldi	r18, 0x02	; 2
    5856:	30 e0       	ldi	r19, 0x00	; 0
    5858:	8d 2f       	mov	r24, r29
    585a:	9c 2f       	mov	r25, r28
    585c:	0e 94 57 09 	call	0x12ae	; 0x12ae <_ZN5Print5printEdi>
	if (config.anchorAlarmOn) {
    5860:	f7 01       	movw	r30, r14
    5862:	80 81       	ld	r24, Z
    5864:	88 23       	and	r24, r24
    5866:	b9 f1       	breq	.+110    	; 0x58d6 <_ZN14FreeBoardModel11writeSimpleE14HardwareSerial+0x194>
		ser.print(",AAN:");
    5868:	61 e9       	ldi	r22, 0x91	; 145
    586a:	72 e0       	ldi	r23, 0x02	; 2
    586c:	8d 2f       	mov	r24, r29
    586e:	9c 2f       	mov	r25, r28
    5870:	0e 94 99 06 	call	0xd32	; 0xd32 <_ZN5Print5printEPKc>
		ser.print(config.anchorLat);
    5874:	f8 01       	movw	r30, r16
    5876:	ec 58       	subi	r30, 0x8C	; 140
    5878:	ff 4f       	sbci	r31, 0xFF	; 255
    587a:	40 81       	ld	r20, Z
    587c:	51 81       	ldd	r21, Z+1	; 0x01
    587e:	62 81       	ldd	r22, Z+2	; 0x02
    5880:	73 81       	ldd	r23, Z+3	; 0x03
    5882:	22 e0       	ldi	r18, 0x02	; 2
    5884:	30 e0       	ldi	r19, 0x00	; 0
    5886:	8d 2f       	mov	r24, r29
    5888:	9c 2f       	mov	r25, r28
    588a:	0e 94 57 09 	call	0x12ae	; 0x12ae <_ZN5Print5printEdi>
		ser.print(",AAE:");
    588e:	67 e9       	ldi	r22, 0x97	; 151
    5890:	72 e0       	ldi	r23, 0x02	; 2
    5892:	8d 2f       	mov	r24, r29
    5894:	9c 2f       	mov	r25, r28
    5896:	0e 94 99 06 	call	0xd32	; 0xd32 <_ZN5Print5printEPKc>
		ser.print(config.anchorLon);
    589a:	f8 01       	movw	r30, r16
    589c:	e8 58       	subi	r30, 0x88	; 136
    589e:	ff 4f       	sbci	r31, 0xFF	; 255
    58a0:	40 81       	ld	r20, Z
    58a2:	51 81       	ldd	r21, Z+1	; 0x01
    58a4:	62 81       	ldd	r22, Z+2	; 0x02
    58a6:	73 81       	ldd	r23, Z+3	; 0x03
    58a8:	22 e0       	ldi	r18, 0x02	; 2
    58aa:	30 e0       	ldi	r19, 0x00	; 0
    58ac:	8d 2f       	mov	r24, r29
    58ae:	9c 2f       	mov	r25, r28
    58b0:	0e 94 57 09 	call	0x12ae	; 0x12ae <_ZN5Print5printEdi>
		ser.print(",AAD:");
    58b4:	6d e9       	ldi	r22, 0x9D	; 157
    58b6:	72 e0       	ldi	r23, 0x02	; 2
    58b8:	8d 2f       	mov	r24, r29
    58ba:	9c 2f       	mov	r25, r28
    58bc:	0e 94 99 06 	call	0xd32	; 0xd32 <_ZN5Print5printEPKc>
		ser.print(getAnchorDistance());
    58c0:	f8 01       	movw	r30, r16
    58c2:	44 89       	ldd	r20, Z+20	; 0x14
    58c4:	55 89       	ldd	r21, Z+21	; 0x15
    58c6:	66 89       	ldd	r22, Z+22	; 0x16
    58c8:	77 89       	ldd	r23, Z+23	; 0x17
    58ca:	22 e0       	ldi	r18, 0x02	; 2
    58cc:	30 e0       	ldi	r19, 0x00	; 0
    58ce:	8d 2f       	mov	r24, r29
    58d0:	9c 2f       	mov	r25, r28
    58d2:	0e 94 57 09 	call	0x12ae	; 0x12ae <_ZN5Print5printEdi>
	}
	//if wind alarm on, send data
	ser.print(",WSX:");
    58d6:	63 ea       	ldi	r22, 0xA3	; 163
    58d8:	72 e0       	ldi	r23, 0x02	; 2
    58da:	8d 2f       	mov	r24, r29
    58dc:	9c 2f       	mov	r25, r28
    58de:	0e 94 99 06 	call	0xd32	; 0xd32 <_ZN5Print5printEPKc>
	ser.print(config.windAlarmOn);
    58e2:	f8 01       	movw	r30, r16
    58e4:	ed 56       	subi	r30, 0x6D	; 109
    58e6:	ff 4f       	sbci	r31, 0xFF	; 255
    58e8:	60 81       	ld	r22, Z
    58ea:	4a e0       	ldi	r20, 0x0A	; 10
    58ec:	50 e0       	ldi	r21, 0x00	; 0
    58ee:	70 e0       	ldi	r23, 0x00	; 0
    58f0:	8d 2f       	mov	r24, r29
    58f2:	9c 2f       	mov	r25, r28
    58f4:	0e 94 41 08 	call	0x1082	; 0x1082 <_ZN5Print5printEii>
	ser.print(",WSK:");
    58f8:	69 ea       	ldi	r22, 0xA9	; 169
    58fa:	72 e0       	ldi	r23, 0x02	; 2
    58fc:	8d 2f       	mov	r24, r29
    58fe:	9c 2f       	mov	r25, r28
    5900:	0e 94 99 06 	call	0xd32	; 0xd32 <_ZN5Print5printEPKc>
	ser.print(config.windAlarmSpeed);
    5904:	f8 01       	movw	r30, r16
    5906:	ef 56       	subi	r30, 0x6F	; 111
    5908:	ff 4f       	sbci	r31, 0xFF	; 255
    590a:	60 81       	ld	r22, Z
    590c:	71 81       	ldd	r23, Z+1	; 0x01
    590e:	4a e0       	ldi	r20, 0x0A	; 10
    5910:	50 e0       	ldi	r21, 0x00	; 0
    5912:	8d 2f       	mov	r24, r29
    5914:	9c 2f       	mov	r25, r28
    5916:	0e 94 41 08 	call	0x1082	; 0x1082 <_ZN5Print5printEii>

	ser.println(",");
    591a:	6d e0       	ldi	r22, 0x0D	; 13
    591c:	75 e0       	ldi	r23, 0x05	; 5
    591e:	8d 2f       	mov	r24, r29
    5920:	9c 2f       	mov	r25, r28
    5922:	0e 94 ea 06 	call	0xdd4	; 0xdd4 <_ZN5Print7printlnEPKc>
	return 0;
}
    5926:	80 e0       	ldi	r24, 0x00	; 0
    5928:	90 e0       	ldi	r25, 0x00	; 0
    592a:	df 91       	pop	r29
    592c:	cf 91       	pop	r28
    592e:	1f 91       	pop	r17
    5930:	0f 91       	pop	r16
    5932:	ff 90       	pop	r15
    5934:	ef 90       	pop	r14
    5936:	08 95       	ret

00005938 <_ZN14FreeBoardModel20getAutopilotDeadZoneEv>:
	//default option - compass
	return magneticHeading;
}

int FreeBoardModel::getAutopilotDeadZone(){
	return this->config.autopilotDeadZone;
    5938:	fc 01       	movw	r30, r24
    593a:	ee 57       	subi	r30, 0x7E	; 126
    593c:	ff 4f       	sbci	r31, 0xFF	; 255
}
    593e:	80 81       	ld	r24, Z
    5940:	91 81       	ldd	r25, Z+1	; 0x01
    5942:	08 95       	ret

00005944 <_ZN14FreeBoardModel17getAutopilotSlackEv>:
int FreeBoardModel::getAutopilotSlack(){
	return this->config.autopilotSlack;
    5944:	fc 01       	movw	r30, r24
    5946:	ec 57       	subi	r30, 0x7C	; 124
    5948:	ff 4f       	sbci	r31, 0xFF	; 255
}
    594a:	80 81       	ld	r24, Z
    594c:	91 81       	ldd	r25, Z+1	; 0x01
    594e:	08 95       	ret

00005950 <_ZN14FreeBoardModel13getGpsLastFixEv>:
float FreeBoardModel::getGpsCourse() {
	return gpsState.gpsCourse;
}

unsigned long FreeBoardModel::getGpsLastFix() {
	return gpsState.gpsLastFix;
    5950:	fc 01       	movw	r30, r24
    5952:	e7 5b       	subi	r30, 0xB7	; 183
    5954:	ff 4f       	sbci	r31, 0xFF	; 255
    5956:	60 81       	ld	r22, Z
    5958:	71 81       	ldd	r23, Z+1	; 0x01
}
    595a:	82 81       	ldd	r24, Z+2	; 0x02
    595c:	93 81       	ldd	r25, Z+3	; 0x03
    595e:	08 95       	ret

00005960 <_ZN14FreeBoardModel14getGpsLatitudeEv>:

float FreeBoardModel::getGpsLatitude() {
	return gpsState.gpsLatitude;
    5960:	fc 01       	movw	r30, r24
    5962:	ee 5a       	subi	r30, 0xAE	; 174
    5964:	ff 4f       	sbci	r31, 0xFF	; 255
}
    5966:	50 81       	ld	r21, Z
    5968:	41 81       	ldd	r20, Z+1	; 0x01
    596a:	32 81       	ldd	r19, Z+2	; 0x02
    596c:	23 81       	ldd	r18, Z+3	; 0x03
    596e:	65 2f       	mov	r22, r21
    5970:	74 2f       	mov	r23, r20
    5972:	83 2f       	mov	r24, r19
    5974:	92 2f       	mov	r25, r18
    5976:	08 95       	ret

00005978 <_ZN14FreeBoardModel15getGpsLongitudeEv>:

float FreeBoardModel::getGpsLongitude() {
	return gpsState.gpsLongitude;
    5978:	fc 01       	movw	r30, r24
    597a:	ea 5a       	subi	r30, 0xAA	; 170
    597c:	ff 4f       	sbci	r31, 0xFF	; 255
}
    597e:	50 81       	ld	r21, Z
    5980:	41 81       	ldd	r20, Z+1	; 0x01
    5982:	32 81       	ldd	r19, Z+2	; 0x02
    5984:	23 81       	ldd	r18, Z+3	; 0x03
    5986:	65 2f       	mov	r22, r21
    5988:	74 2f       	mov	r23, r20
    598a:	83 2f       	mov	r24, r19
    598c:	92 2f       	mov	r25, r18
    598e:	08 95       	ret

00005990 <_ZN14FreeBoardModel15getGpsSpeedUnitEv>:
float FreeBoardModel::getGpsSpeed() {
	return gpsState.gpsSpeed;
}

float FreeBoardModel::getGpsSpeedUnit() {
	return config.gpsSpeedUnit;
    5990:	fc 01       	movw	r30, r24
    5992:	ea 57       	subi	r30, 0x7A	; 122
    5994:	ff 4f       	sbci	r31, 0xFF	; 255
}
    5996:	50 81       	ld	r21, Z
    5998:	41 81       	ldd	r20, Z+1	; 0x01
    599a:	32 81       	ldd	r19, Z+2	; 0x02
    599c:	23 81       	ldd	r18, Z+3	; 0x03
    599e:	65 2f       	mov	r22, r21
    59a0:	74 2f       	mov	r23, r20
    59a2:	83 2f       	mov	r24, r19
    59a4:	92 2f       	mov	r25, r18
    59a6:	08 95       	ret

000059a8 <_ZN14FreeBoardModel12getGpsStatusEv>:

char FreeBoardModel::getGpsStatus() {
	return gpsState.gpsStatus;
    59a8:	8f 5a       	subi	r24, 0xAF	; 175
    59aa:	9f 4f       	sbci	r25, 0xFF	; 255
}
    59ac:	fc 01       	movw	r30, r24
    59ae:	80 81       	ld	r24, Z
    59b0:	08 95       	ret

000059b2 <_ZN14FreeBoardModel18getMagneticHeadingEv>:

float FreeBoardModel::getGpsUtc() {
	return gpsState.gpsUtc;
}

float FreeBoardModel::getMagneticHeading(){
    59b2:	fc 01       	movw	r30, r24
	return this->magneticHeading;
}
    59b4:	50 85       	ldd	r21, Z+8	; 0x08
    59b6:	41 85       	ldd	r20, Z+9	; 0x09
    59b8:	32 85       	ldd	r19, Z+10	; 0x0a
    59ba:	23 85       	ldd	r18, Z+11	; 0x0b
    59bc:	65 2f       	mov	r22, r21
    59be:	74 2f       	mov	r23, r20
    59c0:	83 2f       	mov	r24, r19
    59c2:	92 2f       	mov	r25, r18
    59c4:	08 95       	ret

000059c6 <_ZN14FreeBoardModel14getDeclinationEv>:
float FreeBoardModel::getDeclination(){
    59c6:	fc 01       	movw	r30, r24
	return declination;
}
    59c8:	54 85       	ldd	r21, Z+12	; 0x0c
    59ca:	45 85       	ldd	r20, Z+13	; 0x0d
    59cc:	36 85       	ldd	r19, Z+14	; 0x0e
    59ce:	27 85       	ldd	r18, Z+15	; 0x0f
    59d0:	65 2f       	mov	r22, r21
    59d2:	74 2f       	mov	r23, r20
    59d4:	83 2f       	mov	r24, r19
    59d6:	92 2f       	mov	r25, r18
    59d8:	08 95       	ret

000059da <_ZN14FreeBoardModel17getWindZeroOffsetEv>:
volatile bool FreeBoardModel::isRadarAlarmTriggered() {
	return radarAlarmTriggered;
}

int FreeBoardModel::getWindZeroOffset() {
	return config.windZeroOffset;
    59da:	fc 01       	movw	r30, r24
    59dc:	e8 56       	subi	r30, 0x68	; 104
    59de:	ff 4f       	sbci	r31, 0xFF	; 255
}
    59e0:	80 81       	ld	r24, Z
    59e2:	91 81       	ldd	r25, Z+1	; 0x01
    59e4:	08 95       	ret

000059e6 <_ZN14FreeBoardModel17getWindAlarmSpeedEv>:

int FreeBoardModel::getWindAlarmSpeed() {
	return config.windAlarmSpeed;
    59e6:	fc 01       	movw	r30, r24
    59e8:	ef 56       	subi	r30, 0x6F	; 111
    59ea:	ff 4f       	sbci	r31, 0xFF	; 255
}
    59ec:	80 81       	ld	r24, Z
    59ee:	91 81       	ldd	r25, Z+1	; 0x01
    59f0:	08 95       	ret

000059f2 <_ZN14FreeBoardModel18getWindApparentDirEv>:

int FreeBoardModel::getWindApparentDir() {
	return windState.windApparentDir;
    59f2:	fc 01       	movw	r30, r24
    59f4:	e1 59       	subi	r30, 0x91	; 145
    59f6:	ff 4f       	sbci	r31, 0xFF	; 255
}
    59f8:	80 81       	ld	r24, Z
    59fa:	91 81       	ldd	r25, Z+1	; 0x01
    59fc:	08 95       	ret

000059fe <_ZN14FreeBoardModel14getWindAverageEv>:
int FreeBoardModel::getWindTrueDir() {
	return windState.windTrueDir;
}

float FreeBoardModel::getWindAverage() {
	return windState.windAverage;
    59fe:	fc 01       	movw	r30, r24
    5a00:	e7 59       	subi	r30, 0x97	; 151
    5a02:	ff 4f       	sbci	r31, 0xFF	; 255
}
    5a04:	50 81       	ld	r21, Z
    5a06:	41 81       	ldd	r20, Z+1	; 0x01
    5a08:	32 81       	ldd	r19, Z+2	; 0x02
    5a0a:	23 81       	ldd	r18, Z+3	; 0x03
    5a0c:	65 2f       	mov	r22, r21
    5a0e:	74 2f       	mov	r23, r20
    5a10:	83 2f       	mov	r24, r19
    5a12:	92 2f       	mov	r25, r18
    5a14:	08 95       	ret

00005a16 <_ZN14FreeBoardModel13getWindFactorEv>:

float FreeBoardModel::getWindFactor() {
	return config.windFactor;
    5a16:	fc 01       	movw	r30, r24
    5a18:	ec 56       	subi	r30, 0x6C	; 108
    5a1a:	ff 4f       	sbci	r31, 0xFF	; 255
}
    5a1c:	50 81       	ld	r21, Z
    5a1e:	41 81       	ldd	r20, Z+1	; 0x01
    5a20:	32 81       	ldd	r19, Z+2	; 0x02
    5a22:	23 81       	ldd	r18, Z+3	; 0x03
    5a24:	65 2f       	mov	r22, r21
    5a26:	74 2f       	mov	r23, r20
    5a28:	83 2f       	mov	r24, r19
    5a2a:	92 2f       	mov	r25, r18
    5a2c:	08 95       	ret

00005a2e <_ZN14FreeBoardModel10getWindMaxEv>:
unsigned long FreeBoardModel::getWindLastUpdate() {
	return windState.windLastUpdate;
}

int FreeBoardModel::getWindMax() {
	return windState.windMax;
    5a2e:	fc 01       	movw	r30, r24
    5a30:	e3 59       	subi	r30, 0x93	; 147
    5a32:	ff 4f       	sbci	r31, 0xFF	; 255
}
    5a34:	80 81       	ld	r24, Z
    5a36:	91 81       	ldd	r25, Z+1	; 0x01
    5a38:	08 95       	ret

00005a3a <_ZN14FreeBoardModel15isAnchorAlarmOnEv>:

bool FreeBoardModel::isAnchorAlarmOn() {
	return config.anchorAlarmOn;
    5a3a:	80 58       	subi	r24, 0x80	; 128
    5a3c:	9f 4f       	sbci	r25, 0xFF	; 255
}
    5a3e:	fc 01       	movw	r30, r24
    5a40:	80 81       	ld	r24, Z
    5a42:	08 95       	ret

00005a44 <_ZN14FreeBoardModel11isGpsDecodeEv>:
bool FreeBoardModel::isGpsAlarmTriggered() {
	return gpsState.gpsAlarmTriggered;
}

bool FreeBoardModel::isGpsDecode() {
	return gpsState.gpsDecode;
    5a44:	88 5b       	subi	r24, 0xB8	; 184
    5a46:	9f 4f       	sbci	r25, 0xFF	; 255
}
    5a48:	fc 01       	movw	r30, r24
    5a4a:	80 81       	ld	r24, Z
    5a4c:	08 95       	ret

00005a4e <_ZN14FreeBoardModel13isWindAlarmOnEv>:

bool FreeBoardModel::isWindAlarmOn() {
	return config.windAlarmOn;
    5a4e:	8d 56       	subi	r24, 0x6D	; 109
    5a50:	9f 4f       	sbci	r25, 0xFF	; 255
}
    5a52:	fc 01       	movw	r30, r24
    5a54:	80 81       	ld	r24, Z
    5a56:	08 95       	ret

00005a58 <_ZN14FreeBoardModel12setAlarmLastEm>:

void FreeBoardModel::setAlarmLast(unsigned long alarmLast) {
	this->alarmLast = alarmLast;
    5a58:	fc 01       	movw	r30, r24
    5a5a:	40 83       	st	Z, r20
    5a5c:	51 83       	std	Z+1, r21	; 0x01
    5a5e:	62 83       	std	Z+2, r22	; 0x02
    5a60:	73 83       	std	Z+3, r23	; 0x03
    5a62:	08 95       	ret

00005a64 <_ZN14FreeBoardModel14setAlarmSnoozeEm>:
}

void FreeBoardModel::setAlarmSnooze(unsigned long alarmSnooze) {
	this->alarmSnooze = alarmSnooze;
    5a64:	fc 01       	movw	r30, r24
    5a66:	44 83       	std	Z+4, r20	; 0x04
    5a68:	55 83       	std	Z+5, r21	; 0x05
    5a6a:	66 83       	std	Z+6, r22	; 0x06
    5a6c:	77 83       	std	Z+7, r23	; 0x07
    5a6e:	08 95       	ret

00005a70 <_ZN14FreeBoardModel16setAnchorAlarmOnEb>:
}

void FreeBoardModel::setAnchorAlarmOn(bool anchorAlarmOn) {
	this->config.anchorAlarmOn = anchorAlarmOn;
    5a70:	80 58       	subi	r24, 0x80	; 128
    5a72:	9f 4f       	sbci	r25, 0xFF	; 255
    5a74:	fc 01       	movw	r30, r24
    5a76:	60 83       	st	Z, r22
    5a78:	08 95       	ret

00005a7a <_ZN14FreeBoardModel23setAnchorAlarmTriggeredEb>:
}

void FreeBoardModel::setAnchorAlarmTriggered(bool anchorAlarmTriggered) {
	this->anchorState.anchorAlarmTriggered = anchorAlarmTriggered;
    5a7a:	fc 01       	movw	r30, r24
    5a7c:	64 8f       	std	Z+28, r22	; 0x1c
    5a7e:	08 95       	ret

00005a80 <_ZN14FreeBoardModel17setAnchorDistanceEf>:
}

void FreeBoardModel::setAnchorDistance(float anchorDistance) {
	this->anchorState.anchorDistance = anchorDistance;
    5a80:	fc 01       	movw	r30, r24
    5a82:	44 8b       	std	Z+20, r20	; 0x14
    5a84:	55 8b       	std	Z+21, r21	; 0x15
    5a86:	66 8b       	std	Z+22, r22	; 0x16
    5a88:	77 8b       	std	Z+23, r23	; 0x17
    5a8a:	08 95       	ret

00005a8c <_ZN14FreeBoardModel10setAnchorEEf>:
}

void FreeBoardModel::setAnchorE(float anchorE) {
	this->anchorState.anchorE = anchorE;
    5a8c:	fc 01       	movw	r30, r24
    5a8e:	45 a3       	std	Z+37, r20	; 0x25
    5a90:	56 a3       	std	Z+38, r21	; 0x26
    5a92:	67 a3       	std	Z+39, r22	; 0x27
    5a94:	70 a7       	std	Z+40, r23	; 0x28
    5a96:	08 95       	ret

00005a98 <_ZN14FreeBoardModel12setAnchorLatEf>:
}

void FreeBoardModel::setAnchorLat(float anchorLat) {
	this->config.anchorLat = anchorLat;
    5a98:	8c 58       	subi	r24, 0x8C	; 140
    5a9a:	9f 4f       	sbci	r25, 0xFF	; 255
    5a9c:	fc 01       	movw	r30, r24
    5a9e:	40 83       	st	Z, r20
    5aa0:	51 83       	std	Z+1, r21	; 0x01
    5aa2:	62 83       	std	Z+2, r22	; 0x02
    5aa4:	73 83       	std	Z+3, r23	; 0x03
    5aa6:	08 95       	ret

00005aa8 <_ZN14FreeBoardModel12setAnchorLonEf>:
}

void FreeBoardModel::setAnchorLon(float anchorLon) {
	this->config.anchorLon = anchorLon;
    5aa8:	88 58       	subi	r24, 0x88	; 136
    5aaa:	9f 4f       	sbci	r25, 0xFF	; 255
    5aac:	fc 01       	movw	r30, r24
    5aae:	40 83       	st	Z, r20
    5ab0:	51 83       	std	Z+1, r21	; 0x01
    5ab2:	62 83       	std	Z+2, r22	; 0x02
    5ab4:	73 83       	std	Z+3, r23	; 0x03
    5ab6:	08 95       	ret

00005ab8 <_ZN14FreeBoardModel20setAnchorMaxDistanceEf>:
}

void FreeBoardModel::setAnchorMaxDistance(float anchorMaxDistance) {
	this->anchorState.anchorMaxDistance = anchorMaxDistance;
    5ab8:	fc 01       	movw	r30, r24
    5aba:	40 8f       	std	Z+24, r20	; 0x18
    5abc:	51 8f       	std	Z+25, r21	; 0x19
    5abe:	62 8f       	std	Z+26, r22	; 0x1a
    5ac0:	73 8f       	std	Z+27, r23	; 0x1b
    5ac2:	08 95       	ret

00005ac4 <_ZN14FreeBoardModel10setAnchorNEf>:
}

void FreeBoardModel::setAnchorN(float anchorN) {
	this->anchorState.anchorN = anchorN;
    5ac4:	fc 01       	movw	r30, r24
    5ac6:	45 8f       	std	Z+29, r20	; 0x1d
    5ac8:	56 8f       	std	Z+30, r21	; 0x1e
    5aca:	67 8f       	std	Z+31, r22	; 0x1f
    5acc:	70 a3       	std	Z+32, r23	; 0x20
    5ace:	08 95       	ret

00005ad0 <_ZN14FreeBoardModel15setAnchorRadiusEf>:
}

void FreeBoardModel::setAnchorRadius(float anchorRadius) {
	this->config.anchorRadius = anchorRadius;
    5ad0:	84 58       	subi	r24, 0x84	; 132
    5ad2:	9f 4f       	sbci	r25, 0xFF	; 255
    5ad4:	fc 01       	movw	r30, r24
    5ad6:	40 83       	st	Z, r20
    5ad8:	51 83       	std	Z+1, r21	; 0x01
    5ada:	62 83       	std	Z+2, r22	; 0x02
    5adc:	73 83       	std	Z+3, r23	; 0x03
    5ade:	08 95       	ret

00005ae0 <_ZN14FreeBoardModel18setAnchorRadiusDegEf>:
}

void FreeBoardModel::setAnchorRadiusDeg(float anchorRadiusDeg) {
	this->anchorState.anchorRadiusDeg = anchorRadiusDeg;
    5ae0:	fc 01       	movw	r30, r24
    5ae2:	40 8b       	std	Z+16, r20	; 0x10
    5ae4:	51 8b       	std	Z+17, r21	; 0x11
    5ae6:	62 8b       	std	Z+18, r22	; 0x12
    5ae8:	73 8b       	std	Z+19, r23	; 0x13
    5aea:	08 95       	ret

00005aec <_ZN14FreeBoardModel10setAnchorSEf>:
}

void FreeBoardModel::setAnchorS(float anchorS) {
	this->anchorState.anchorS = anchorS;
    5aec:	fc 01       	movw	r30, r24
    5aee:	41 a3       	std	Z+33, r20	; 0x21
    5af0:	52 a3       	std	Z+34, r21	; 0x22
    5af2:	63 a3       	std	Z+35, r22	; 0x23
    5af4:	74 a3       	std	Z+36, r23	; 0x24
    5af6:	08 95       	ret

00005af8 <_ZN14FreeBoardModel10setAnchorWEf>:
}

void FreeBoardModel::setAnchorW(float anchorW) {
	this->anchorState.anchorW = anchorW;
    5af8:	fc 01       	movw	r30, r24
    5afa:	41 a7       	std	Z+41, r20	; 0x29
    5afc:	52 a7       	std	Z+42, r21	; 0x2a
    5afe:	63 a7       	std	Z+43, r22	; 0x2b
    5b00:	74 a7       	std	Z+44, r23	; 0x2c
    5b02:	08 95       	ret

00005b04 <_ZN14FreeBoardModel21setAutopilotReferenceEc>:
}

void FreeBoardModel::setAutopilotReference(char autopilotReference) {
    5b04:	cf 93       	push	r28
    5b06:	df 93       	push	r29
    5b08:	ec 01       	movw	r28, r24

	if(autopilotReference != AUTOPILOT_WIND && autopilotReference != AUTOPILOT_COMPASS) return;
    5b0a:	67 35       	cpi	r22, 0x57	; 87
    5b0c:	11 f0       	breq	.+4      	; 0x5b12 <_ZN14FreeBoardModel21setAutopilotReferenceEc+0xe>
    5b0e:	63 34       	cpi	r22, 0x43	; 67
    5b10:	29 f5       	brne	.+74     	; 0x5b5c <_ZN14FreeBoardModel21setAutopilotReferenceEc+0x58>
	this->autopilotState.autopilotReference = autopilotReference;
    5b12:	6a ab       	std	Y+50, r22	; 0x32
	if(autopilotState.autopilotReference ==AUTOPILOT_WIND){
    5b14:	67 35       	cpi	r22, 0x57	; 87
    5b16:	81 f4       	brne	.+32     	; 0x5b38 <_ZN14FreeBoardModel21setAutopilotReferenceEc+0x34>
			autopilotState.autopilotTargetHeading=windState.windApparentDir;
    5b18:	fe 01       	movw	r30, r28
    5b1a:	e1 59       	subi	r30, 0x91	; 145
    5b1c:	ff 4f       	sbci	r31, 0xFF	; 255
    5b1e:	60 81       	ld	r22, Z
    5b20:	71 81       	ldd	r23, Z+1	; 0x01
    5b22:	88 27       	eor	r24, r24
    5b24:	77 fd       	sbrc	r23, 7
    5b26:	80 95       	com	r24
    5b28:	98 2f       	mov	r25, r24
    5b2a:	0e 94 8c 42 	call	0x8518	; 0x8518 <__floatsisf>
    5b2e:	6b ab       	std	Y+51, r22	; 0x33
    5b30:	7c ab       	std	Y+52, r23	; 0x34
    5b32:	8d ab       	std	Y+53, r24	; 0x35
    5b34:	9e ab       	std	Y+54, r25	; 0x36
    5b36:	0a c0       	rjmp	.+20     	; 0x5b4c <_ZN14FreeBoardModel21setAutopilotReferenceEc+0x48>
	}
	if(autopilotState.autopilotReference == AUTOPILOT_COMPASS){
    5b38:	63 34       	cpi	r22, 0x43	; 67
    5b3a:	41 f4       	brne	.+16     	; 0x5b4c <_ZN14FreeBoardModel21setAutopilotReferenceEc+0x48>
		autopilotState.autopilotTargetHeading=magneticHeading;
    5b3c:	48 85       	ldd	r20, Y+8	; 0x08
    5b3e:	59 85       	ldd	r21, Y+9	; 0x09
    5b40:	6a 85       	ldd	r22, Y+10	; 0x0a
    5b42:	7b 85       	ldd	r23, Y+11	; 0x0b
    5b44:	4b ab       	std	Y+51, r20	; 0x33
    5b46:	5c ab       	std	Y+52, r21	; 0x34
    5b48:	6d ab       	std	Y+53, r22	; 0x35
    5b4a:	7e ab       	std	Y+54, r23	; 0x36
	}
	//and netralise the rudder position too.
	this->autopilotState.autopilotRudderCommand=33;
    5b4c:	40 e0       	ldi	r20, 0x00	; 0
    5b4e:	50 e0       	ldi	r21, 0x00	; 0
    5b50:	64 e0       	ldi	r22, 0x04	; 4
    5b52:	72 e4       	ldi	r23, 0x42	; 66
    5b54:	4f ab       	std	Y+55, r20	; 0x37
    5b56:	58 af       	std	Y+56, r21	; 0x38
    5b58:	69 af       	std	Y+57, r22	; 0x39
    5b5a:	7a af       	std	Y+58, r23	; 0x3a
}
    5b5c:	df 91       	pop	r29
    5b5e:	cf 91       	pop	r28
    5b60:	08 95       	ret

00005b62 <_ZN14FreeBoardModel25setAutopilotRudderCommandEd>:
	this->autopilotState.autopilotAlarmTriggered = autopilotAlarmTriggered;
}


void FreeBoardModel::setAutopilotRudderCommand(double autopilotRudderCommand) {
	this->autopilotState.autopilotRudderCommand = autopilotRudderCommand;
    5b62:	fc 01       	movw	r30, r24
    5b64:	47 ab       	std	Z+55, r20	; 0x37
    5b66:	50 af       	std	Z+56, r21	; 0x38
    5b68:	61 af       	std	Z+57, r22	; 0x39
    5b6a:	72 af       	std	Z+58, r23	; 0x3a
    5b6c:	08 95       	ret

00005b6e <_ZN14FreeBoardModel25setAutopilotTargetHeadingEd>:
/**
 * For magnetic it will be 0-360degM
 * For wind it will be -180 to +180 from bow.
 * Since this matches with target heading, and we convert in autopilot to 0-360, alls good?
 */
void FreeBoardModel::setAutopilotTargetHeading(double autopilotTargetHeading) {
    5b6e:	cf 93       	push	r28
    5b70:	df 93       	push	r29
    5b72:	ec 01       	movw	r28, r24
	//make this 0-360 range only
		this->autopilotState.autopilotTargetHeading = (double)(((int)autopilotTargetHeading+360) % 360);
    5b74:	cb 01       	movw	r24, r22
    5b76:	ba 01       	movw	r22, r20
    5b78:	0e 94 59 42 	call	0x84b2	; 0x84b2 <__fixsfsi>
    5b7c:	cb 01       	movw	r24, r22
    5b7e:	88 59       	subi	r24, 0x98	; 152
    5b80:	9e 4f       	sbci	r25, 0xFE	; 254
    5b82:	68 e6       	ldi	r22, 0x68	; 104
    5b84:	71 e0       	ldi	r23, 0x01	; 1
    5b86:	0e 94 e9 44 	call	0x89d2	; 0x89d2 <__divmodhi4>
    5b8a:	bc 01       	movw	r22, r24
    5b8c:	88 27       	eor	r24, r24
    5b8e:	77 fd       	sbrc	r23, 7
    5b90:	80 95       	com	r24
    5b92:	98 2f       	mov	r25, r24
    5b94:	0e 94 8c 42 	call	0x8518	; 0x8518 <__floatsisf>
    5b98:	6b ab       	std	Y+51, r22	; 0x33
    5b9a:	7c ab       	std	Y+52, r23	; 0x34
    5b9c:	8d ab       	std	Y+53, r24	; 0x35
    5b9e:	9e ab       	std	Y+54, r25	; 0x36
}
    5ba0:	df 91       	pop	r29
    5ba2:	cf 91       	pop	r28
    5ba4:	08 95       	ret

00005ba6 <_ZN14FreeBoardModel12setGpsCourseEf>:
void FreeBoardModel::setGpsAlarmTriggered(bool gpsAlarmTriggered) {
	this->gpsState.gpsAlarmTriggered = gpsAlarmTriggered;
}

void FreeBoardModel::setGpsCourse(float gpsCourse) {
	this->gpsState.gpsCourse = gpsCourse;
    5ba6:	82 5a       	subi	r24, 0xA2	; 162
    5ba8:	9f 4f       	sbci	r25, 0xFF	; 255
    5baa:	fc 01       	movw	r30, r24
    5bac:	40 83       	st	Z, r20
    5bae:	51 83       	std	Z+1, r21	; 0x01
    5bb0:	62 83       	std	Z+2, r22	; 0x02
    5bb2:	73 83       	std	Z+3, r23	; 0x03
    5bb4:	08 95       	ret

00005bb6 <_ZN14FreeBoardModel12setGpsDecodeEb>:
}

void FreeBoardModel::setGpsDecode(bool gpsDecode) {
	this->gpsState.gpsDecode = gpsDecode;
    5bb6:	88 5b       	subi	r24, 0xB8	; 184
    5bb8:	9f 4f       	sbci	r25, 0xFF	; 255
    5bba:	fc 01       	movw	r30, r24
    5bbc:	60 83       	st	Z, r22
    5bbe:	08 95       	ret

00005bc0 <_ZN14FreeBoardModel13setGpsLastFixEm>:
}

void FreeBoardModel::setGpsLastFix(unsigned long gpsLastFix) {
	this->gpsState.gpsLastFix = gpsLastFix;
    5bc0:	87 5b       	subi	r24, 0xB7	; 183
    5bc2:	9f 4f       	sbci	r25, 0xFF	; 255
    5bc4:	fc 01       	movw	r30, r24
    5bc6:	40 83       	st	Z, r20
    5bc8:	51 83       	std	Z+1, r21	; 0x01
    5bca:	62 83       	std	Z+2, r22	; 0x02
    5bcc:	73 83       	std	Z+3, r23	; 0x03
    5bce:	08 95       	ret

00005bd0 <_ZN14FreeBoardModel14setGpsLatitudeEf>:
}

void FreeBoardModel::setGpsLatitude(float gpsLatitude) {
	this->gpsState.gpsLatitude = gpsLatitude;
    5bd0:	8e 5a       	subi	r24, 0xAE	; 174
    5bd2:	9f 4f       	sbci	r25, 0xFF	; 255
    5bd4:	fc 01       	movw	r30, r24
    5bd6:	40 83       	st	Z, r20
    5bd8:	51 83       	std	Z+1, r21	; 0x01
    5bda:	62 83       	std	Z+2, r22	; 0x02
    5bdc:	73 83       	std	Z+3, r23	; 0x03
    5bde:	08 95       	ret

00005be0 <_ZN14FreeBoardModel15setGpsLongitudeEf>:
}

void FreeBoardModel::setGpsLongitude(float gpsLongitude) {
	this->gpsState.gpsLongitude = gpsLongitude;
    5be0:	8a 5a       	subi	r24, 0xAA	; 170
    5be2:	9f 4f       	sbci	r25, 0xFF	; 255
    5be4:	fc 01       	movw	r30, r24
    5be6:	40 83       	st	Z, r20
    5be8:	51 83       	std	Z+1, r21	; 0x01
    5bea:	62 83       	std	Z+2, r22	; 0x02
    5bec:	73 83       	std	Z+3, r23	; 0x03
    5bee:	08 95       	ret

00005bf0 <_ZN14FreeBoardModel11setGpsSpeedEf>:
}

void FreeBoardModel::setGpsSpeed(float gpsSpeed) {
	this->gpsState.gpsSpeed = gpsSpeed;
    5bf0:	86 5a       	subi	r24, 0xA6	; 166
    5bf2:	9f 4f       	sbci	r25, 0xFF	; 255
    5bf4:	fc 01       	movw	r30, r24
    5bf6:	40 83       	st	Z, r20
    5bf8:	51 83       	std	Z+1, r21	; 0x01
    5bfa:	62 83       	std	Z+2, r22	; 0x02
    5bfc:	73 83       	std	Z+3, r23	; 0x03
    5bfe:	08 95       	ret

00005c00 <_ZN14FreeBoardModel12setGpsStatusEc>:
void FreeBoardModel::setGpsSpeedUnit(float gpsSpeedUnit) {
	this->config.gpsSpeedUnit = gpsSpeedUnit;
}

void FreeBoardModel::setGpsStatus(char gpsStatus) {
	this->gpsState.gpsStatus = gpsStatus;
    5c00:	8f 5a       	subi	r24, 0xAF	; 175
    5c02:	9f 4f       	sbci	r25, 0xFF	; 255
    5c04:	fc 01       	movw	r30, r24
    5c06:	60 83       	st	Z, r22
    5c08:	08 95       	ret

00005c0a <_ZN14FreeBoardModel9setGpsUtcEf>:
}

void FreeBoardModel::setGpsUtc(float gpsUtc) {
	this->gpsState.gpsUtc = gpsUtc;
    5c0a:	83 5b       	subi	r24, 0xB3	; 179
    5c0c:	9f 4f       	sbci	r25, 0xFF	; 255
    5c0e:	fc 01       	movw	r30, r24
    5c10:	40 83       	st	Z, r20
    5c12:	51 83       	std	Z+1, r21	; 0x01
    5c14:	62 83       	std	Z+2, r22	; 0x02
    5c16:	73 83       	std	Z+3, r23	; 0x03
    5c18:	08 95       	ret

00005c1a <_ZN14FreeBoardModel18setMagneticHeadingEf>:
}

void FreeBoardModel::setMagneticHeading(float magneticHeading){
	this->magneticHeading=magneticHeading;
    5c1a:	fc 01       	movw	r30, r24
    5c1c:	40 87       	std	Z+8, r20	; 0x08
    5c1e:	51 87       	std	Z+9, r21	; 0x09
    5c20:	62 87       	std	Z+10, r22	; 0x0a
    5c22:	73 87       	std	Z+11, r23	; 0x0b
    5c24:	08 95       	ret

00005c26 <_ZN14FreeBoardModel14setDeclinationEf>:
}

void FreeBoardModel::setDeclination(float declination){
	this->declination=declination;
    5c26:	fc 01       	movw	r30, r24
    5c28:	44 87       	std	Z+12, r20	; 0x0c
    5c2a:	55 87       	std	Z+13, r21	; 0x0d
    5c2c:	66 87       	std	Z+14, r22	; 0x0e
    5c2e:	77 87       	std	Z+15, r23	; 0x0f
    5c30:	08 95       	ret

00005c32 <_ZN14FreeBoardModel17setWindZeroOffsetEi>:
void FreeBoardModel::setRadarAlarmTriggered(volatile bool radarAlarmTriggered) {
	this->radarAlarmTriggered = radarAlarmTriggered;
}

void FreeBoardModel::setWindZeroOffset(int windZeroOffset) {
	this->config.windZeroOffset = windZeroOffset;
    5c32:	88 56       	subi	r24, 0x68	; 104
    5c34:	9f 4f       	sbci	r25, 0xFF	; 255
    5c36:	fc 01       	movw	r30, r24
    5c38:	71 83       	std	Z+1, r23	; 0x01
    5c3a:	60 83       	st	Z, r22
    5c3c:	08 95       	ret

00005c3e <_ZN14FreeBoardModel14setWindAlarmOnEb>:
}

void FreeBoardModel::setWindAlarmOn(bool windAlarmOn) {
	this->config.windAlarmOn = windAlarmOn;
    5c3e:	8d 56       	subi	r24, 0x6D	; 109
    5c40:	9f 4f       	sbci	r25, 0xFF	; 255
    5c42:	fc 01       	movw	r30, r24
    5c44:	60 83       	st	Z, r22
    5c46:	08 95       	ret

00005c48 <_ZN14FreeBoardModel17setWindAlarmSpeedEi>:
}

void FreeBoardModel::setWindAlarmSpeed(int windAlarmSpeed) {
	this->config.windAlarmSpeed = windAlarmSpeed;
    5c48:	8f 56       	subi	r24, 0x6F	; 111
    5c4a:	9f 4f       	sbci	r25, 0xFF	; 255
    5c4c:	fc 01       	movw	r30, r24
    5c4e:	71 83       	std	Z+1, r23	; 0x01
    5c50:	60 83       	st	Z, r22
    5c52:	08 95       	ret

00005c54 <_ZN14FreeBoardModel18setWindApparentDirEi>:
}

void FreeBoardModel::setWindApparentDir(int windApparentDir) {
	this->windState.windApparentDir = windApparentDir;
    5c54:	81 59       	subi	r24, 0x91	; 145
    5c56:	9f 4f       	sbci	r25, 0xFF	; 255
    5c58:	fc 01       	movw	r30, r24
    5c5a:	71 83       	std	Z+1, r23	; 0x01
    5c5c:	60 83       	st	Z, r22
    5c5e:	08 95       	ret

00005c60 <_ZN14FreeBoardModel14setWindTrueDirEi>:
}
void FreeBoardModel::setWindTrueDir(int windTrueDir) {
	this->windState.windTrueDir = windTrueDir;
    5c60:	8f 58       	subi	r24, 0x8F	; 143
    5c62:	9f 4f       	sbci	r25, 0xFF	; 255
    5c64:	fc 01       	movw	r30, r24
    5c66:	71 83       	std	Z+1, r23	; 0x01
    5c68:	60 83       	st	Z, r22
    5c6a:	08 95       	ret

00005c6c <_ZN14FreeBoardModel14setWindAverageEf>:
}

void FreeBoardModel::setWindAverage(float windAverage) {
	this->windState.windAverage = windAverage;
    5c6c:	87 59       	subi	r24, 0x97	; 151
    5c6e:	9f 4f       	sbci	r25, 0xFF	; 255
    5c70:	fc 01       	movw	r30, r24
    5c72:	40 83       	st	Z, r20
    5c74:	51 83       	std	Z+1, r21	; 0x01
    5c76:	62 83       	std	Z+2, r22	; 0x02
    5c78:	73 83       	std	Z+3, r23	; 0x03
    5c7a:	08 95       	ret

00005c7c <_ZN14FreeBoardModel17setWindLastUpdateEm>:
void FreeBoardModel::setWindFactor(float windFactor) {
	this->config.windFactor = windFactor;
}

void FreeBoardModel::setWindLastUpdate(unsigned long windLastUpdate) {
	this->windState.windLastUpdate = windLastUpdate;
    5c7c:	8b 59       	subi	r24, 0x9B	; 155
    5c7e:	9f 4f       	sbci	r25, 0xFF	; 255
    5c80:	fc 01       	movw	r30, r24
    5c82:	40 83       	st	Z, r20
    5c84:	51 83       	std	Z+1, r21	; 0x01
    5c86:	62 83       	std	Z+2, r22	; 0x02
    5c88:	73 83       	std	Z+3, r23	; 0x03
    5c8a:	08 95       	ret

00005c8c <_ZN14FreeBoardModel16isAlarmTriggeredEv>:
}

volatile bool FreeBoardModel::isAlarmTriggered() {
	return windState.windAlarmTriggered && radarAlarmTriggered
			&& gpsState.gpsAlarmTriggered && anchorState.anchorAlarmTriggered
			&& autopilotState.autopilotAlarmTriggered && mobAlarmTriggered;
    5c8c:	fc 01       	movw	r30, r24
    5c8e:	ed 58       	subi	r30, 0x8D	; 141
    5c90:	ff 4f       	sbci	r31, 0xFF	; 255
    5c92:	20 81       	ld	r18, Z
    5c94:	22 23       	and	r18, r18
    5c96:	b9 f0       	breq	.+46     	; 0x5cc6 <_ZN14FreeBoardModel16isAlarmTriggeredEv+0x3a>
    5c98:	fc 01       	movw	r30, r24
    5c9a:	ed 59       	subi	r30, 0x9D	; 157
    5c9c:	ff 4f       	sbci	r31, 0xFF	; 255
    5c9e:	20 81       	ld	r18, Z
    5ca0:	22 23       	and	r18, r18
    5ca2:	89 f0       	breq	.+34     	; 0x5cc6 <_ZN14FreeBoardModel16isAlarmTriggeredEv+0x3a>
    5ca4:	fc 01       	movw	r30, r24
    5ca6:	ee 59       	subi	r30, 0x9E	; 158
    5ca8:	ff 4f       	sbci	r31, 0xFF	; 255
    5caa:	20 81       	ld	r18, Z
    5cac:	22 23       	and	r18, r18
    5cae:	59 f0       	breq	.+22     	; 0x5cc6 <_ZN14FreeBoardModel16isAlarmTriggeredEv+0x3a>
    5cb0:	fc 01       	movw	r30, r24
    5cb2:	24 8d       	ldd	r18, Z+28	; 0x1c
    5cb4:	22 23       	and	r18, r18
    5cb6:	39 f0       	breq	.+14     	; 0x5cc6 <_ZN14FreeBoardModel16isAlarmTriggeredEv+0x3a>
    5cb8:	23 ad       	ldd	r18, Z+59	; 0x3b
    5cba:	22 23       	and	r18, r18
    5cbc:	21 f0       	breq	.+8      	; 0x5cc6 <_ZN14FreeBoardModel16isAlarmTriggeredEv+0x3a>
    5cbe:	ec 59       	subi	r30, 0x9C	; 156
    5cc0:	ff 4f       	sbci	r31, 0xFF	; 255
    5cc2:	80 81       	ld	r24, Z
    5cc4:	08 95       	ret
    5cc6:	80 e0       	ldi	r24, 0x00	; 0
}
    5cc8:	08 95       	ret

00005cca <_ZN14FreeBoardModel13isAutopilotOnEv>:
	this->config.mobAlarmOn = mobAlarmOn;
}

bool FreeBoardModel::isAutopilotOn() {
	return autopilotState.autopilotOn;
}
    5cca:	fc 01       	movw	r30, r24
    5ccc:	85 a5       	ldd	r24, Z+45	; 0x2d
    5cce:	08 95       	ret

00005cd0 <_ZN14FreeBoardModel14setAutopilotOnEb>:

void FreeBoardModel::setAutopilotOn(bool autopilotOn) {
    5cd0:	1f 93       	push	r17
    5cd2:	cf 93       	push	r28
    5cd4:	df 93       	push	r29
    5cd6:	ec 01       	movw	r28, r24
    5cd8:	16 2f       	mov	r17, r22
	//this is potentally dangerous, since we dont want the boat diving off on an old target heading.
	//ALWAYS reset target heading to current magnetic or wind dir here
	setAutopilotReference(getAutopilotReference());
    5cda:	6a a9       	ldd	r22, Y+50	; 0x32
    5cdc:	0e 94 82 2d 	call	0x5b04	; 0x5b04 <_ZN14FreeBoardModel21setAutopilotReferenceEc>
	this->autopilotState.autopilotOn = autopilotOn;
    5ce0:	1d a7       	std	Y+45, r17	; 0x2d
}
    5ce2:	df 91       	pop	r29
    5ce4:	cf 91       	pop	r28
    5ce6:	1f 91       	pop	r17
    5ce8:	08 95       	ret

00005cea <_ZN14FreeBoardModel10setWindMaxEi>:
void FreeBoardModel::setRadarAlarmOn(volatile bool radarAlarmOn) {
	this->config.radarAlarmOn = radarAlarmOn;
}

void FreeBoardModel::setWindMax(int windMax) {
	this->windState.windMax = windMax;
    5cea:	83 59       	subi	r24, 0x93	; 147
    5cec:	9f 4f       	sbci	r25, 0xFF	; 255
    5cee:	fc 01       	movw	r30, r24
    5cf0:	71 83       	std	Z+1, r23	; 0x01
    5cf2:	60 83       	st	Z, r22
    5cf4:	08 95       	ret

00005cf6 <_ZN14FreeBoardModel21setWindAlarmTriggeredEb>:
}

void FreeBoardModel::setWindAlarmTriggered(bool windAlarmTriggered) {
	this->windState.windAlarmTriggered = windAlarmTriggered;
    5cf6:	8d 58       	subi	r24, 0x8D	; 141
    5cf8:	9f 4f       	sbci	r25, 0xFF	; 255
    5cfa:	fc 01       	movw	r30, r24
    5cfc:	60 83       	st	Z, r22
    5cfe:	08 95       	ret

00005d00 <_ZN14FreeBoardModel11getGpsModelEv>:
}

short FreeBoardModel::getGpsModel(){
	return this->config.gpsModel;
    5d00:	fc 01       	movw	r30, r24
    5d02:	e6 56       	subi	r30, 0x66	; 102
    5d04:	ff 4f       	sbci	r31, 0xFF	; 255
}
    5d06:	80 81       	ld	r24, Z
    5d08:	91 81       	ldd	r25, Z+1	; 0x01
    5d0a:	08 95       	ret

00005d0c <_ZN14FreeBoardModel11setGpsModelEs>:
void FreeBoardModel::setGpsModel(short gpsModel){
	this->config.gpsModel=gpsModel;
    5d0c:	86 56       	subi	r24, 0x66	; 102
    5d0e:	9f 4f       	sbci	r25, 0xFF	; 255
    5d10:	fc 01       	movw	r30, r24
    5d12:	71 83       	std	Z+1, r23	; 0x01
    5d14:	60 83       	st	Z, r22
    5d16:	08 95       	ret

00005d18 <_ZN14FreeBoardModel13getSerialBaudEv>:
}
long FreeBoardModel::getSerialBaud(){
	return this->config.serialBaud;
    5d18:	fc 01       	movw	r30, r24
    5d1a:	e4 56       	subi	r30, 0x64	; 100
    5d1c:	ff 4f       	sbci	r31, 0xFF	; 255
    5d1e:	60 81       	ld	r22, Z
    5d20:	71 81       	ldd	r23, Z+1	; 0x01
}
    5d22:	82 81       	ldd	r24, Z+2	; 0x02
    5d24:	93 81       	ldd	r25, Z+3	; 0x03
    5d26:	08 95       	ret

00005d28 <_ZN14FreeBoardModel13setSerialBaudEl>:
void FreeBoardModel::setSerialBaud(long serialBaud){
	this->config.serialBaud=serialBaud;
    5d28:	84 56       	subi	r24, 0x64	; 100
    5d2a:	9f 4f       	sbci	r25, 0xFF	; 255
    5d2c:	fc 01       	movw	r30, r24
    5d2e:	40 83       	st	Z, r20
    5d30:	51 83       	std	Z+1, r21	; 0x01
    5d32:	62 83       	std	Z+2, r22	; 0x02
    5d34:	73 83       	std	Z+3, r23	; 0x03
    5d36:	08 95       	ret

00005d38 <_ZN14FreeBoardModel14getSerialBaud1Ev>:
}
long FreeBoardModel::getSerialBaud1(){
	return this->config.serialBaud1;
    5d38:	fc 01       	movw	r30, r24
    5d3a:	e0 56       	subi	r30, 0x60	; 96
    5d3c:	ff 4f       	sbci	r31, 0xFF	; 255
    5d3e:	60 81       	ld	r22, Z
    5d40:	71 81       	ldd	r23, Z+1	; 0x01
}
    5d42:	82 81       	ldd	r24, Z+2	; 0x02
    5d44:	93 81       	ldd	r25, Z+3	; 0x03
    5d46:	08 95       	ret

00005d48 <_ZN14FreeBoardModel14setSerialBaud1El>:
void FreeBoardModel::setSerialBaud1(long serialBaud1){
	this->config.serialBaud1=serialBaud1;
    5d48:	80 56       	subi	r24, 0x60	; 96
    5d4a:	9f 4f       	sbci	r25, 0xFF	; 255
    5d4c:	fc 01       	movw	r30, r24
    5d4e:	40 83       	st	Z, r20
    5d50:	51 83       	std	Z+1, r21	; 0x01
    5d52:	62 83       	std	Z+2, r22	; 0x02
    5d54:	73 83       	std	Z+3, r23	; 0x03
    5d56:	08 95       	ret

00005d58 <_ZN14FreeBoardModel14getSerialBaud2Ev>:
}
long FreeBoardModel::getSerialBaud2(){
	return this->config.serialBaud2;
    5d58:	fc 01       	movw	r30, r24
    5d5a:	ec 55       	subi	r30, 0x5C	; 92
    5d5c:	ff 4f       	sbci	r31, 0xFF	; 255
    5d5e:	60 81       	ld	r22, Z
    5d60:	71 81       	ldd	r23, Z+1	; 0x01
}
    5d62:	82 81       	ldd	r24, Z+2	; 0x02
    5d64:	93 81       	ldd	r25, Z+3	; 0x03
    5d66:	08 95       	ret

00005d68 <_ZN14FreeBoardModel14setSerialBaud2El>:
void FreeBoardModel::setSerialBaud2(long serialBaud2){
	this->config.serialBaud2=serialBaud2;
    5d68:	8c 55       	subi	r24, 0x5C	; 92
    5d6a:	9f 4f       	sbci	r25, 0xFF	; 255
    5d6c:	fc 01       	movw	r30, r24
    5d6e:	40 83       	st	Z, r20
    5d70:	51 83       	std	Z+1, r21	; 0x01
    5d72:	62 83       	std	Z+2, r22	; 0x02
    5d74:	73 83       	std	Z+3, r23	; 0x03
    5d76:	08 95       	ret

00005d78 <_ZN14FreeBoardModel14getSerialBaud3Ev>:
}
long FreeBoardModel::getSerialBaud3(){
	return this->config.serialBaud3;
    5d78:	fc 01       	movw	r30, r24
    5d7a:	e8 55       	subi	r30, 0x58	; 88
    5d7c:	ff 4f       	sbci	r31, 0xFF	; 255
    5d7e:	60 81       	ld	r22, Z
    5d80:	71 81       	ldd	r23, Z+1	; 0x01
}
    5d82:	82 81       	ldd	r24, Z+2	; 0x02
    5d84:	93 81       	ldd	r25, Z+3	; 0x03
    5d86:	08 95       	ret

00005d88 <_ZN14FreeBoardModel14setSerialBaud3El>:
void FreeBoardModel::setSerialBaud3(long serialBaud3){
	this->config.serialBaud3=serialBaud3;
    5d88:	88 55       	subi	r24, 0x58	; 88
    5d8a:	9f 4f       	sbci	r25, 0xFF	; 255
    5d8c:	fc 01       	movw	r30, r24
    5d8e:	40 83       	st	Z, r20
    5d90:	51 83       	std	Z+1, r21	; 0x01
    5d92:	62 83       	std	Z+2, r22	; 0x02
    5d94:	73 83       	std	Z+3, r23	; 0x03
    5d96:	08 95       	ret

00005d98 <_ZN14FreeBoardModel10getSeaTalkEv>:
}
bool FreeBoardModel::getSeaTalk(){
	return this->config.seaTalk;
    5d98:	84 55       	subi	r24, 0x54	; 84
    5d9a:	9f 4f       	sbci	r25, 0xFF	; 255
}
    5d9c:	fc 01       	movw	r30, r24
    5d9e:	80 81       	ld	r24, Z
    5da0:	08 95       	ret

00005da2 <_ZN14FreeBoardModel10setSeaTalkEb>:
void FreeBoardModel::setSeaTalk(bool seaTalk){
	this->config.seaTalk=seaTalk;
    5da2:	84 55       	subi	r24, 0x54	; 84
    5da4:	9f 4f       	sbci	r25, 0xFF	; 255
    5da6:	fc 01       	movw	r30, r24
    5da8:	60 83       	st	Z, r22
    5daa:	08 95       	ret

00005dac <_Z9calculatev>:
 * Timer interrupt driven method to do time sensitive calculations
 * The calc flag causes the main loop to execute other less sensitive calls.
 */
void calculate() {
	//we create 100ms pings here
	execute = true;
    5dac:	81 e0       	ldi	r24, 0x01	; 1
    5dae:	80 93 1c 11 	sts	0x111C, r24
	//we record the ping count out to 2 secs
	interval++;
    5db2:	80 91 1a 11 	lds	r24, 0x111A
    5db6:	90 91 1b 11 	lds	r25, 0x111B
    5dba:	01 96       	adiw	r24, 0x01	; 1
    5dbc:	90 93 1b 11 	sts	0x111B, r25
    5dc0:	80 93 1a 11 	sts	0x111A, r24
	interval = interval % 20;
    5dc4:	80 91 1a 11 	lds	r24, 0x111A
    5dc8:	90 91 1b 11 	lds	r25, 0x111B
    5dcc:	64 e1       	ldi	r22, 0x14	; 20
    5dce:	70 e0       	ldi	r23, 0x00	; 0
    5dd0:	0e 94 e9 44 	call	0x89d2	; 0x89d2 <__divmodhi4>
    5dd4:	90 93 1b 11 	sts	0x111B, r25
    5dd8:	80 93 1a 11 	sts	0x111A, r24
    5ddc:	08 95       	ret

00005dde <_Z7readWDDv>:
	wind.readWindDataSpeed();
}

void readWDD() {
	//intCnt++;
	wind.readWindDataDir();
    5dde:	8f e7       	ldi	r24, 0x7F	; 127
    5de0:	9a e0       	ldi	r25, 0x0A	; 10
    5de2:	0c 94 c4 3a 	jmp	0x7588	; 0x7588 <_ZN4Wind15readWindDataDirEv>

00005de6 <_Z7readWDSv>:
	interval = interval % 20;
}

void readWDS() {
	//intCnt++;
	wind.readWindDataSpeed();
    5de6:	8f e7       	ldi	r24, 0x7F	; 127
    5de8:	9a e0       	ldi	r25, 0x0A	; 10
    5dea:	0c 94 7e 3a 	jmp	0x74fc	; 0x74fc <_ZN4Wind17readWindDataSpeedEv>

00005dee <setup>:
boolean inputSerial2Complete = false; // whether the string is complete
boolean inputSerial3Complete = false; // whether the string is complete

void setup() {
	//model.saveConfig();
	model.readConfig();
    5dee:	8b e6       	ldi	r24, 0x6B	; 107
    5df0:	90 e1       	ldi	r25, 0x10	; 16
    5df2:	0e 94 73 2a 	call	0x54e6	; 0x54e6 <_ZN14FreeBoardModel10readConfigEv>
	inputSerial.reserve(40);
    5df6:	68 e2       	ldi	r22, 0x28	; 40
    5df8:	70 e0       	ldi	r23, 0x00	; 0
    5dfa:	8a e0       	ldi	r24, 0x0A	; 10
    5dfc:	9a e0       	ldi	r25, 0x0A	; 10
    5dfe:	0e 94 ce 0b 	call	0x179c	; 0x179c <_ZN6String7reserveEj>
	// initialize  serial ports:
	Serial.begin(model.getSerialBaud(), SERIAL_8N1);
    5e02:	8b e6       	ldi	r24, 0x6B	; 107
    5e04:	90 e1       	ldi	r25, 0x10	; 16
    5e06:	0e 94 8c 2e 	call	0x5d18	; 0x5d18 <_ZN14FreeBoardModel13getSerialBaudEv>
    5e0a:	ab 01       	movw	r20, r22
    5e0c:	bc 01       	movw	r22, r24
    5e0e:	26 e0       	ldi	r18, 0x06	; 6
    5e10:	8a ed       	ldi	r24, 0xDA	; 218
    5e12:	96 e0       	ldi	r25, 0x06	; 6
    5e14:	0e 94 29 05 	call	0xa52	; 0xa52 <_ZN14HardwareSerial5beginEmh>
	if (DEBUG) Serial.println("Initializing..");
    5e18:	6f ea       	ldi	r22, 0xAF	; 175
    5e1a:	72 e0       	ldi	r23, 0x02	; 2
    5e1c:	8a ed       	ldi	r24, 0xDA	; 218
    5e1e:	96 e0       	ldi	r25, 0x06	; 6
    5e20:	0e 94 ea 06 	call	0xdd4	; 0xdd4 <_ZN5Print7printlnEPKc>

	//start gps on serial1, autobaud
	if (DEBUG) Serial.println("Start gps..");
    5e24:	6e eb       	ldi	r22, 0xBE	; 190
    5e26:	72 e0       	ldi	r23, 0x02	; 2
    5e28:	8a ed       	ldi	r24, 0xDA	; 218
    5e2a:	96 e0       	ldi	r25, 0x06	; 6
    5e2c:	0e 94 ea 06 	call	0xdd4	; 0xdd4 <_ZN5Print7printlnEPKc>
	gps.setupGps();
    5e30:	89 e7       	ldi	r24, 0x79	; 121
    5e32:	9a e0       	ldi	r25, 0x0A	; 10
    5e34:	0e 94 a8 37 	call	0x6f50	; 0x6f50 <_ZN3Gps8setupGpsEv>
	Serial1.begin(model.getSerialBaud1());
    5e38:	8b e6       	ldi	r24, 0x6B	; 107
    5e3a:	90 e1       	ldi	r25, 0x10	; 16
    5e3c:	0e 94 9c 2e 	call	0x5d38	; 0x5d38 <_ZN14FreeBoardModel14getSerialBaud1Ev>
    5e40:	ab 01       	movw	r20, r22
    5e42:	bc 01       	movw	r22, r24
    5e44:	88 eb       	ldi	r24, 0xB8	; 184
    5e46:	96 e0       	ldi	r25, 0x06	; 6
    5e48:	0e 94 a8 04 	call	0x950	; 0x950 <_ZN14HardwareSerial5beginEm>

	if (DEBUG) Serial.println("Start seatalk - serial2..");
    5e4c:	6a ec       	ldi	r22, 0xCA	; 202
    5e4e:	72 e0       	ldi	r23, 0x02	; 2
    5e50:	8a ed       	ldi	r24, 0xDA	; 218
    5e52:	96 e0       	ldi	r25, 0x06	; 6
    5e54:	0e 94 ea 06 	call	0xdd4	; 0xdd4 <_ZN5Print7printlnEPKc>
	if(model.getSeaTalk()){
    5e58:	8b e6       	ldi	r24, 0x6B	; 107
    5e5a:	90 e1       	ldi	r25, 0x10	; 16
    5e5c:	0e 94 cc 2e 	call	0x5d98	; 0x5d98 <_ZN14FreeBoardModel10getSeaTalkEv>
    5e60:	88 23       	and	r24, r24
    5e62:	31 f0       	breq	.+12     	; 0x5e70 <setup+0x82>
		Serial2.begin(4800, SERIAL_9N1); //Seatalk interface
    5e64:	27 e0       	ldi	r18, 0x07	; 7
    5e66:	40 ec       	ldi	r20, 0xC0	; 192
    5e68:	52 e1       	ldi	r21, 0x12	; 18
    5e6a:	60 e0       	ldi	r22, 0x00	; 0
    5e6c:	70 e0       	ldi	r23, 0x00	; 0
    5e6e:	07 c0       	rjmp	.+14     	; 0x5e7e <setup+0x90>
	}else{
		Serial2.begin(model.getSerialBaud2(), SERIAL_8N1);
    5e70:	8b e6       	ldi	r24, 0x6B	; 107
    5e72:	90 e1       	ldi	r25, 0x10	; 16
    5e74:	0e 94 ac 2e 	call	0x5d58	; 0x5d58 <_ZN14FreeBoardModel14getSerialBaud2Ev>
    5e78:	ab 01       	movw	r20, r22
    5e7a:	bc 01       	movw	r22, r24
    5e7c:	26 e0       	ldi	r18, 0x06	; 6
    5e7e:	86 e9       	ldi	r24, 0x96	; 150
    5e80:	96 e0       	ldi	r25, 0x06	; 6
    5e82:	0e 94 29 05 	call	0xa52	; 0xa52 <_ZN14HardwareSerial5beginEmh>
	}

	if (DEBUG) Serial.println("Start nmea Rx - serial3..");
    5e86:	64 ee       	ldi	r22, 0xE4	; 228
    5e88:	72 e0       	ldi	r23, 0x02	; 2
    5e8a:	8a ed       	ldi	r24, 0xDA	; 218
    5e8c:	96 e0       	ldi	r25, 0x06	; 6
    5e8e:	0e 94 ea 06 	call	0xdd4	; 0xdd4 <_ZN5Print7printlnEPKc>
	Serial3.begin(model.getSerialBaud3(), SERIAL_8N1); //talker2
    5e92:	8b e6       	ldi	r24, 0x6B	; 107
    5e94:	90 e1       	ldi	r25, 0x10	; 16
    5e96:	0e 94 bc 2e 	call	0x5d78	; 0x5d78 <_ZN14FreeBoardModel14getSerialBaud3Ev>
    5e9a:	ab 01       	movw	r20, r22
    5e9c:	bc 01       	movw	r22, r24
    5e9e:	26 e0       	ldi	r18, 0x06	; 6
    5ea0:	84 e7       	ldi	r24, 0x74	; 116
    5ea2:	96 e0       	ldi	r25, 0x06	; 6
    5ea4:	0e 94 29 05 	call	0xa52	; 0xa52 <_ZN14HardwareSerial5beginEmh>

	if (DEBUG) Serial.println("Start nmea Tx..");
    5ea8:	6e ef       	ldi	r22, 0xFE	; 254
    5eaa:	72 e0       	ldi	r23, 0x02	; 2
    5eac:	8a ed       	ldi	r24, 0xDA	; 218
    5eae:	96 e0       	ldi	r25, 0x06	; 6
    5eb0:	0e 94 ea 06 	call	0xdd4	; 0xdd4 <_ZN5Print7printlnEPKc>
	pinMode(nmeaRxPin, INPUT);
    5eb4:	60 e0       	ldi	r22, 0x00	; 0
    5eb6:	84 e3       	ldi	r24, 0x34	; 52
    5eb8:	0e 94 23 17 	call	0x2e46	; 0x2e46 <pinMode>
	pinMode(nmeaTxPin, OUTPUT);
    5ebc:	61 e0       	ldi	r22, 0x01	; 1
    5ebe:	85 e3       	ldi	r24, 0x35	; 53
    5ec0:	0e 94 23 17 	call	0x2e46	; 0x2e46 <pinMode>
	nmea.begin(4800);
    5ec4:	40 ec       	ldi	r20, 0xC0	; 192
    5ec6:	52 e1       	ldi	r21, 0x12	; 18
    5ec8:	60 e0       	ldi	r22, 0x00	; 0
    5eca:	70 e0       	ldi	r23, 0x00	; 0
    5ecc:	8a e2       	ldi	r24, 0x2A	; 42
    5ece:	90 e1       	ldi	r25, 0x10	; 16
    5ed0:	0e 94 f4 37 	call	0x6fe8	; 0x6fe8 <_ZN10NmeaSerial5beginEl>

	//setup interrupts to windPins
	if (DEBUG) Serial.println("Start wind..");
    5ed4:	6e e0       	ldi	r22, 0x0E	; 14
    5ed6:	73 e0       	ldi	r23, 0x03	; 3
    5ed8:	8a ed       	ldi	r24, 0xDA	; 218
    5eda:	96 e0       	ldi	r25, 0x06	; 6
    5edc:	0e 94 ea 06 	call	0xdd4	; 0xdd4 <_ZN5Print7printlnEPKc>
	pinMode(windSpeedPin, INPUT);
    5ee0:	60 e0       	ldi	r22, 0x00	; 0
    5ee2:	83 e0       	ldi	r24, 0x03	; 3
    5ee4:	0e 94 23 17 	call	0x2e46	; 0x2e46 <pinMode>
	attachInterrupt(windSpeedInterrupt, readWDS, CHANGE);
    5ee8:	41 e0       	ldi	r20, 0x01	; 1
    5eea:	50 e0       	ldi	r21, 0x00	; 0
    5eec:	63 ef       	ldi	r22, 0xF3	; 243
    5eee:	7e e2       	ldi	r23, 0x2E	; 46
    5ef0:	81 e0       	ldi	r24, 0x01	; 1
    5ef2:	0e 94 6d 09 	call	0x12da	; 0x12da <attachInterrupt>
	pinMode(windDirPin, INPUT);
    5ef6:	60 e0       	ldi	r22, 0x00	; 0
    5ef8:	82 e0       	ldi	r24, 0x02	; 2
    5efa:	0e 94 23 17 	call	0x2e46	; 0x2e46 <pinMode>
	attachInterrupt(windDirInterrupt, readWDD, CHANGE);
    5efe:	41 e0       	ldi	r20, 0x01	; 1
    5f00:	50 e0       	ldi	r21, 0x00	; 0
    5f02:	6f ee       	ldi	r22, 0xEF	; 239
    5f04:	7e e2       	ldi	r23, 0x2E	; 46
    5f06:	80 e0       	ldi	r24, 0x00	; 0
    5f08:	0e 94 6d 09 	call	0x12da	; 0x12da <attachInterrupt>

//	//setup timers
	if (DEBUG) Serial.println("Start timer..");
    5f0c:	6b e1       	ldi	r22, 0x1B	; 27
    5f0e:	73 e0       	ldi	r23, 0x03	; 3
    5f10:	8a ed       	ldi	r24, 0xDA	; 218
    5f12:	96 e0       	ldi	r25, 0x06	; 6
    5f14:	0e 94 ea 06 	call	0xdd4	; 0xdd4 <_ZN5Print7printlnEPKc>
	FlexiTimer2::set(100, calculate); // 100ms period
    5f18:	46 ed       	ldi	r20, 0xD6	; 214
    5f1a:	5e e2       	ldi	r21, 0x2E	; 46
    5f1c:	64 e6       	ldi	r22, 0x64	; 100
    5f1e:	70 e0       	ldi	r23, 0x00	; 0
    5f20:	80 e0       	ldi	r24, 0x00	; 0
    5f22:	90 e0       	ldi	r25, 0x00	; 0
    5f24:	0e 94 45 20 	call	0x408a	; 0x408a <_ZN11FlexiTimer23setEmPFvvE>
	FlexiTimer2::start();
    5f28:	0e 94 51 20 	call	0x40a2	; 0x40a2 <_ZN11FlexiTimer25startEv>
	//lcd.clearLcd();

	if (DEBUG) Serial.println("Setup complete..");
    5f2c:	69 e2       	ldi	r22, 0x29	; 41
    5f2e:	73 e0       	ldi	r23, 0x03	; 3
    5f30:	8a ed       	ldi	r24, 0xDA	; 218
    5f32:	96 e0       	ldi	r25, 0x06	; 6
    5f34:	0c 94 ea 06 	jmp	0xdd4	; 0xdd4 <_ZN5Print7printlnEPKc>

00005f38 <_Z12serialEvent1v>:

	}
}

void serialEvent1() {
	while (Serial1.available()) {
    5f38:	1f c0       	rjmp	.+62     	; 0x5f78 <_Z12serialEvent1v+0x40>
		inputSerial1Complete = gps.decode(Serial1.read());
    5f3a:	88 eb       	ldi	r24, 0xB8	; 184
    5f3c:	96 e0       	ldi	r25, 0x06	; 6
    5f3e:	0e 94 ac 01 	call	0x358	; 0x358 <_ZN14HardwareSerial4readEv>
    5f42:	68 2f       	mov	r22, r24
    5f44:	89 e7       	ldi	r24, 0x79	; 121
    5f46:	9a e0       	ldi	r25, 0x0A	; 10
    5f48:	0e 94 1b 36 	call	0x6c36	; 0x6c36 <_ZN3Gps6decodeEh>
    5f4c:	80 93 09 0a 	sts	0x0A09, r24
		// read from port 1 (GPS), send to port 0:
		if (inputSerial1Complete) {
    5f50:	88 23       	and	r24, r24
    5f52:	91 f0       	breq	.+36     	; 0x5f78 <_Z12serialEvent1v+0x40>
			if (MUX) nmea.printNmea(gpsSource.sentence());
    5f54:	81 ec       	ldi	r24, 0xC1	; 193
    5f56:	9e e0       	ldi	r25, 0x0E	; 14
    5f58:	0e 94 4f 1c 	call	0x389e	; 0x389e <_ZN4NMEA8sentenceEv>
    5f5c:	bc 01       	movw	r22, r24
    5f5e:	8a e2       	ldi	r24, 0x2A	; 42
    5f60:	90 e1       	ldi	r25, 0x10	; 16
    5f62:	0e 94 05 38 	call	0x700a	; 0x700a <_ZN10NmeaSerial9printNmeaEPc>
			Serial.println(gpsSource.sentence());
    5f66:	81 ec       	ldi	r24, 0xC1	; 193
    5f68:	9e e0       	ldi	r25, 0x0E	; 14
    5f6a:	0e 94 4f 1c 	call	0x389e	; 0x389e <_ZN4NMEA8sentenceEv>
    5f6e:	bc 01       	movw	r22, r24
    5f70:	8a ed       	ldi	r24, 0xDA	; 218
    5f72:	96 e0       	ldi	r25, 0x06	; 6
    5f74:	0c 94 ea 06 	jmp	0xdd4	; 0xdd4 <_ZN5Print7printlnEPKc>

	}
}

void serialEvent1() {
	while (Serial1.available()) {
    5f78:	88 eb       	ldi	r24, 0xB8	; 184
    5f7a:	96 e0       	ldi	r25, 0x06	; 6
    5f7c:	0e 94 7d 01 	call	0x2fa	; 0x2fa <_ZN14HardwareSerial9availableEv>
    5f80:	89 2b       	or	r24, r25
    5f82:	d9 f6       	brne	.-74     	; 0x5f3a <_Z12serialEvent1v+0x2>
			Serial.println(gpsSource.sentence());
			//loop every sentence
			break;
		}
	}
}
    5f84:	08 95       	ret

00005f86 <_Z12serialEvent2v>:

void serialEvent2() {
	while (Serial2.available()) {
    5f86:	86 e9       	ldi	r24, 0x96	; 150
    5f88:	96 e0       	ldi	r25, 0x06	; 6
    5f8a:	0e 94 7d 01 	call	0x2fa	; 0x2fa <_ZN14HardwareSerial9availableEv>
    5f8e:	89 2b       	or	r24, r25
    5f90:	31 f1       	breq	.+76     	; 0x5fde <_Z12serialEvent2v+0x58>
		if(model.getSeaTalk()){
    5f92:	8b e6       	ldi	r24, 0x6B	; 107
    5f94:	90 e1       	ldi	r25, 0x10	; 16
    5f96:	0e 94 cc 2e 	call	0x5d98	; 0x5d98 <_ZN14FreeBoardModel10getSeaTalkEv>
    5f9a:	88 23       	and	r24, r24
    5f9c:	51 f0       	breq	.+20     	; 0x5fb2 <_Z12serialEvent2v+0x2c>
			seatalk.processSeaTalkByte(Serial2.read());
    5f9e:	86 e9       	ldi	r24, 0x96	; 150
    5fa0:	96 e0       	ldi	r25, 0x06	; 6
    5fa2:	0e 94 ac 01 	call	0x358	; 0x358 <_ZN14HardwareSerial4readEv>
    5fa6:	68 2f       	mov	r22, r24
    5fa8:	81 e1       	ldi	r24, 0x11	; 17
    5faa:	9a e0       	ldi	r25, 0x0A	; 10
    5fac:	0e 94 2f 39 	call	0x725e	; 0x725e <_ZN7Seatalk18processSeaTalkByteEh>
    5fb0:	ea cf       	rjmp	.-44     	; 0x5f86 <_Z12serialEvent2v>
		}else{
			inputSerial2Complete = talker2.decode(Serial2.read());
    5fb2:	86 e9       	ldi	r24, 0x96	; 150
    5fb4:	96 e0       	ldi	r25, 0x06	; 6
    5fb6:	0e 94 ac 01 	call	0x358	; 0x358 <_ZN14HardwareSerial4readEv>
    5fba:	68 2f       	mov	r22, r24
    5fbc:	8f ee       	ldi	r24, 0xEF	; 239
    5fbe:	9b e0       	ldi	r25, 0x0B	; 11
    5fc0:	0e 94 03 1d 	call	0x3a06	; 0x3a06 <_ZN4NMEA6decodeEc>
    5fc4:	80 93 08 0a 	sts	0x0A08, r24
			if (inputSerial2Complete) {
    5fc8:	88 23       	and	r24, r24
    5fca:	e9 f2       	breq	.-70     	; 0x5f86 <_Z12serialEvent2v>
				if (MUX) nmea.printNmea(talker2.sentence());
    5fcc:	8f ee       	ldi	r24, 0xEF	; 239
    5fce:	9b e0       	ldi	r25, 0x0B	; 11
    5fd0:	0e 94 4f 1c 	call	0x389e	; 0x389e <_ZN4NMEA8sentenceEv>
    5fd4:	bc 01       	movw	r22, r24
    5fd6:	8a e2       	ldi	r24, 0x2A	; 42
    5fd8:	90 e1       	ldi	r25, 0x10	; 16
    5fda:	0c 94 05 38 	jmp	0x700a	; 0x700a <_ZN10NmeaSerial9printNmeaEPc>
    5fde:	08 95       	ret

00005fe0 <_Z12serialEvent3v>:
		}
	}
}

void serialEvent3() {
	while (Serial3.available()) {
    5fe0:	1f c0       	rjmp	.+62     	; 0x6020 <_Z12serialEvent3v+0x40>
		inputSerial3Complete = talker3.decode(Serial3.read());
    5fe2:	84 e7       	ldi	r24, 0x74	; 116
    5fe4:	96 e0       	ldi	r25, 0x06	; 6
    5fe6:	0e 94 ac 01 	call	0x358	; 0x358 <_ZN14HardwareSerial4readEv>
    5fea:	68 2f       	mov	r22, r24
    5fec:	86 e8       	ldi	r24, 0x86	; 134
    5fee:	9a e0       	ldi	r25, 0x0A	; 10
    5ff0:	0e 94 03 1d 	call	0x3a06	; 0x3a06 <_ZN4NMEA6decodeEc>
    5ff4:	80 93 07 0a 	sts	0x0A07, r24
		if (inputSerial3Complete) {
    5ff8:	88 23       	and	r24, r24
    5ffa:	91 f0       	breq	.+36     	; 0x6020 <_Z12serialEvent3v+0x40>
			if (MUX) nmea.printNmea(talker3.sentence());
    5ffc:	86 e8       	ldi	r24, 0x86	; 134
    5ffe:	9a e0       	ldi	r25, 0x0A	; 10
    6000:	0e 94 4f 1c 	call	0x389e	; 0x389e <_ZN4NMEA8sentenceEv>
    6004:	bc 01       	movw	r22, r24
    6006:	8a e2       	ldi	r24, 0x2A	; 42
    6008:	90 e1       	ldi	r25, 0x10	; 16
    600a:	0e 94 05 38 	call	0x700a	; 0x700a <_ZN10NmeaSerial9printNmeaEPc>
			Serial.println(talker3.sentence());
    600e:	86 e8       	ldi	r24, 0x86	; 134
    6010:	9a e0       	ldi	r25, 0x0A	; 10
    6012:	0e 94 4f 1c 	call	0x389e	; 0x389e <_ZN4NMEA8sentenceEv>
    6016:	bc 01       	movw	r22, r24
    6018:	8a ed       	ldi	r24, 0xDA	; 218
    601a:	96 e0       	ldi	r25, 0x06	; 6
    601c:	0c 94 ea 06 	jmp	0xdd4	; 0xdd4 <_ZN5Print7printlnEPKc>
		}
	}
}

void serialEvent3() {
	while (Serial3.available()) {
    6020:	84 e7       	ldi	r24, 0x74	; 116
    6022:	96 e0       	ldi	r25, 0x06	; 6
    6024:	0e 94 7d 01 	call	0x2fa	; 0x2fa <_ZN14HardwareSerial9availableEv>
    6028:	89 2b       	or	r24, r25
    602a:	d9 f6       	brne	.-74     	; 0x5fe2 <_Z12serialEvent3v+0x2>
			Serial.println(talker3.sentence());
			//loop every sentence
			break;
		}
	}
}
    602c:	08 95       	ret

0000602e <loop>:

void loop() {
    602e:	cf 93       	push	r28
    6030:	df 93       	push	r29
    6032:	cd b7       	in	r28, 0x3d	; 61
    6034:	de b7       	in	r29, 0x3e	; 62
    6036:	a2 97       	sbiw	r28, 0x22	; 34
    6038:	0f b6       	in	r0, 0x3f	; 63
    603a:	f8 94       	cli
    603c:	de bf       	out	0x3e, r29	; 62
    603e:	0f be       	out	0x3f, r0	; 63
    6040:	cd bf       	out	0x3d, r28	; 61

	//if (DEBUG)
	//Serial.println("Looping..");

	if (execute) {
    6042:	80 91 1c 11 	lds	r24, 0x111C
    6046:	88 23       	and	r24, r24
    6048:	09 f4       	brne	.+2      	; 0x604c <loop+0x1e>
    604a:	a6 c0       	rjmp	.+332    	; 0x6198 <loop+0x16a>
		//timer ping
		//do these every 100ms
		autopilot.calcAutoPilot();
    604c:	8f e2       	ldi	r24, 0x2F	; 47
    604e:	9a e0       	ldi	r25, 0x0A	; 10
    6050:	0e 94 c9 27 	call	0x4f92	; 0x4f92 <_ZN9Autopilot13calcAutoPilotEv>

		if (interval % 2 == 0) {
    6054:	80 91 1a 11 	lds	r24, 0x111A
    6058:	90 91 1b 11 	lds	r25, 0x111B
			//do every 200ms
			//wind.calcWindSpeedAndDir();
		}
		if (interval % 5 == 0) {
    605c:	80 91 1a 11 	lds	r24, 0x111A
    6060:	90 91 1b 11 	lds	r25, 0x111B
    6064:	65 e0       	ldi	r22, 0x05	; 5
    6066:	70 e0       	ldi	r23, 0x00	; 0
    6068:	0e 94 e9 44 	call	0x89d2	; 0x89d2 <__divmodhi4>
    606c:	89 2b       	or	r24, r25
    606e:	09 f0       	breq	.+2      	; 0x6072 <loop+0x44>
    6070:	7b c0       	rjmp	.+246    	; 0x6168 <loop+0x13a>
			//do every 500ms
			wind.calcWindSpeedAndDir();
    6072:	8f e7       	ldi	r24, 0x7F	; 127
    6074:	9a e0       	ldi	r25, 0x0A	; 10
    6076:	0e 94 0a 3b 	call	0x7614	; 0x7614 <_ZN4Wind19calcWindSpeedAndDirEv>
			wind.calcWindData();
    607a:	8f e7       	ldi	r24, 0x7F	; 127
    607c:	9a e0       	ldi	r25, 0x0A	; 10
    607e:	0e 94 76 3d 	call	0x7aec	; 0x7aec <_ZN4Wind12calcWindDataEv>
			nmea.printWindNmea();
    6082:	8a e2       	ldi	r24, 0x2A	; 42
    6084:	90 e1       	ldi	r25, 0x10	; 16
    6086:	0e 94 07 38 	call	0x700e	; 0x700e <_ZN10NmeaSerial13printWindNmeaEv>
			//fire any alarms
			alarm.checkAlarms();
    608a:	81 e8       	ldi	r24, 0x81	; 129
    608c:	9a e0       	ldi	r25, 0x0A	; 10
    608e:	0e 94 80 23 	call	0x4700	; 0x4700 <_ZN5Alarm11checkAlarmsEv>
#define DEC 10
#define HEX 16
#define OCT 8
#define BIN 2

class Print
    6092:	80 91 dc 06 	lds	r24, 0x06DC
    6096:	90 91 dd 06 	lds	r25, 0x06DD
    609a:	9c 83       	std	Y+4, r25	; 0x04
    609c:	8b 83       	std	Y+3, r24	; 0x03
#define   getFloat(skipChar)  parseFloat(skipChar)
#define   getString( pre_string, post_string, buffer, length)
readBytesBetween( pre_string, terminator, buffer, length)
*/

class Stream : public Print
    609e:	80 91 de 06 	lds	r24, 0x06DE
    60a2:	90 91 df 06 	lds	r25, 0x06DF
    60a6:	a0 91 e0 06 	lds	r26, 0x06E0
    60aa:	b0 91 e1 06 	lds	r27, 0x06E1
    60ae:	8d 83       	std	Y+5, r24	; 0x05
    60b0:	9e 83       	std	Y+6, r25	; 0x06
    60b2:	af 83       	std	Y+7, r26	; 0x07
    60b4:	b8 87       	std	Y+8, r27	; 0x08
    60b6:	80 91 e2 06 	lds	r24, 0x06E2
    60ba:	90 91 e3 06 	lds	r25, 0x06E3
    60be:	a0 91 e4 06 	lds	r26, 0x06E4
    60c2:	b0 91 e5 06 	lds	r27, 0x06E5
    60c6:	89 87       	std	Y+9, r24	; 0x09
    60c8:	9a 87       	std	Y+10, r25	; 0x0a
    60ca:	ab 87       	std	Y+11, r26	; 0x0b
    60cc:	bc 87       	std	Y+12, r27	; 0x0c

#include "Stream.h"

struct ring_buffer;

class HardwareSerial : public Stream
    60ce:	8a e5       	ldi	r24, 0x5A	; 90
    60d0:	96 e0       	ldi	r25, 0x06	; 6
    60d2:	9a 83       	std	Y+2, r25	; 0x02
    60d4:	89 83       	std	Y+1, r24	; 0x01
    60d6:	80 91 e6 06 	lds	r24, 0x06E6
    60da:	90 91 e7 06 	lds	r25, 0x06E7
    60de:	9e 87       	std	Y+14, r25	; 0x0e
    60e0:	8d 87       	std	Y+13, r24	; 0x0d
    60e2:	80 91 e8 06 	lds	r24, 0x06E8
    60e6:	90 91 e9 06 	lds	r25, 0x06E9
    60ea:	98 8b       	std	Y+16, r25	; 0x10
    60ec:	8f 87       	std	Y+15, r24	; 0x0f
    60ee:	80 91 ea 06 	lds	r24, 0x06EA
    60f2:	90 91 eb 06 	lds	r25, 0x06EB
    60f6:	9a 8b       	std	Y+18, r25	; 0x12
    60f8:	89 8b       	std	Y+17, r24	; 0x11
    60fa:	80 91 ec 06 	lds	r24, 0x06EC
    60fe:	90 91 ed 06 	lds	r25, 0x06ED
    6102:	9c 8b       	std	Y+20, r25	; 0x14
    6104:	8b 8b       	std	Y+19, r24	; 0x13
    6106:	80 91 ee 06 	lds	r24, 0x06EE
    610a:	90 91 ef 06 	lds	r25, 0x06EF
    610e:	9e 8b       	std	Y+22, r25	; 0x16
    6110:	8d 8b       	std	Y+21, r24	; 0x15
    6112:	80 91 f0 06 	lds	r24, 0x06F0
    6116:	90 91 f1 06 	lds	r25, 0x06F1
    611a:	98 8f       	std	Y+24, r25	; 0x18
    611c:	8f 8b       	std	Y+23, r24	; 0x17
    611e:	80 91 f2 06 	lds	r24, 0x06F2
    6122:	90 91 f3 06 	lds	r25, 0x06F3
    6126:	9a 8f       	std	Y+26, r25	; 0x1a
    6128:	89 8f       	std	Y+25, r24	; 0x19
    612a:	80 91 f4 06 	lds	r24, 0x06F4
    612e:	90 91 f5 06 	lds	r25, 0x06F5
    6132:	9c 8f       	std	Y+28, r25	; 0x1c
    6134:	8b 8f       	std	Y+27, r24	; 0x1b
    6136:	80 91 f6 06 	lds	r24, 0x06F6
    613a:	8d 8f       	std	Y+29, r24	; 0x1d
    613c:	80 91 f7 06 	lds	r24, 0x06F7
    6140:	8e 8f       	std	Y+30, r24	; 0x1e
    6142:	80 91 f8 06 	lds	r24, 0x06F8
    6146:	8f 8f       	std	Y+31, r24	; 0x1f
    6148:	80 91 f9 06 	lds	r24, 0x06F9
    614c:	88 a3       	std	Y+32, r24	; 0x20
    614e:	80 91 fa 06 	lds	r24, 0x06FA
    6152:	89 a3       	std	Y+33, r24	; 0x21
    6154:	80 91 fb 06 	lds	r24, 0x06FB
    6158:	8a a3       	std	Y+34, r24	; 0x22
			model.writeSimple(Serial);
    615a:	be 01       	movw	r22, r28
    615c:	6f 5f       	subi	r22, 0xFF	; 255
    615e:	7f 4f       	sbci	r23, 0xFF	; 255
    6160:	8b e6       	ldi	r24, 0x6B	; 107
    6162:	90 e1       	ldi	r25, 0x10	; 16
    6164:	0e 94 a1 2b 	call	0x5742	; 0x5742 <_ZN14FreeBoardModel11writeSimpleE14HardwareSerial>
		}
		if (interval % 10 == 0) {
    6168:	80 91 1a 11 	lds	r24, 0x111A
    616c:	90 91 1b 11 	lds	r25, 0x111B
    6170:	6a e0       	ldi	r22, 0x0A	; 10
    6172:	70 e0       	ldi	r23, 0x00	; 0
    6174:	0e 94 e9 44 	call	0x89d2	; 0x89d2 <__divmodhi4>
    6178:	89 2b       	or	r24, r25
    617a:	61 f4       	brne	.+24     	; 0x6194 <loop+0x166>
			//do every 1000ms
			anchor.checkAnchor();
    617c:	8b e2       	ldi	r24, 0x2B	; 43
    617e:	9a e0       	ldi	r25, 0x0A	; 10
    6180:	0e 94 0a 26 	call	0x4c14	; 0x4c14 <_ZN6Anchor11checkAnchorEv>
			alarm.checkWindAlarm();
    6184:	81 e8       	ldi	r24, 0x81	; 129
    6186:	9a e0       	ldi	r25, 0x0A	; 10
    6188:	0e 94 dd 23 	call	0x47ba	; 0x47ba <_ZN5Alarm14checkWindAlarmEv>

			nmea.printTrueHeading();
    618c:	8a e2       	ldi	r24, 0x2A	; 42
    618e:	90 e1       	ldi	r25, 0x10	; 16
    6190:	0e 94 87 38 	call	0x710e	; 0x710e <_ZN10NmeaSerial16printTrueHeadingEv>
		}
		//if (interval % 20 == 0) {
		//do every 2000ms
		//}

		execute = false;
    6194:	10 92 1c 11 	sts	0x111C, r1
	 s.append(", stack: ");
	 s.append((int)stackptr);
	 if(DEBUG)Serial.println(s);
	 */

}
    6198:	a2 96       	adiw	r28, 0x22	; 34
    619a:	0f b6       	in	r0, 0x3f	; 63
    619c:	f8 94       	cli
    619e:	de bf       	out	0x3e, r29	; 62
    61a0:	0f be       	out	0x3f, r0	; 63
    61a2:	cd bf       	out	0x3d, r28	; 61
    61a4:	df 91       	pop	r29
    61a6:	cf 91       	pop	r28
    61a8:	08 95       	ret

000061aa <_Z7processPcc>:

void process(char * s, char parser) {
    61aa:	4f 92       	push	r4
    61ac:	5f 92       	push	r5
    61ae:	6f 92       	push	r6
    61b0:	7f 92       	push	r7
    61b2:	8f 92       	push	r8
    61b4:	9f 92       	push	r9
    61b6:	af 92       	push	r10
    61b8:	bf 92       	push	r11
    61ba:	cf 92       	push	r12
    61bc:	df 92       	push	r13
    61be:	ef 92       	push	r14
    61c0:	ff 92       	push	r15
    61c2:	0f 93       	push	r16
    61c4:	1f 93       	push	r17
    61c6:	cf 93       	push	r28
    61c8:	df 93       	push	r29
    61ca:	00 d0       	rcall	.+0      	; 0x61cc <_Z7processPcc+0x22>
    61cc:	1f 92       	push	r1
    61ce:	1f 92       	push	r1
    61d0:	cd b7       	in	r28, 0x3d	; 61
    61d2:	de b7       	in	r29, 0x3e	; 62
		}
		//next token
		cmd = strtok(NULL, ",");
	}
	//if (DEBUG) Serial.println("Process str exit");
}
    61d4:	6d b6       	in	r6, 0x3d	; 61
    61d6:	7e b6       	in	r7, 0x3e	; 62
}

void process(char * s, char parser) {
	//if (DEBUG) Serial.print("Process str:");
	//if (DEBUG) Serial.println(s);
	char *cmd = strtok(s, ",");
    61d8:	6d e0       	ldi	r22, 0x0D	; 13
    61da:	75 e0       	ldi	r23, 0x05	; 5
    61dc:	ec c1       	rjmp	.+984    	; 0x65b6 <_Z7processPcc+0x40c>
    61de:	5d b6       	in	r5, 0x3d	; 61
    61e0:	4e b6       	in	r4, 0x3e	; 62
		char key[5];
		int l = strlen(cmd);
		bool save=false;
		if (cmd[0] == '#') {
			//
			strncpy(key, cmd, 4);
    61e2:	44 e0       	ldi	r20, 0x04	; 4
    61e4:	50 e0       	ldi	r21, 0x00	; 0
    61e6:	b7 01       	movw	r22, r14
    61e8:	ce 01       	movw	r24, r28
    61ea:	01 96       	adiw	r24, 0x01	; 1
    61ec:	0e 94 08 46 	call	0x8c10	; 0x8c10 <strncpy>
			key[4] = '\0';
    61f0:	1d 82       	std	Y+5, r1	; 0x05
			char val[l - 4];
    61f2:	48 01       	movw	r8, r16
    61f4:	85 e0       	ldi	r24, 0x05	; 5
    61f6:	88 1a       	sub	r8, r24
    61f8:	91 08       	sbc	r9, r1
    61fa:	68 01       	movw	r12, r16
    61fc:	94 e0       	ldi	r25, 0x04	; 4
    61fe:	c9 1a       	sub	r12, r25
    6200:	d1 08       	sbc	r13, r1
    6202:	ad b7       	in	r26, 0x3d	; 61
    6204:	be b7       	in	r27, 0x3e	; 62
    6206:	ac 19       	sub	r26, r12
    6208:	bd 09       	sbc	r27, r13
    620a:	0f b6       	in	r0, 0x3f	; 63
    620c:	f8 94       	cli
    620e:	be bf       	out	0x3e, r27	; 62
    6210:	0f be       	out	0x3f, r0	; 63
    6212:	ad bf       	out	0x3d, r26	; 61
    6214:	ad b6       	in	r10, 0x3d	; 61
    6216:	be b6       	in	r11, 0x3e	; 62
    6218:	ef ef       	ldi	r30, 0xFF	; 255
    621a:	ae 1a       	sub	r10, r30
    621c:	be 0a       	sbc	r11, r30
			memcpy(val, &cmd[5], l - 5);
    621e:	65 01       	movw	r12, r10
    6220:	f5 e0       	ldi	r31, 0x05	; 5
    6222:	ef 0e       	add	r14, r31
    6224:	f1 1c       	adc	r15, r1
    6226:	a4 01       	movw	r20, r8
    6228:	b7 01       	movw	r22, r14
    622a:	c5 01       	movw	r24, r10
    622c:	0e 94 c4 45 	call	0x8b88	; 0x8b88 <memcpy>
			val[l - 5] = '\0';
    6230:	f5 01       	movw	r30, r10
    6232:	e8 0d       	add	r30, r8
    6234:	f9 1d       	adc	r31, r9
    6236:	10 82       	st	Z, r1
			//if (DEBUG) Serial.print(key);
			//if (DEBUG) Serial.print(" = ");
			//if (DEBUG) Serial.println(val);

			//anchor
			if (strcmp(key, ANCHOR_ALARM_STATE) == 0) {
    6238:	6a e3       	ldi	r22, 0x3A	; 58
    623a:	73 e0       	ldi	r23, 0x03	; 3
    623c:	ce 01       	movw	r24, r28
    623e:	01 96       	adiw	r24, 0x01	; 1
    6240:	0e 94 ea 45 	call	0x8bd4	; 0x8bd4 <strcmp>
    6244:	00 97       	sbiw	r24, 0x00	; 0
    6246:	b1 f4       	brne	.+44     	; 0x6274 <_Z7processPcc+0xca>
				//if (DEBUG) Serial.print("AA Entered..");
				model.setAnchorAlarmOn(atoi(val));
    6248:	c5 01       	movw	r24, r10
    624a:	0e 94 63 45 	call	0x8ac6	; 0x8ac6 <atoi>
    624e:	61 e0       	ldi	r22, 0x01	; 1
    6250:	89 2b       	or	r24, r25
    6252:	09 f4       	brne	.+2      	; 0x6256 <_Z7processPcc+0xac>
    6254:	60 e0       	ldi	r22, 0x00	; 0
    6256:	8b e6       	ldi	r24, 0x6B	; 107
    6258:	90 e1       	ldi	r25, 0x10	; 16
    625a:	0e 94 38 2d 	call	0x5a70	; 0x5a70 <_ZN14FreeBoardModel16setAnchorAlarmOnEb>
				if (atoi(val) == 1) {
    625e:	c6 01       	movw	r24, r12
    6260:	0e 94 63 45 	call	0x8ac6	; 0x8ac6 <atoi>
    6264:	01 97       	sbiw	r24, 0x01	; 1
    6266:	09 f0       	breq	.+2      	; 0x626a <_Z7processPcc+0xc0>
    6268:	39 c1       	rjmp	.+626    	; 0x64dc <_Z7processPcc+0x332>
					anchor.setAnchorPoint();
    626a:	8b e2       	ldi	r24, 0x2B	; 43
    626c:	9a e0       	ldi	r25, 0x0A	; 10
    626e:	0e 94 03 27 	call	0x4e06	; 0x4e06 <_ZN6Anchor14setAnchorPointEv>
    6272:	34 c1       	rjmp	.+616    	; 0x64dc <_Z7processPcc+0x332>
				}
			} else if (strcmp(key, ANCHOR_ALARM_ADJUST) == 0) {
    6274:	6f e3       	ldi	r22, 0x3F	; 63
    6276:	73 e0       	ldi	r23, 0x03	; 3
    6278:	ce 01       	movw	r24, r28
    627a:	01 96       	adiw	r24, 0x01	; 1
    627c:	0e 94 ea 45 	call	0x8bd4	; 0x8bd4 <strcmp>
    6280:	00 97       	sbiw	r24, 0x00	; 0
    6282:	b1 f4       	brne	.+44     	; 0x62b0 <_Z7processPcc+0x106>
				model.setAnchorRadius(model.getAnchorRadius() + atof(val));
    6284:	8b e6       	ldi	r24, 0x6B	; 107
    6286:	90 e1       	ldi	r25, 0x10	; 16
    6288:	0e 94 01 2b 	call	0x5602	; 0x5602 <_ZN14FreeBoardModel15getAnchorRadiusEv>
    628c:	6b 01       	movw	r12, r22
    628e:	7c 01       	movw	r14, r24
    6290:	c5 01       	movw	r24, r10
    6292:	0e 94 5f 45 	call	0x8abe	; 0x8abe <atof>
    6296:	9b 01       	movw	r18, r22
    6298:	ac 01       	movw	r20, r24
    629a:	c7 01       	movw	r24, r14
    629c:	b6 01       	movw	r22, r12
    629e:	0e 94 24 41 	call	0x8248	; 0x8248 <__addsf3>
    62a2:	ab 01       	movw	r20, r22
    62a4:	bc 01       	movw	r22, r24
    62a6:	8b e6       	ldi	r24, 0x6B	; 107
    62a8:	90 e1       	ldi	r25, 0x10	; 16
    62aa:	0e 94 68 2d 	call	0x5ad0	; 0x5ad0 <_ZN14FreeBoardModel15setAnchorRadiusEf>
    62ae:	16 c1       	rjmp	.+556    	; 0x64dc <_Z7processPcc+0x332>
			} else if (strcmp(key, ANCHOR_ALARM_LAT) == 0) {
    62b0:	64 e4       	ldi	r22, 0x44	; 68
    62b2:	73 e0       	ldi	r23, 0x03	; 3
    62b4:	ce 01       	movw	r24, r28
    62b6:	01 96       	adiw	r24, 0x01	; 1
    62b8:	0e 94 ea 45 	call	0x8bd4	; 0x8bd4 <strcmp>
    62bc:	00 97       	sbiw	r24, 0x00	; 0
    62be:	51 f4       	brne	.+20     	; 0x62d4 <_Z7processPcc+0x12a>
				model.setAnchorLat(atof(val));
    62c0:	c5 01       	movw	r24, r10
    62c2:	0e 94 5f 45 	call	0x8abe	; 0x8abe <atof>
    62c6:	ab 01       	movw	r20, r22
    62c8:	bc 01       	movw	r22, r24
    62ca:	8b e6       	ldi	r24, 0x6B	; 107
    62cc:	90 e1       	ldi	r25, 0x10	; 16
    62ce:	0e 94 4c 2d 	call	0x5a98	; 0x5a98 <_ZN14FreeBoardModel12setAnchorLatEf>
    62d2:	04 c1       	rjmp	.+520    	; 0x64dc <_Z7processPcc+0x332>
			} else if (strcmp(key, ANCHOR_ALARM_LON) == 0) {
    62d4:	69 e4       	ldi	r22, 0x49	; 73
    62d6:	73 e0       	ldi	r23, 0x03	; 3
    62d8:	ce 01       	movw	r24, r28
    62da:	01 96       	adiw	r24, 0x01	; 1
    62dc:	0e 94 ea 45 	call	0x8bd4	; 0x8bd4 <strcmp>
    62e0:	00 97       	sbiw	r24, 0x00	; 0
    62e2:	51 f4       	brne	.+20     	; 0x62f8 <_Z7processPcc+0x14e>
				model.setAnchorLon(atof(val));
    62e4:	c5 01       	movw	r24, r10
    62e6:	0e 94 5f 45 	call	0x8abe	; 0x8abe <atof>
    62ea:	ab 01       	movw	r20, r22
    62ec:	bc 01       	movw	r22, r24
    62ee:	8b e6       	ldi	r24, 0x6B	; 107
    62f0:	90 e1       	ldi	r25, 0x10	; 16
    62f2:	0e 94 54 2d 	call	0x5aa8	; 0x5aa8 <_ZN14FreeBoardModel12setAnchorLonEf>
    62f6:	f2 c0       	rjmp	.+484    	; 0x64dc <_Z7processPcc+0x332>
			}
			//autopliot
			else if (strcmp(key, AUTOPILOT_STATE) == 0) {
    62f8:	6e e4       	ldi	r22, 0x4E	; 78
    62fa:	73 e0       	ldi	r23, 0x03	; 3
    62fc:	ce 01       	movw	r24, r28
    62fe:	01 96       	adiw	r24, 0x01	; 1
    6300:	0e 94 ea 45 	call	0x8bd4	; 0x8bd4 <strcmp>
    6304:	00 97       	sbiw	r24, 0x00	; 0
    6306:	61 f4       	brne	.+24     	; 0x6320 <_Z7processPcc+0x176>
				//if (DEBUG) Serial.print("AP Entered..");
				//if (DEBUG) Serial.println(val);
				//this is potentailly dangerous, since we dont want the boat diving off on an old target heading.
				//in model we ALWAYS reset to current magnetic or wind heading at this point
				model.setAutopilotOn(atoi(val));
    6308:	c5 01       	movw	r24, r10
    630a:	0e 94 63 45 	call	0x8ac6	; 0x8ac6 <atoi>
    630e:	61 e0       	ldi	r22, 0x01	; 1
    6310:	89 2b       	or	r24, r25
    6312:	09 f4       	brne	.+2      	; 0x6316 <_Z7processPcc+0x16c>
    6314:	60 e0       	ldi	r22, 0x00	; 0
    6316:	8b e6       	ldi	r24, 0x6B	; 107
    6318:	90 e1       	ldi	r25, 0x10	; 16
    631a:	0e 94 68 2e 	call	0x5cd0	; 0x5cd0 <_ZN14FreeBoardModel14setAutopilotOnEb>
    631e:	de c0       	rjmp	.+444    	; 0x64dc <_Z7processPcc+0x332>
			} else if (strcmp(key, AUTOPILOT_ADJUST) == 0) {
    6320:	63 e5       	ldi	r22, 0x53	; 83
    6322:	73 e0       	ldi	r23, 0x03	; 3
    6324:	ce 01       	movw	r24, r28
    6326:	01 96       	adiw	r24, 0x01	; 1
    6328:	0e 94 ea 45 	call	0x8bd4	; 0x8bd4 <strcmp>
    632c:	00 97       	sbiw	r24, 0x00	; 0
    632e:	c1 f4       	brne	.+48     	; 0x6360 <_Z7processPcc+0x1b6>
				model.setAutopilotTargetHeading(model.getAutopilotTargetHeading() + atol(val));
    6330:	8b e6       	ldi	r24, 0x6B	; 107
    6332:	90 e1       	ldi	r25, 0x10	; 16
    6334:	0e 94 35 2b 	call	0x566a	; 0x566a <_ZN14FreeBoardModel25getAutopilotTargetHeadingEv>
    6338:	6b 01       	movw	r12, r22
    633a:	7c 01       	movw	r14, r24
    633c:	c5 01       	movw	r24, r10
    633e:	0e 94 81 45 	call	0x8b02	; 0x8b02 <atol>
    6342:	0e 94 8c 42 	call	0x8518	; 0x8518 <__floatsisf>
    6346:	9b 01       	movw	r18, r22
    6348:	ac 01       	movw	r20, r24
    634a:	c7 01       	movw	r24, r14
    634c:	b6 01       	movw	r22, r12
    634e:	0e 94 24 41 	call	0x8248	; 0x8248 <__addsf3>
    6352:	ab 01       	movw	r20, r22
    6354:	bc 01       	movw	r22, r24
    6356:	8b e6       	ldi	r24, 0x6B	; 107
    6358:	90 e1       	ldi	r25, 0x10	; 16
    635a:	0e 94 b7 2d 	call	0x5b6e	; 0x5b6e <_ZN14FreeBoardModel25setAutopilotTargetHeadingEd>
    635e:	be c0       	rjmp	.+380    	; 0x64dc <_Z7processPcc+0x332>
			} else if (strcmp(key, AUTOPILOT_SOURCE) == 0) {
    6360:	68 e5       	ldi	r22, 0x58	; 88
    6362:	73 e0       	ldi	r23, 0x03	; 3
    6364:	ce 01       	movw	r24, r28
    6366:	01 96       	adiw	r24, 0x01	; 1
    6368:	0e 94 ea 45 	call	0x8bd4	; 0x8bd4 <strcmp>
    636c:	00 97       	sbiw	r24, 0x00	; 0
    636e:	39 f4       	brne	.+14     	; 0x637e <_Z7processPcc+0x1d4>
				model.setAutopilotReference(val[0]);
    6370:	d5 01       	movw	r26, r10
    6372:	6c 91       	ld	r22, X
    6374:	8b e6       	ldi	r24, 0x6B	; 107
    6376:	90 e1       	ldi	r25, 0x10	; 16
    6378:	0e 94 82 2d 	call	0x5b04	; 0x5b04 <_ZN14FreeBoardModel21setAutopilotReferenceEc>
    637c:	af c0       	rjmp	.+350    	; 0x64dc <_Z7processPcc+0x332>
			}
			//wind
			else if (strcmp(key, WIND_SPEED_ALARM_STATE) == 0) {
    637e:	6d e5       	ldi	r22, 0x5D	; 93
    6380:	73 e0       	ldi	r23, 0x03	; 3
    6382:	ce 01       	movw	r24, r28
    6384:	01 96       	adiw	r24, 0x01	; 1
    6386:	0e 94 ea 45 	call	0x8bd4	; 0x8bd4 <strcmp>
    638a:	00 97       	sbiw	r24, 0x00	; 0
    638c:	61 f4       	brne	.+24     	; 0x63a6 <_Z7processPcc+0x1fc>
				model.setWindAlarmOn(atoi(val));
    638e:	c5 01       	movw	r24, r10
    6390:	0e 94 63 45 	call	0x8ac6	; 0x8ac6 <atoi>
    6394:	61 e0       	ldi	r22, 0x01	; 1
    6396:	89 2b       	or	r24, r25
    6398:	09 f4       	brne	.+2      	; 0x639c <_Z7processPcc+0x1f2>
    639a:	60 e0       	ldi	r22, 0x00	; 0
    639c:	8b e6       	ldi	r24, 0x6B	; 107
    639e:	90 e1       	ldi	r25, 0x10	; 16
    63a0:	0e 94 1f 2e 	call	0x5c3e	; 0x5c3e <_ZN14FreeBoardModel14setWindAlarmOnEb>
    63a4:	9b c0       	rjmp	.+310    	; 0x64dc <_Z7processPcc+0x332>
			} else if (strcpy(key, WIND_ALARM_KNOTS) == 0) {
    63a6:	62 e6       	ldi	r22, 0x62	; 98
    63a8:	73 e0       	ldi	r23, 0x03	; 3
    63aa:	ce 01       	movw	r24, r28
    63ac:	01 96       	adiw	r24, 0x01	; 1
    63ae:	0e 94 f3 45 	call	0x8be6	; 0x8be6 <strcpy>
    63b2:	00 97       	sbiw	r24, 0x00	; 0
    63b4:	49 f4       	brne	.+18     	; 0x63c8 <_Z7processPcc+0x21e>
				model.setWindAlarmSpeed(atoi(val));
    63b6:	c5 01       	movw	r24, r10
    63b8:	0e 94 63 45 	call	0x8ac6	; 0x8ac6 <atoi>
    63bc:	bc 01       	movw	r22, r24
    63be:	8b e6       	ldi	r24, 0x6B	; 107
    63c0:	90 e1       	ldi	r25, 0x10	; 16
    63c2:	0e 94 24 2e 	call	0x5c48	; 0x5c48 <_ZN14FreeBoardModel17setWindAlarmSpeedEi>
    63c6:	8a c0       	rjmp	.+276    	; 0x64dc <_Z7processPcc+0x332>
			} else if (strcpy(key, WIND_ZERO_ADJUST) == 0) {
    63c8:	67 e6       	ldi	r22, 0x67	; 103
    63ca:	73 e0       	ldi	r23, 0x03	; 3
    63cc:	ce 01       	movw	r24, r28
    63ce:	01 96       	adiw	r24, 0x01	; 1
    63d0:	0e 94 f3 45 	call	0x8be6	; 0x8be6 <strcpy>
    63d4:	00 97       	sbiw	r24, 0x00	; 0
    63d6:	49 f4       	brne	.+18     	; 0x63ea <_Z7processPcc+0x240>
				model.setWindZeroOffset(atoi(val));
    63d8:	c5 01       	movw	r24, r10
    63da:	0e 94 63 45 	call	0x8ac6	; 0x8ac6 <atoi>
    63de:	bc 01       	movw	r22, r24
    63e0:	8b e6       	ldi	r24, 0x6B	; 107
    63e2:	90 e1       	ldi	r25, 0x10	; 16
    63e4:	0e 94 19 2e 	call	0x5c32	; 0x5c32 <_ZN14FreeBoardModel17setWindZeroOffsetEi>
    63e8:	79 c0       	rjmp	.+242    	; 0x64dc <_Z7processPcc+0x332>
			}
			//gps,serial,seatalk
			else if (strcmp(key, GPS_MODEL) == 0) {
    63ea:	6c e6       	ldi	r22, 0x6C	; 108
    63ec:	73 e0       	ldi	r23, 0x03	; 3
    63ee:	ce 01       	movw	r24, r28
    63f0:	01 96       	adiw	r24, 0x01	; 1
    63f2:	0e 94 ea 45 	call	0x8bd4	; 0x8bd4 <strcmp>
    63f6:	00 97       	sbiw	r24, 0x00	; 0
    63f8:	49 f4       	brne	.+18     	; 0x640c <_Z7processPcc+0x262>
				model.setGpsModel(atoi(val));
    63fa:	c5 01       	movw	r24, r10
    63fc:	0e 94 63 45 	call	0x8ac6	; 0x8ac6 <atoi>
    6400:	bc 01       	movw	r22, r24
    6402:	8b e6       	ldi	r24, 0x6B	; 107
    6404:	90 e1       	ldi	r25, 0x10	; 16
    6406:	0e 94 86 2e 	call	0x5d0c	; 0x5d0c <_ZN14FreeBoardModel11setGpsModelEs>
    640a:	e7 c0       	rjmp	.+462    	; 0x65da <_Z7processPcc+0x430>
				save=true;
			} else if (strcpy(key, SERIAL_BAUD0) == 0) {
    640c:	61 e7       	ldi	r22, 0x71	; 113
    640e:	73 e0       	ldi	r23, 0x03	; 3
    6410:	ce 01       	movw	r24, r28
    6412:	01 96       	adiw	r24, 0x01	; 1
    6414:	0e 94 f3 45 	call	0x8be6	; 0x8be6 <strcpy>
    6418:	00 97       	sbiw	r24, 0x00	; 0
    641a:	69 f4       	brne	.+26     	; 0x6436 <_Z7processPcc+0x28c>
				model.setSerialBaud(atoi(val));
    641c:	c5 01       	movw	r24, r10
    641e:	0e 94 63 45 	call	0x8ac6	; 0x8ac6 <atoi>
    6422:	ac 01       	movw	r20, r24
    6424:	66 27       	eor	r22, r22
    6426:	57 fd       	sbrc	r21, 7
    6428:	60 95       	com	r22
    642a:	76 2f       	mov	r23, r22
    642c:	8b e6       	ldi	r24, 0x6B	; 107
    642e:	90 e1       	ldi	r25, 0x10	; 16
    6430:	0e 94 94 2e 	call	0x5d28	; 0x5d28 <_ZN14FreeBoardModel13setSerialBaudEl>
    6434:	d2 c0       	rjmp	.+420    	; 0x65da <_Z7processPcc+0x430>
				save=true;
			} else if (strcpy(key, SERIAL_BAUD1) == 0) {
    6436:	66 e7       	ldi	r22, 0x76	; 118
    6438:	73 e0       	ldi	r23, 0x03	; 3
    643a:	ce 01       	movw	r24, r28
    643c:	01 96       	adiw	r24, 0x01	; 1
    643e:	0e 94 f3 45 	call	0x8be6	; 0x8be6 <strcpy>
    6442:	00 97       	sbiw	r24, 0x00	; 0
    6444:	69 f4       	brne	.+26     	; 0x6460 <_Z7processPcc+0x2b6>
				model.setSerialBaud1(atoi(val));
    6446:	c5 01       	movw	r24, r10
    6448:	0e 94 63 45 	call	0x8ac6	; 0x8ac6 <atoi>
    644c:	ac 01       	movw	r20, r24
    644e:	66 27       	eor	r22, r22
    6450:	57 fd       	sbrc	r21, 7
    6452:	60 95       	com	r22
    6454:	76 2f       	mov	r23, r22
    6456:	8b e6       	ldi	r24, 0x6B	; 107
    6458:	90 e1       	ldi	r25, 0x10	; 16
    645a:	0e 94 a4 2e 	call	0x5d48	; 0x5d48 <_ZN14FreeBoardModel14setSerialBaud1El>
    645e:	bd c0       	rjmp	.+378    	; 0x65da <_Z7processPcc+0x430>
				save=true;
			} else if (strcpy(key, SERIAL_BAUD2) == 0) {
    6460:	6b e7       	ldi	r22, 0x7B	; 123
    6462:	73 e0       	ldi	r23, 0x03	; 3
    6464:	ce 01       	movw	r24, r28
    6466:	01 96       	adiw	r24, 0x01	; 1
    6468:	0e 94 f3 45 	call	0x8be6	; 0x8be6 <strcpy>
    646c:	00 97       	sbiw	r24, 0x00	; 0
    646e:	69 f4       	brne	.+26     	; 0x648a <_Z7processPcc+0x2e0>
				model.setSerialBaud2(atoi(val));
    6470:	c5 01       	movw	r24, r10
    6472:	0e 94 63 45 	call	0x8ac6	; 0x8ac6 <atoi>
    6476:	ac 01       	movw	r20, r24
    6478:	66 27       	eor	r22, r22
    647a:	57 fd       	sbrc	r21, 7
    647c:	60 95       	com	r22
    647e:	76 2f       	mov	r23, r22
    6480:	8b e6       	ldi	r24, 0x6B	; 107
    6482:	90 e1       	ldi	r25, 0x10	; 16
    6484:	0e 94 b4 2e 	call	0x5d68	; 0x5d68 <_ZN14FreeBoardModel14setSerialBaud2El>
    6488:	a8 c0       	rjmp	.+336    	; 0x65da <_Z7processPcc+0x430>
				save=true;
			} else if (strcpy(key, SERIAL_BAUD3) == 0) {
    648a:	60 e8       	ldi	r22, 0x80	; 128
    648c:	73 e0       	ldi	r23, 0x03	; 3
    648e:	ce 01       	movw	r24, r28
    6490:	01 96       	adiw	r24, 0x01	; 1
    6492:	0e 94 f3 45 	call	0x8be6	; 0x8be6 <strcpy>
    6496:	00 97       	sbiw	r24, 0x00	; 0
    6498:	69 f4       	brne	.+26     	; 0x64b4 <_Z7processPcc+0x30a>
				model.setSerialBaud3(atoi(val));
    649a:	c5 01       	movw	r24, r10
    649c:	0e 94 63 45 	call	0x8ac6	; 0x8ac6 <atoi>
    64a0:	ac 01       	movw	r20, r24
    64a2:	66 27       	eor	r22, r22
    64a4:	57 fd       	sbrc	r21, 7
    64a6:	60 95       	com	r22
    64a8:	76 2f       	mov	r23, r22
    64aa:	8b e6       	ldi	r24, 0x6B	; 107
    64ac:	90 e1       	ldi	r25, 0x10	; 16
    64ae:	0e 94 c4 2e 	call	0x5d88	; 0x5d88 <_ZN14FreeBoardModel14setSerialBaud3El>
    64b2:	93 c0       	rjmp	.+294    	; 0x65da <_Z7processPcc+0x430>
				save=true;
			} else if (strcpy(key, SEATALK) == 0) {
    64b4:	65 e8       	ldi	r22, 0x85	; 133
    64b6:	73 e0       	ldi	r23, 0x03	; 3
    64b8:	ce 01       	movw	r24, r28
    64ba:	01 96       	adiw	r24, 0x01	; 1
    64bc:	0e 94 f3 45 	call	0x8be6	; 0x8be6 <strcpy>
    64c0:	00 97       	sbiw	r24, 0x00	; 0
    64c2:	61 f4       	brne	.+24     	; 0x64dc <_Z7processPcc+0x332>
				model.setSeaTalk(atoi(val));
    64c4:	c5 01       	movw	r24, r10
    64c6:	0e 94 63 45 	call	0x8ac6	; 0x8ac6 <atoi>
    64ca:	61 e0       	ldi	r22, 0x01	; 1
    64cc:	89 2b       	or	r24, r25
    64ce:	09 f4       	brne	.+2      	; 0x64d2 <_Z7processPcc+0x328>
    64d0:	60 e0       	ldi	r22, 0x00	; 0
    64d2:	8b e6       	ldi	r24, 0x6B	; 107
    64d4:	90 e1       	ldi	r25, 0x10	; 16
    64d6:	0e 94 d1 2e 	call	0x5da2	; 0x5da2 <_ZN14FreeBoardModel10setSeaTalkEb>
    64da:	7f c0       	rjmp	.+254    	; 0x65da <_Z7processPcc+0x430>
    64dc:	92 01       	movw	r18, r4
    64de:	60 c0       	rjmp	.+192    	; 0x65a0 <_Z7processPcc+0x3f6>
    64e0:	8d b6       	in	r8, 0x3d	; 61
    64e2:	9e b6       	in	r9, 0x3e	; 62
				save=true;
			}
			if(save)model.saveConfig();

		} else {
			strncpy(key, cmd, 3);
    64e4:	43 e0       	ldi	r20, 0x03	; 3
    64e6:	50 e0       	ldi	r21, 0x00	; 0
    64e8:	b7 01       	movw	r22, r14
    64ea:	ce 01       	movw	r24, r28
    64ec:	01 96       	adiw	r24, 0x01	; 1
    64ee:	0e 94 08 46 	call	0x8c10	; 0x8c10 <strncpy>
			key[3] = '\0';
    64f2:	1c 82       	std	Y+4, r1	; 0x04
			char val[l - 3];
    64f4:	58 01       	movw	r10, r16
    64f6:	b4 e0       	ldi	r27, 0x04	; 4
    64f8:	ab 1a       	sub	r10, r27
    64fa:	b1 08       	sbc	r11, r1
    64fc:	68 01       	movw	r12, r16
    64fe:	e3 e0       	ldi	r30, 0x03	; 3
    6500:	ce 1a       	sub	r12, r30
    6502:	d1 08       	sbc	r13, r1
    6504:	8d b7       	in	r24, 0x3d	; 61
    6506:	9e b7       	in	r25, 0x3e	; 62
    6508:	8c 19       	sub	r24, r12
    650a:	9d 09       	sbc	r25, r13
    650c:	0f b6       	in	r0, 0x3f	; 63
    650e:	f8 94       	cli
    6510:	9e bf       	out	0x3e, r25	; 62
    6512:	0f be       	out	0x3f, r0	; 63
    6514:	8d bf       	out	0x3d, r24	; 61
    6516:	0d b7       	in	r16, 0x3d	; 61
    6518:	1e b7       	in	r17, 0x3e	; 62
    651a:	0f 5f       	subi	r16, 0xFF	; 255
    651c:	1f 4f       	sbci	r17, 0xFF	; 255
			memcpy(val, &cmd[4], l - 4);
    651e:	68 01       	movw	r12, r16
    6520:	94 e0       	ldi	r25, 0x04	; 4
    6522:	e9 0e       	add	r14, r25
    6524:	f1 1c       	adc	r15, r1
    6526:	a5 01       	movw	r20, r10
    6528:	b7 01       	movw	r22, r14
    652a:	c8 01       	movw	r24, r16
    652c:	0e 94 c4 45 	call	0x8b88	; 0x8b88 <memcpy>
			val[l - 4] = '\0';
    6530:	f8 01       	movw	r30, r16
    6532:	ea 0d       	add	r30, r10
    6534:	fb 1d       	adc	r31, r11
    6536:	10 82       	st	Z, r1
			//if (DEBUG) Serial.print(key);
			//if (DEBUG) Serial.print(" = ");
			//if (DEBUG) Serial.println(val);
			// incoming data = WST,WSA,WDT,WDA,WSU,LAT,LON,COG,MGH,SOG,YAW
			if (strcmp(key, MGH) == 0) {
    6538:	6a e8       	ldi	r22, 0x8A	; 138
    653a:	73 e0       	ldi	r23, 0x03	; 3
    653c:	ce 01       	movw	r24, r28
    653e:	01 96       	adiw	r24, 0x01	; 1
    6540:	0e 94 ea 45 	call	0x8bd4	; 0x8bd4 <strcmp>
    6544:	00 97       	sbiw	r24, 0x00	; 0
    6546:	49 f4       	brne	.+18     	; 0x655a <_Z7processPcc+0x3b0>
				model.setMagneticHeading(atof(val));
    6548:	c8 01       	movw	r24, r16
    654a:	0e 94 5f 45 	call	0x8abe	; 0x8abe <atof>
    654e:	ab 01       	movw	r20, r22
    6550:	bc 01       	movw	r22, r24
    6552:	8b e6       	ldi	r24, 0x6B	; 107
    6554:	90 e1       	ldi	r25, 0x10	; 16
    6556:	0e 94 0d 2e 	call	0x5c1a	; 0x5c1a <_ZN14FreeBoardModel18setMagneticHeadingEf>
			}
			if (strcmp(key, DECL) == 0) {
    655a:	6e e8       	ldi	r22, 0x8E	; 142
    655c:	73 e0       	ldi	r23, 0x03	; 3
    655e:	ce 01       	movw	r24, r28
    6560:	01 96       	adiw	r24, 0x01	; 1
    6562:	0e 94 ea 45 	call	0x8bd4	; 0x8bd4 <strcmp>
    6566:	00 97       	sbiw	r24, 0x00	; 0
    6568:	49 f4       	brne	.+18     	; 0x657c <_Z7processPcc+0x3d2>
				model.setDeclination(atof(val));
    656a:	c6 01       	movw	r24, r12
    656c:	0e 94 5f 45 	call	0x8abe	; 0x8abe <atof>
    6570:	ab 01       	movw	r20, r22
    6572:	bc 01       	movw	r22, r24
    6574:	8b e6       	ldi	r24, 0x6B	; 107
    6576:	90 e1       	ldi	r25, 0x10	; 16
    6578:	0e 94 13 2e 	call	0x5c26	; 0x5c26 <_ZN14FreeBoardModel14setDeclinationEf>
			}
			if (strcmp(key, WDT) == 0) {
    657c:	62 e9       	ldi	r22, 0x92	; 146
    657e:	73 e0       	ldi	r23, 0x03	; 3
    6580:	ce 01       	movw	r24, r28
    6582:	01 96       	adiw	r24, 0x01	; 1
    6584:	0e 94 ea 45 	call	0x8bd4	; 0x8bd4 <strcmp>
    6588:	00 97       	sbiw	r24, 0x00	; 0
    658a:	41 f4       	brne	.+16     	; 0x659c <_Z7processPcc+0x3f2>
				model.setWindTrueDir(atoi(val));
    658c:	c6 01       	movw	r24, r12
    658e:	0e 94 63 45 	call	0x8ac6	; 0x8ac6 <atoi>
    6592:	bc 01       	movw	r22, r24
    6594:	8b e6       	ldi	r24, 0x6B	; 107
    6596:	90 e1       	ldi	r25, 0x10	; 16
    6598:	0e 94 30 2e 	call	0x5c60	; 0x5c60 <_ZN14FreeBoardModel14setWindTrueDirEi>
    659c:	38 2d       	mov	r19, r8
    659e:	29 2d       	mov	r18, r9
    65a0:	83 2f       	mov	r24, r19
    65a2:	92 2f       	mov	r25, r18
    65a4:	0f b6       	in	r0, 0x3f	; 63
    65a6:	f8 94       	cli
    65a8:	9e bf       	out	0x3e, r25	; 62
    65aa:	0f be       	out	0x3f, r0	; 63
    65ac:	8d bf       	out	0x3d, r24	; 61
			}

		}
		//next token
		cmd = strtok(NULL, ",");
    65ae:	6d e0       	ldi	r22, 0x0D	; 13
    65b0:	75 e0       	ldi	r23, 0x05	; 5
    65b2:	80 e0       	ldi	r24, 0x00	; 0
    65b4:	90 e0       	ldi	r25, 0x00	; 0
    65b6:	0e 94 c0 45 	call	0x8b80	; 0x8b80 <strtok>
    65ba:	7c 01       	movw	r14, r24

void process(char * s, char parser) {
	//if (DEBUG) Serial.print("Process str:");
	//if (DEBUG) Serial.println(s);
	char *cmd = strtok(s, ",");
	while (cmd != NULL && strlen(cmd) > 3) {
    65bc:	00 97       	sbiw	r24, 0x00	; 0
    65be:	c1 f0       	breq	.+48     	; 0x65f0 <_Z7processPcc+0x446>
    65c0:	dc 01       	movw	r26, r24
    65c2:	0d 90       	ld	r0, X+
    65c4:	00 20       	and	r0, r0
    65c6:	e9 f7       	brne	.-6      	; 0x65c2 <_Z7processPcc+0x418>
    65c8:	8d 01       	movw	r16, r26
    65ca:	01 50       	subi	r16, 0x01	; 1
    65cc:	11 09       	sbc	r17, r1
    65ce:	08 1b       	sub	r16, r24
    65d0:	19 0b       	sbc	r17, r25
    65d2:	04 30       	cpi	r16, 0x04	; 4
    65d4:	11 05       	cpc	r17, r1
    65d6:	30 f4       	brcc	.+12     	; 0x65e4 <_Z7processPcc+0x43a>
    65d8:	0b c0       	rjmp	.+22     	; 0x65f0 <_Z7processPcc+0x446>
				save=true;
			} else if (strcpy(key, SEATALK) == 0) {
				model.setSeaTalk(atoi(val));
				save=true;
			}
			if(save)model.saveConfig();
    65da:	8b e6       	ldi	r24, 0x6B	; 107
    65dc:	90 e1       	ldi	r25, 0x10	; 16
    65de:	0e 94 45 2a 	call	0x548a	; 0x548a <_ZN14FreeBoardModel10saveConfigEv>
    65e2:	7c cf       	rjmp	.-264    	; 0x64dc <_Z7processPcc+0x332>
		//if (DEBUG) Serial.println(cmd);

		char key[5];
		int l = strlen(cmd);
		bool save=false;
		if (cmd[0] == '#') {
    65e4:	fc 01       	movw	r30, r24
    65e6:	80 81       	ld	r24, Z
    65e8:	83 32       	cpi	r24, 0x23	; 35
    65ea:	09 f0       	breq	.+2      	; 0x65ee <_Z7processPcc+0x444>
    65ec:	79 cf       	rjmp	.-270    	; 0x64e0 <_Z7processPcc+0x336>
    65ee:	f7 cd       	rjmp	.-1042   	; 0x61de <_Z7processPcc+0x34>
		}
		//next token
		cmd = strtok(NULL, ",");
	}
	//if (DEBUG) Serial.println("Process str exit");
}
    65f0:	0f b6       	in	r0, 0x3f	; 63
    65f2:	f8 94       	cli
    65f4:	7e be       	out	0x3e, r7	; 62
    65f6:	0f be       	out	0x3f, r0	; 63
    65f8:	6d be       	out	0x3d, r6	; 61
    65fa:	0f 90       	pop	r0
    65fc:	0f 90       	pop	r0
    65fe:	0f 90       	pop	r0
    6600:	0f 90       	pop	r0
    6602:	0f 90       	pop	r0
    6604:	df 91       	pop	r29
    6606:	cf 91       	pop	r28
    6608:	1f 91       	pop	r17
    660a:	0f 91       	pop	r16
    660c:	ff 90       	pop	r15
    660e:	ef 90       	pop	r14
    6610:	df 90       	pop	r13
    6612:	cf 90       	pop	r12
    6614:	bf 90       	pop	r11
    6616:	af 90       	pop	r10
    6618:	9f 90       	pop	r9
    661a:	8f 90       	pop	r8
    661c:	7f 90       	pop	r7
    661e:	6f 90       	pop	r6
    6620:	5f 90       	pop	r5
    6622:	4f 90       	pop	r4
    6624:	08 95       	ret

00006626 <_Z11serialEventv>:
 SerialEvent occurs whenever a new data comes in the
 hardware serial RX.  This routine is run between each
 time loop() runs, so using delay inside loop can delay
 response.  Multiple bytes of data may be available.
 */
void serialEvent() {
    6626:	cf 92       	push	r12
    6628:	df 92       	push	r13
    662a:	ef 92       	push	r14
    662c:	ff 92       	push	r15
    662e:	0f 93       	push	r16
    6630:	1f 93       	push	r17
    6632:	cf 93       	push	r28
    6634:	df 93       	push	r29
    6636:	cd b7       	in	r28, 0x3d	; 61
    6638:	de b7       	in	r29, 0x3e	; 62
			inputSerial = "";
			//inputSerialComplete = false;
		}

	}
}
    663a:	ed b6       	in	r14, 0x3d	; 61
    663c:	fe b6       	in	r15, 0x3e	; 62
 hardware serial RX.  This routine is run between each
 time loop() runs, so using delay inside loop can delay
 response.  Multiple bytes of data may be available.
 */
void serialEvent() {
	while (Serial.available()) {
    663e:	39 c0       	rjmp	.+114    	; 0x66b2 <_Z11serialEventv+0x8c>
		// get the new byte:
		char inChar = (char) Serial.read();
    6640:	8a ed       	ldi	r24, 0xDA	; 218
    6642:	96 e0       	ldi	r25, 0x06	; 6
    6644:	0e 94 ac 01 	call	0x358	; 0x358 <_ZN14HardwareSerial4readEv>
    6648:	18 2f       	mov	r17, r24
	
	// if there's not enough memory for the concatenated value, the string
	// will be left unchanged (but this isn't signalled in any way)
	String & operator += (const String &rhs)	{concat(rhs); return (*this);}
	String & operator += (const char *cstr)		{concat(cstr); return (*this);}
	String & operator += (char c)			{concat(c); return (*this);}
    664a:	68 2f       	mov	r22, r24
    664c:	8a e0       	ldi	r24, 0x0A	; 10
    664e:	9a e0       	ldi	r25, 0x0A	; 10
    6650:	0e 94 a7 0d 	call	0x1b4e	; 0x1b4e <_ZN6String6concatEc>
		// add it to the inputString:
		inputSerial += inChar;
		if (inChar == '\n') {
    6654:	1a 30       	cpi	r17, 0x0A	; 10
    6656:	69 f5       	brne	.+90     	; 0x66b2 <_Z11serialEventv+0x8c>
    6658:	cd b6       	in	r12, 0x3d	; 61
    665a:	de b6       	in	r13, 0x3e	; 62
			//inputSerialComplete = true;
			char carray[inputSerial.length() + 1]; //determine size of the array
    665c:	40 91 0e 0a 	lds	r20, 0x0A0E
    6660:	50 91 0f 0a 	lds	r21, 0x0A0F
    6664:	4f 5f       	subi	r20, 0xFF	; 255
    6666:	5f 4f       	sbci	r21, 0xFF	; 255
    6668:	8d b7       	in	r24, 0x3d	; 61
    666a:	9e b7       	in	r25, 0x3e	; 62
    666c:	84 1b       	sub	r24, r20
    666e:	95 0b       	sbc	r25, r21
    6670:	0f b6       	in	r0, 0x3f	; 63
    6672:	f8 94       	cli
    6674:	9e bf       	out	0x3e, r25	; 62
    6676:	0f be       	out	0x3f, r0	; 63
    6678:	8d bf       	out	0x3d, r24	; 61
    667a:	0d b7       	in	r16, 0x3d	; 61
    667c:	1e b7       	in	r17, 0x3e	; 62
    667e:	0f 5f       	subi	r16, 0xFF	; 255
    6680:	1f 4f       	sbci	r17, 0xFF	; 255
	void setCharAt(unsigned int index, char c);
	char operator [] (unsigned int index) const;
	char& operator [] (unsigned int index);
	void getBytes(unsigned char *buf, unsigned int bufsize, unsigned int index=0) const;
	void toCharArray(char *buf, unsigned int bufsize, unsigned int index=0) const
		{getBytes((unsigned char *)buf, bufsize, index);}
    6682:	20 e0       	ldi	r18, 0x00	; 0
    6684:	30 e0       	ldi	r19, 0x00	; 0
    6686:	b8 01       	movw	r22, r16
    6688:	8a e0       	ldi	r24, 0x0A	; 10
    668a:	9a e0       	ldi	r25, 0x0A	; 10
    668c:	0e 94 88 10 	call	0x2110	; 0x2110 <_ZNK6String8getBytesEPhjj>
			inputSerial.toCharArray(carray, sizeof(carray));
			process(carray, ',');
    6690:	6c e2       	ldi	r22, 0x2C	; 44
    6692:	c8 01       	movw	r24, r16
    6694:	0e 94 d5 30 	call	0x61aa	; 0x61aa <_Z7processPcc>
			inputSerial = "";
    6698:	6e e3       	ldi	r22, 0x3E	; 62
    669a:	74 e0       	ldi	r23, 0x04	; 4
    669c:	8a e0       	ldi	r24, 0x0A	; 10
    669e:	9a e0       	ldi	r25, 0x0A	; 10
    66a0:	0e 94 4c 0c 	call	0x1898	; 0x1898 <_ZN6StringaSEPKc>
    66a4:	8c 2d       	mov	r24, r12
    66a6:	9d 2d       	mov	r25, r13
    66a8:	0f b6       	in	r0, 0x3f	; 63
    66aa:	f8 94       	cli
    66ac:	9e bf       	out	0x3e, r25	; 62
    66ae:	0f be       	out	0x3f, r0	; 63
    66b0:	8d bf       	out	0x3d, r24	; 61
 hardware serial RX.  This routine is run between each
 time loop() runs, so using delay inside loop can delay
 response.  Multiple bytes of data may be available.
 */
void serialEvent() {
	while (Serial.available()) {
    66b2:	8a ed       	ldi	r24, 0xDA	; 218
    66b4:	96 e0       	ldi	r25, 0x06	; 6
    66b6:	0e 94 7d 01 	call	0x2fa	; 0x2fa <_ZN14HardwareSerial9availableEv>
    66ba:	89 2b       	or	r24, r25
    66bc:	09 f6       	brne	.-126    	; 0x6640 <_Z11serialEventv+0x1a>
			inputSerial = "";
			//inputSerialComplete = false;
		}

	}
}
    66be:	0f b6       	in	r0, 0x3f	; 63
    66c0:	f8 94       	cli
    66c2:	fe be       	out	0x3e, r15	; 62
    66c4:	0f be       	out	0x3f, r0	; 63
    66c6:	ed be       	out	0x3d, r14	; 61
    66c8:	df 91       	pop	r29
    66ca:	cf 91       	pop	r28
    66cc:	1f 91       	pop	r17
    66ce:	0f 91       	pop	r16
    66d0:	ff 90       	pop	r15
    66d2:	ef 90       	pop	r14
    66d4:	df 90       	pop	r13
    66d6:	cf 90       	pop	r12
    66d8:	08 95       	ret

000066da <_Z11getChecksumPc>:
	//if (DEBUG) Serial.println("Process str exit");
}

byte getChecksum(char* str){
	byte cs = 0; //clear any old checksum
	for (unsigned int n = 1; n < strlen(str) - 1; n++) {
    66da:	fc 01       	movw	r30, r24
    66dc:	01 90       	ld	r0, Z+
    66de:	00 20       	and	r0, r0
    66e0:	e9 f7       	brne	.-6      	; 0x66dc <_Z11getChecksumPc+0x2>
    66e2:	e8 1b       	sub	r30, r24
    66e4:	f9 0b       	sbc	r31, r25
    66e6:	32 97       	sbiw	r30, 0x02	; 2
		cmd = strtok(NULL, ",");
	}
	//if (DEBUG) Serial.println("Process str exit");
}

byte getChecksum(char* str){
    66e8:	dc 01       	movw	r26, r24
    66ea:	11 96       	adiw	r26, 0x01	; 1
	byte cs = 0; //clear any old checksum
    66ec:	40 e0       	ldi	r20, 0x00	; 0
	for (unsigned int n = 1; n < strlen(str) - 1; n++) {
    66ee:	02 c0       	rjmp	.+4      	; 0x66f4 <_Z11getChecksumPc+0x1a>
		cs ^= str[n]; //calculates the checksum
    66f0:	2d 91       	ld	r18, X+
    66f2:	42 27       	eor	r20, r18
	//if (DEBUG) Serial.println("Process str exit");
}

byte getChecksum(char* str){
	byte cs = 0; //clear any old checksum
	for (unsigned int n = 1; n < strlen(str) - 1; n++) {
    66f4:	9d 01       	movw	r18, r26
    66f6:	28 1b       	sub	r18, r24
    66f8:	39 0b       	sbc	r19, r25
    66fa:	2e 17       	cp	r18, r30
    66fc:	3f 07       	cpc	r19, r31
    66fe:	c0 f3       	brcs	.-16     	; 0x66f0 <_Z11getChecksumPc+0x16>
		cs ^= str[n]; //calculates the checksum
	}
	return cs;
}
    6700:	84 2f       	mov	r24, r20
    6702:	08 95       	ret

00006704 <_GLOBAL__sub_I_execute>:
int inByteSerial3;
char input;
//volatile int intCnt = 0;

//freeboard model
FreeBoardModel model;
    6704:	8b e6       	ldi	r24, 0x6B	; 107
    6706:	90 e1       	ldi	r25, 0x10	; 16
    6708:	0e 94 cb 28 	call	0x5196	; 0x5196 <_ZN14FreeBoardModelC1Ev>
    size_t printNumber(unsigned long, uint8_t);
    size_t printFloat(double, uint8_t);
  protected:
    void setWriteError(int err = 1) { write_error = err; }
  public:
    Print() : write_error(0) {}
    670c:	10 92 2d 10 	sts	0x102D, r1
    6710:	10 92 2c 10 	sts	0x102C, r1
    virtual int available() = 0;
    virtual int read() = 0;
    virtual int peek() = 0;
    virtual void flush() = 0;

    Stream() {_timeout=1000;}
    6714:	88 ee       	ldi	r24, 0xE8	; 232
    6716:	93 e0       	ldi	r25, 0x03	; 3
    6718:	a0 e0       	ldi	r26, 0x00	; 0
    671a:	b0 e0       	ldi	r27, 0x00	; 0
    671c:	80 93 2e 10 	sts	0x102E, r24
    6720:	90 93 2f 10 	sts	0x102F, r25
    6724:	a0 93 30 10 	sts	0x1030, r26
    6728:	b0 93 31 10 	sts	0x1031, r27
#include "FreeBoardModel.h"
#include "FreeBoardPLC.h"

class NmeaSerial: AltSoftSerial {
public:
	NmeaSerial(FreeBoardModel* model):model(model){};
    672c:	80 e9       	ldi	r24, 0x90	; 144
    672e:	95 e0       	ldi	r25, 0x05	; 5
    6730:	90 93 2b 10 	sts	0x102B, r25
    6734:	80 93 2a 10 	sts	0x102A, r24
    6738:	8b e6       	ldi	r24, 0x6B	; 107
    673a:	90 e1       	ldi	r25, 0x10	; 16
    673c:	90 93 37 10 	sts	0x1037, r25
    6740:	80 93 36 10 	sts	0x1036, r24
// See http://forums.parallax.com/forums/default.aspx?f=19&m=50925
// See http://www.avrfreaks.net/index.php?name=PNphpBB2&file=printview&t=63469&start=0
NmeaSerial nmea(&model);

//NMEA ports
NMEA gpsSource(ALL);
    6744:	60 e0       	ldi	r22, 0x00	; 0
    6746:	70 e0       	ldi	r23, 0x00	; 0
    6748:	81 ec       	ldi	r24, 0xC1	; 193
    674a:	9e e0       	ldi	r25, 0x0E	; 14
    674c:	0e 94 b2 1b 	call	0x3764	; 0x3764 <_ZN4NMEAC1Ei>
NMEA talker0(ALL);
    6750:	60 e0       	ldi	r22, 0x00	; 0
    6752:	70 e0       	ldi	r23, 0x00	; 0
    6754:	88 e5       	ldi	r24, 0x58	; 88
    6756:	9d e0       	ldi	r25, 0x0D	; 13
    6758:	0e 94 b2 1b 	call	0x3764	; 0x3764 <_ZN4NMEAC1Ei>
NMEA talker2(ALL);
    675c:	60 e0       	ldi	r22, 0x00	; 0
    675e:	70 e0       	ldi	r23, 0x00	; 0
    6760:	8f ee       	ldi	r24, 0xEF	; 239
    6762:	9b e0       	ldi	r25, 0x0B	; 11
    6764:	0e 94 b2 1b 	call	0x3764	; 0x3764 <_ZN4NMEAC1Ei>
NMEA talker3(ALL);
    6768:	60 e0       	ldi	r22, 0x00	; 0
    676a:	70 e0       	ldi	r23, 0x00	; 0
    676c:	86 e8       	ldi	r24, 0x86	; 134
    676e:	9a e0       	ldi	r25, 0x0A	; 10
    6770:	0e 94 b2 1b 	call	0x3764	; 0x3764 <_ZN4NMEAC1Ei>

//alarm
Alarm alarm(&model);
    6774:	6b e6       	ldi	r22, 0x6B	; 107
    6776:	70 e1       	ldi	r23, 0x10	; 16
    6778:	81 e8       	ldi	r24, 0x81	; 129
    677a:	9a e0       	ldi	r25, 0x0A	; 10
    677c:	0e 94 3e 23 	call	0x467c	; 0x467c <_ZN5AlarmC1EP14FreeBoardModel>

//wind
Wind wind(&model);
    6780:	6b e6       	ldi	r22, 0x6B	; 107
    6782:	70 e1       	ldi	r23, 0x10	; 16
    6784:	8f e7       	ldi	r24, 0x7F	; 127
    6786:	9a e0       	ldi	r25, 0x0A	; 10
    6788:	0e 94 40 39 	call	0x7280	; 0x7280 <_ZN4WindC1EP14FreeBoardModel>

//Gps
Gps gps(&gpsSource, &model);
    678c:	4b e6       	ldi	r20, 0x6B	; 107
    678e:	50 e1       	ldi	r21, 0x10	; 16
    6790:	61 ec       	ldi	r22, 0xC1	; 193
    6792:	7e e0       	ldi	r23, 0x0E	; 14
    6794:	89 e7       	ldi	r24, 0x79	; 121
    6796:	9a e0       	ldi	r25, 0x0A	; 10
    6798:	0e 94 0d 34 	call	0x681a	; 0x681a <_ZN3GpsC1EP4NMEAP14FreeBoardModel>

//Autopilot
Autopilot autopilot(&model);
    679c:	6b e6       	ldi	r22, 0x6B	; 107
    679e:	70 e1       	ldi	r23, 0x10	; 16
    67a0:	8f e2       	ldi	r24, 0x2F	; 47
    67a2:	9a e0       	ldi	r25, 0x0A	; 10
    67a4:	0e 94 23 27 	call	0x4e46	; 0x4e46 <_ZN9AutopilotC1EP14FreeBoardModel>

//Anchor
Anchor anchor(&model);
    67a8:	6b e6       	ldi	r22, 0x6B	; 107
    67aa:	70 e1       	ldi	r23, 0x10	; 16
    67ac:	8b e2       	ldi	r24, 0x2B	; 43
    67ae:	9a e0       	ldi	r25, 0x0A	; 10
    67b0:	0e 94 d9 25 	call	0x4bb2	; 0x4bb2 <_ZN6AnchorC1EP14FreeBoardModel>

Seatalk seatalk(&Serial2, &model);
    67b4:	4b e6       	ldi	r20, 0x6B	; 107
    67b6:	50 e1       	ldi	r21, 0x10	; 16
    67b8:	66 e9       	ldi	r22, 0x96	; 150
    67ba:	76 e0       	ldi	r23, 0x06	; 6
    67bc:	81 e1       	ldi	r24, 0x11	; 17
    67be:	9a e0       	ldi	r25, 0x0A	; 10
    67c0:	0e 94 27 39 	call	0x724e	; 0x724e <_ZN7SeatalkC1EP14HardwareSerialP14FreeBoardModel>

String inputSerial = ""; // a string to hold incoming data
    67c4:	6e e3       	ldi	r22, 0x3E	; 62
    67c6:	74 e0       	ldi	r23, 0x04	; 4
    67c8:	8a e0       	ldi	r24, 0x0A	; 10
    67ca:	9a e0       	ldi	r25, 0x0A	; 10
    67cc:	0c 94 0e 0c 	jmp	0x181c	; 0x181c <_ZN6StringC1EPKc>

000067d0 <_GLOBAL__sub_D_execute>:
    67d0:	8a e0       	ldi	r24, 0x0A	; 10
    67d2:	9a e0       	ldi	r25, 0x0A	; 10
    67d4:	0e 94 9d 0b 	call	0x173a	; 0x173a <_ZN6StringD1Ev>

//Autopilot
Autopilot autopilot(&model);

//Anchor
Anchor anchor(&model);
    67d8:	8b e2       	ldi	r24, 0x2B	; 43
    67da:	9a e0       	ldi	r25, 0x0A	; 10
    67dc:	0e 94 17 24 	call	0x482e	; 0x482e <_ZN6AnchorD1Ev>

//Gps
Gps gps(&gpsSource, &model);

//Autopilot
Autopilot autopilot(&model);
    67e0:	8f e2       	ldi	r24, 0x2F	; 47
    67e2:	9a e0       	ldi	r25, 0x0A	; 10
    67e4:	0e 94 c8 27 	call	0x4f90	; 0x4f90 <_ZN9AutopilotD1Ev>

//wind
Wind wind(&model);

//Gps
Gps gps(&gpsSource, &model);
    67e8:	89 e7       	ldi	r24, 0x79	; 121
    67ea:	9a e0       	ldi	r25, 0x0A	; 10
    67ec:	0e 94 00 34 	call	0x6800	; 0x6800 <_ZN3GpsD1Ev>
NMEA talker0(ALL);
NMEA talker2(ALL);
NMEA talker3(ALL);

//alarm
Alarm alarm(&model);
    67f0:	81 e8       	ldi	r24, 0x81	; 129
    67f2:	9a e0       	ldi	r25, 0x0A	; 10
    67f4:	0e 94 31 23 	call	0x4662	; 0x4662 <_ZN5AlarmD1Ev>

//NMEA output - The arduino puts out TTL, NMEA is RS232. They are different V and amps. The +-5V levels may need inverting or you get
// garbage.
// See http://forums.parallax.com/forums/default.aspx?f=19&m=50925
// See http://www.avrfreaks.net/index.php?name=PNphpBB2&file=printview&t=63469&start=0
NmeaSerial nmea(&model);
    67f8:	8a e2       	ldi	r24, 0x2A	; 42
    67fa:	90 e1       	ldi	r25, 0x10	; 16
    67fc:	0c 94 df 37 	jmp	0x6fbe	; 0x6fbe <_ZN10NmeaSerialD1Ev>

00006800 <_ZN3GpsD1Ev>:
 */
#include "Gps.h"
char gpsBuffer[40];
PString gpsStr(gpsBuffer, sizeof(gpsBuffer));

Gps::~Gps() {
    6800:	28 e6       	ldi	r18, 0x68	; 104
    6802:	35 e0       	ldi	r19, 0x05	; 5
    6804:	fc 01       	movw	r30, r24
    6806:	31 83       	std	Z+1, r19	; 0x01
    6808:	20 83       	st	Z, r18
    680a:	08 95       	ret

0000680c <_ZN3GpsD0Ev>:
    680c:	28 e6       	ldi	r18, 0x68	; 104
    680e:	35 e0       	ldi	r19, 0x05	; 5
    6810:	fc 01       	movw	r30, r24
    6812:	31 83       	std	Z+1, r19	; 0x01
    6814:	20 83       	st	Z, r18
}
    6816:	0c 94 89 15 	jmp	0x2b12	; 0x2b12 <_ZdlPv>

0000681a <_ZN3GpsC1EP4NMEAP14FreeBoardModel>:
Gps::Gps(NMEA* gpsSource, FreeBoardModel* model) {
    681a:	fc 01       	movw	r30, r24
    681c:	88 e6       	ldi	r24, 0x68	; 104
    681e:	95 e0       	ldi	r25, 0x05	; 5
    6820:	91 83       	std	Z+1, r25	; 0x01
    6822:	80 83       	st	Z, r24

	this->model = model;
    6824:	55 83       	std	Z+5, r21	; 0x05
    6826:	44 83       	std	Z+4, r20	; 0x04
	this->gpsSource = gpsSource;
    6828:	73 83       	std	Z+3, r23	; 0x03
    682a:	62 83       	std	Z+2, r22	; 0x02
    682c:	08 95       	ret

0000682e <_ZN3Gps7testMsgEv>:
	//setupGps();
}

bool Gps::testMsg() {
    682e:	cf 92       	push	r12
    6830:	df 92       	push	r13
    6832:	ef 92       	push	r14
    6834:	ff 92       	push	r15
    6836:	cf 93       	push	r28
    6838:	df 93       	push	r29
	//clear buffer of rubbish
	int x = 0;
	while (x < 100) {
    683a:	c5 e6       	ldi	r28, 0x65	; 101
    683c:	d0 e0       	ldi	r29, 0x00	; 0
    683e:	0a c0       	rjmp	.+20     	; 0x6854 <_ZN3Gps7testMsgEv+0x26>
		if (Serial1.available()) {
    6840:	88 eb       	ldi	r24, 0xB8	; 184
    6842:	96 e0       	ldi	r25, 0x06	; 6
    6844:	0e 94 7d 01 	call	0x2fa	; 0x2fa <_ZN14HardwareSerial9availableEv>
    6848:	89 2b       	or	r24, r25
    684a:	d1 f3       	breq	.-12     	; 0x6840 <_ZN3Gps7testMsgEv+0x12>
			Serial1.read();
    684c:	88 eb       	ldi	r24, 0xB8	; 184
    684e:	96 e0       	ldi	r25, 0x06	; 6
    6850:	0e 94 ac 01 	call	0x358	; 0x358 <_ZN14HardwareSerial4readEv>
    6854:	21 97       	sbiw	r28, 0x01	; 1
}

bool Gps::testMsg() {
	//clear buffer of rubbish
	int x = 0;
	while (x < 100) {
    6856:	a1 f7       	brne	.-24     	; 0x6840 <_ZN3Gps7testMsgEv+0x12>
			Serial1.read();
			x++;
		}
	}
	//5 secs
	unsigned long now = millis();
    6858:	0e 94 e7 15 	call	0x2bce	; 0x2bce <millis>
    685c:	6b 01       	movw	r12, r22
    685e:	7c 01       	movw	r14, r24
	bool valid = true;
    6860:	c1 e0       	ldi	r28, 0x01	; 1
	while (now + 5000 > millis() && valid) {
    6862:	88 e8       	ldi	r24, 0x88	; 136
    6864:	c8 0e       	add	r12, r24
    6866:	83 e1       	ldi	r24, 0x13	; 19
    6868:	d8 1e       	adc	r13, r24
    686a:	e1 1c       	adc	r14, r1
    686c:	f1 1c       	adc	r15, r1
    686e:	09 c0       	rjmp	.+18     	; 0x6882 <_ZN3Gps7testMsgEv+0x54>
		if (Serial1.available()) {
			int c = Serial1.read();
    6870:	88 eb       	ldi	r24, 0xB8	; 184
    6872:	96 e0       	ldi	r25, 0x06	; 6
    6874:	0e 94 ac 01 	call	0x358	; 0x358 <_ZN14HardwareSerial4readEv>
			//Serial.print(c);
			//Serial.print(",");
			//not Cntrl-n or printable so invalid
			if (c > 128) valid = false;
    6878:	c1 e0       	ldi	r28, 0x01	; 1
    687a:	81 38       	cpi	r24, 0x81	; 129
    687c:	91 05       	cpc	r25, r1
    687e:	0c f0       	brlt	.+2      	; 0x6882 <_ZN3Gps7testMsgEv+0x54>
    6880:	c0 e0       	ldi	r28, 0x00	; 0
		}
	}
	//5 secs
	unsigned long now = millis();
	bool valid = true;
	while (now + 5000 > millis() && valid) {
    6882:	0e 94 e7 15 	call	0x2bce	; 0x2bce <millis>
    6886:	6c 15       	cp	r22, r12
    6888:	7d 05       	cpc	r23, r13
    688a:	8e 05       	cpc	r24, r14
    688c:	9f 05       	cpc	r25, r15
    688e:	18 f4       	brcc	.+6      	; 0x6896 <_ZN3Gps7testMsgEv+0x68>
    6890:	c1 11       	cpse	r28, r1
    6892:	12 c0       	rjmp	.+36     	; 0x68b8 <_ZN3Gps7testMsgEv+0x8a>
    6894:	09 c0       	rjmp	.+18     	; 0x68a8 <_ZN3Gps7testMsgEv+0x7a>
			//not Cntrl-n or printable so invalid
			if (c > 128) valid = false;
		}
	}
	if (DEBUG) {
		if (valid)
    6896:	cc 23       	and	r28, r28
    6898:	39 f0       	breq	.+14     	; 0x68a8 <_ZN3Gps7testMsgEv+0x7a>
			Serial.println("OK");
    689a:	66 e9       	ldi	r22, 0x96	; 150
    689c:	73 e0       	ldi	r23, 0x03	; 3
    689e:	8a ed       	ldi	r24, 0xDA	; 218
    68a0:	96 e0       	ldi	r25, 0x06	; 6
    68a2:	0e 94 ea 06 	call	0xdd4	; 0xdd4 <_ZN5Print7printlnEPKc>
    68a6:	0f c0       	rjmp	.+30     	; 0x68c6 <_ZN3Gps7testMsgEv+0x98>
		else
			Serial.println("FAIL");
    68a8:	69 e9       	ldi	r22, 0x99	; 153
    68aa:	73 e0       	ldi	r23, 0x03	; 3
    68ac:	8a ed       	ldi	r24, 0xDA	; 218
    68ae:	96 e0       	ldi	r25, 0x06	; 6
    68b0:	0e 94 ea 06 	call	0xdd4	; 0xdd4 <_ZN5Print7printlnEPKc>
    68b4:	c0 e0       	ldi	r28, 0x00	; 0
    68b6:	07 c0       	rjmp	.+14     	; 0x68c6 <_ZN3Gps7testMsgEv+0x98>
	}
	//5 secs
	unsigned long now = millis();
	bool valid = true;
	while (now + 5000 > millis() && valid) {
		if (Serial1.available()) {
    68b8:	88 eb       	ldi	r24, 0xB8	; 184
    68ba:	96 e0       	ldi	r25, 0x06	; 6
    68bc:	0e 94 7d 01 	call	0x2fa	; 0x2fa <_ZN14HardwareSerial9availableEv>
    68c0:	89 2b       	or	r24, r25
    68c2:	f9 f2       	breq	.-66     	; 0x6882 <_ZN3Gps7testMsgEv+0x54>
    68c4:	d5 cf       	rjmp	.-86     	; 0x6870 <_ZN3Gps7testMsgEv+0x42>
			Serial.println("OK");
		else
			Serial.println("FAIL");
	}
	return valid;
}
    68c6:	8c 2f       	mov	r24, r28
    68c8:	df 91       	pop	r29
    68ca:	cf 91       	pop	r28
    68cc:	ff 90       	pop	r15
    68ce:	ef 90       	pop	r14
    68d0:	df 90       	pop	r13
    68d2:	cf 90       	pop	r12
    68d4:	08 95       	ret

000068d6 <_ZN3Gps8autoBaudEv>:


int Gps::autoBaud() {
    68d6:	cf 93       	push	r28
    68d8:	df 93       	push	r29
    68da:	ec 01       	movw	r28, r24
	//try the various baud rates until one makes sense
	//should only output simple NMEA [$A-Z0-9*\r\c]
	//start with saved default
	if (DEBUG){
		Serial.print("   try autobaud ");
    68dc:	6e e9       	ldi	r22, 0x9E	; 158
    68de:	73 e0       	ldi	r23, 0x03	; 3
    68e0:	8a ed       	ldi	r24, 0xDA	; 218
    68e2:	96 e0       	ldi	r25, 0x06	; 6
    68e4:	0e 94 99 06 	call	0xd32	; 0xd32 <_ZN5Print5printEPKc>
		Serial.print(model->getSerialBaud1());
    68e8:	8c 81       	ldd	r24, Y+4	; 0x04
    68ea:	9d 81       	ldd	r25, Y+5	; 0x05
    68ec:	0e 94 9c 2e 	call	0x5d38	; 0x5d38 <_ZN14FreeBoardModel14getSerialBaud1Ev>
    68f0:	ab 01       	movw	r20, r22
    68f2:	bc 01       	movw	r22, r24
    68f4:	2a e0       	ldi	r18, 0x0A	; 10
    68f6:	30 e0       	ldi	r19, 0x00	; 0
    68f8:	8a ed       	ldi	r24, 0xDA	; 218
    68fa:	96 e0       	ldi	r25, 0x06	; 6
    68fc:	0e 94 e1 07 	call	0xfc2	; 0xfc2 <_ZN5Print5printEli>
		Serial.println("..");
    6900:	64 e5       	ldi	r22, 0x54	; 84
    6902:	74 e0       	ldi	r23, 0x04	; 4
    6904:	8a ed       	ldi	r24, 0xDA	; 218
    6906:	96 e0       	ldi	r25, 0x06	; 6
    6908:	0e 94 ea 06 	call	0xdd4	; 0xdd4 <_ZN5Print7printlnEPKc>

	//Serial1.begin(model->getSerialBaud1());
	//if (testMsg()) return model->getSerialBaud1();
	//Serial1.end();

	if (DEBUG) Serial.println("   try autobaud 4800..");
    690c:	6f ea       	ldi	r22, 0xAF	; 175
    690e:	73 e0       	ldi	r23, 0x03	; 3
    6910:	8a ed       	ldi	r24, 0xDA	; 218
    6912:	96 e0       	ldi	r25, 0x06	; 6
    6914:	0e 94 ea 06 	call	0xdd4	; 0xdd4 <_ZN5Print7printlnEPKc>
	Serial1.begin(4800);
    6918:	40 ec       	ldi	r20, 0xC0	; 192
    691a:	52 e1       	ldi	r21, 0x12	; 18
    691c:	60 e0       	ldi	r22, 0x00	; 0
    691e:	70 e0       	ldi	r23, 0x00	; 0
    6920:	88 eb       	ldi	r24, 0xB8	; 184
    6922:	96 e0       	ldi	r25, 0x06	; 6
    6924:	0e 94 a8 04 	call	0x950	; 0x950 <_ZN14HardwareSerial5beginEm>
	if (testMsg()) return 4800;
    6928:	ce 01       	movw	r24, r28
    692a:	0e 94 17 34 	call	0x682e	; 0x682e <_ZN3Gps7testMsgEv>
    692e:	81 11       	cpse	r24, r1
    6930:	66 c0       	rjmp	.+204    	; 0x69fe <_ZN3Gps8autoBaudEv+0x128>
	Serial1.end();
    6932:	88 eb       	ldi	r24, 0xB8	; 184
    6934:	96 e0       	ldi	r25, 0x06	; 6
    6936:	0e 94 c1 05 	call	0xb82	; 0xb82 <_ZN14HardwareSerial3endEv>
	if (DEBUG) Serial.println("   try autobaud 9600..");
    693a:	66 ec       	ldi	r22, 0xC6	; 198
    693c:	73 e0       	ldi	r23, 0x03	; 3
    693e:	8a ed       	ldi	r24, 0xDA	; 218
    6940:	96 e0       	ldi	r25, 0x06	; 6
    6942:	0e 94 ea 06 	call	0xdd4	; 0xdd4 <_ZN5Print7printlnEPKc>
	Serial1.begin(9600);
    6946:	40 e8       	ldi	r20, 0x80	; 128
    6948:	55 e2       	ldi	r21, 0x25	; 37
    694a:	60 e0       	ldi	r22, 0x00	; 0
    694c:	70 e0       	ldi	r23, 0x00	; 0
    694e:	88 eb       	ldi	r24, 0xB8	; 184
    6950:	96 e0       	ldi	r25, 0x06	; 6
    6952:	0e 94 a8 04 	call	0x950	; 0x950 <_ZN14HardwareSerial5beginEm>
	if (testMsg()) return 9600;
    6956:	ce 01       	movw	r24, r28
    6958:	0e 94 17 34 	call	0x682e	; 0x682e <_ZN3Gps7testMsgEv>
    695c:	81 11       	cpse	r24, r1
    695e:	52 c0       	rjmp	.+164    	; 0x6a04 <_ZN3Gps8autoBaudEv+0x12e>
	Serial1.end();
    6960:	88 eb       	ldi	r24, 0xB8	; 184
    6962:	96 e0       	ldi	r25, 0x06	; 6
    6964:	0e 94 c1 05 	call	0xb82	; 0xb82 <_ZN14HardwareSerial3endEv>
	if (DEBUG) Serial.println("   try autobaud 19200..");
    6968:	6d ed       	ldi	r22, 0xDD	; 221
    696a:	73 e0       	ldi	r23, 0x03	; 3
    696c:	8a ed       	ldi	r24, 0xDA	; 218
    696e:	96 e0       	ldi	r25, 0x06	; 6
    6970:	0e 94 ea 06 	call	0xdd4	; 0xdd4 <_ZN5Print7printlnEPKc>
	Serial1.begin(19200);
    6974:	40 e0       	ldi	r20, 0x00	; 0
    6976:	5b e4       	ldi	r21, 0x4B	; 75
    6978:	60 e0       	ldi	r22, 0x00	; 0
    697a:	70 e0       	ldi	r23, 0x00	; 0
    697c:	88 eb       	ldi	r24, 0xB8	; 184
    697e:	96 e0       	ldi	r25, 0x06	; 6
    6980:	0e 94 a8 04 	call	0x950	; 0x950 <_ZN14HardwareSerial5beginEm>
	if (testMsg()) return 19200;
    6984:	ce 01       	movw	r24, r28
    6986:	0e 94 17 34 	call	0x682e	; 0x682e <_ZN3Gps7testMsgEv>
    698a:	81 11       	cpse	r24, r1
    698c:	3e c0       	rjmp	.+124    	; 0x6a0a <_ZN3Gps8autoBaudEv+0x134>
	Serial1.end();
    698e:	88 eb       	ldi	r24, 0xB8	; 184
    6990:	96 e0       	ldi	r25, 0x06	; 6
    6992:	0e 94 c1 05 	call	0xb82	; 0xb82 <_ZN14HardwareSerial3endEv>
	if (DEBUG) Serial.println("   try autobaud 38400..");
    6996:	65 ef       	ldi	r22, 0xF5	; 245
    6998:	73 e0       	ldi	r23, 0x03	; 3
    699a:	8a ed       	ldi	r24, 0xDA	; 218
    699c:	96 e0       	ldi	r25, 0x06	; 6
    699e:	0e 94 ea 06 	call	0xdd4	; 0xdd4 <_ZN5Print7printlnEPKc>
	Serial1.begin(38400);
    69a2:	40 e0       	ldi	r20, 0x00	; 0
    69a4:	56 e9       	ldi	r21, 0x96	; 150
    69a6:	60 e0       	ldi	r22, 0x00	; 0
    69a8:	70 e0       	ldi	r23, 0x00	; 0
    69aa:	88 eb       	ldi	r24, 0xB8	; 184
    69ac:	96 e0       	ldi	r25, 0x06	; 6
    69ae:	0e 94 a8 04 	call	0x950	; 0x950 <_ZN14HardwareSerial5beginEm>
	if (testMsg()) return 38400;
    69b2:	ce 01       	movw	r24, r28
    69b4:	0e 94 17 34 	call	0x682e	; 0x682e <_ZN3Gps7testMsgEv>
    69b8:	81 11       	cpse	r24, r1
    69ba:	2a c0       	rjmp	.+84     	; 0x6a10 <_ZN3Gps8autoBaudEv+0x13a>
	Serial1.end();
    69bc:	88 eb       	ldi	r24, 0xB8	; 184
    69be:	96 e0       	ldi	r25, 0x06	; 6
    69c0:	0e 94 c1 05 	call	0xb82	; 0xb82 <_ZN14HardwareSerial3endEv>
	if (DEBUG) Serial.println("   try autobaud 57600..");
    69c4:	6d e0       	ldi	r22, 0x0D	; 13
    69c6:	74 e0       	ldi	r23, 0x04	; 4
    69c8:	8a ed       	ldi	r24, 0xDA	; 218
    69ca:	96 e0       	ldi	r25, 0x06	; 6
    69cc:	0e 94 ea 06 	call	0xdd4	; 0xdd4 <_ZN5Print7printlnEPKc>
	Serial1.begin(57600);
    69d0:	40 e0       	ldi	r20, 0x00	; 0
    69d2:	51 ee       	ldi	r21, 0xE1	; 225
    69d4:	60 e0       	ldi	r22, 0x00	; 0
    69d6:	70 e0       	ldi	r23, 0x00	; 0
    69d8:	88 eb       	ldi	r24, 0xB8	; 184
    69da:	96 e0       	ldi	r25, 0x06	; 6
    69dc:	0e 94 a8 04 	call	0x950	; 0x950 <_ZN14HardwareSerial5beginEm>
	if (testMsg()) return 57600;
    69e0:	ce 01       	movw	r24, r28
    69e2:	0e 94 17 34 	call	0x682e	; 0x682e <_ZN3Gps7testMsgEv>
    69e6:	81 11       	cpse	r24, r1
    69e8:	16 c0       	rjmp	.+44     	; 0x6a16 <_ZN3Gps8autoBaudEv+0x140>
	Serial1.end();
    69ea:	88 eb       	ldi	r24, 0xB8	; 184
    69ec:	96 e0       	ldi	r25, 0x06	; 6
    69ee:	0e 94 c1 05 	call	0xb82	; 0xb82 <_ZN14HardwareSerial3endEv>
	if (DEBUG) Serial.println("   default to 4800..");
    69f2:	65 e2       	ldi	r22, 0x25	; 37
    69f4:	74 e0       	ldi	r23, 0x04	; 4
    69f6:	8a ed       	ldi	r24, 0xDA	; 218
    69f8:	96 e0       	ldi	r25, 0x06	; 6
    69fa:	0e 94 ea 06 	call	0xdd4	; 0xdd4 <_ZN5Print7printlnEPKc>
	//if (testMsg()) return model->getSerialBaud1();
	//Serial1.end();

	if (DEBUG) Serial.println("   try autobaud 4800..");
	Serial1.begin(4800);
	if (testMsg()) return 4800;
    69fe:	20 ec       	ldi	r18, 0xC0	; 192
    6a00:	32 e1       	ldi	r19, 0x12	; 18
    6a02:	0b c0       	rjmp	.+22     	; 0x6a1a <_ZN3Gps8autoBaudEv+0x144>
	Serial1.end();
	if (DEBUG) Serial.println("   try autobaud 9600..");
	Serial1.begin(9600);
	if (testMsg()) return 9600;
    6a04:	20 e8       	ldi	r18, 0x80	; 128
    6a06:	35 e2       	ldi	r19, 0x25	; 37
    6a08:	08 c0       	rjmp	.+16     	; 0x6a1a <_ZN3Gps8autoBaudEv+0x144>
	Serial1.end();
	if (DEBUG) Serial.println("   try autobaud 19200..");
	Serial1.begin(19200);
	if (testMsg()) return 19200;
    6a0a:	20 e0       	ldi	r18, 0x00	; 0
    6a0c:	3b e4       	ldi	r19, 0x4B	; 75
    6a0e:	05 c0       	rjmp	.+10     	; 0x6a1a <_ZN3Gps8autoBaudEv+0x144>
	Serial1.end();
	if (DEBUG) Serial.println("   try autobaud 38400..");
	Serial1.begin(38400);
	if (testMsg()) return 38400;
    6a10:	20 e0       	ldi	r18, 0x00	; 0
    6a12:	36 e9       	ldi	r19, 0x96	; 150
    6a14:	02 c0       	rjmp	.+4      	; 0x6a1a <_ZN3Gps8autoBaudEv+0x144>
	Serial1.end();
	if (DEBUG) Serial.println("   try autobaud 57600..");
	Serial1.begin(57600);
	if (testMsg()) return 57600;
    6a16:	20 e0       	ldi	r18, 0x00	; 0
    6a18:	31 ee       	ldi	r19, 0xE1	; 225
	Serial1.end();
	if (DEBUG) Serial.println("   default to 4800..");
	return 4800;
}
    6a1a:	c9 01       	movw	r24, r18
    6a1c:	df 91       	pop	r29
    6a1e:	cf 91       	pop	r28
    6a20:	08 95       	ret

00006a22 <_ZN3Gps11getMetersToEffff>:
	Serial1.end();
	Serial1.begin(model->getSerialBaud1(), SERIAL_8N1);
	//Serial1.begin(38400, SERIAL_8N1);
}

float Gps::getMetersTo(float targetLat, float targetLon, float currentLat, float currentLon) {
    6a22:	2f 92       	push	r2
    6a24:	3f 92       	push	r3
    6a26:	4f 92       	push	r4
    6a28:	5f 92       	push	r5
    6a2a:	6f 92       	push	r6
    6a2c:	7f 92       	push	r7
    6a2e:	8f 92       	push	r8
    6a30:	9f 92       	push	r9
    6a32:	af 92       	push	r10
    6a34:	bf 92       	push	r11
    6a36:	cf 92       	push	r12
    6a38:	df 92       	push	r13
    6a3a:	ef 92       	push	r14
    6a3c:	ff 92       	push	r15
    6a3e:	0f 93       	push	r16
    6a40:	1f 93       	push	r17
    6a42:	cf 93       	push	r28
    6a44:	df 93       	push	r29
    6a46:	cd b7       	in	r28, 0x3d	; 61
    6a48:	de b7       	in	r29, 0x3e	; 62
    6a4a:	60 97       	sbiw	r28, 0x10	; 16
    6a4c:	0f b6       	in	r0, 0x3f	; 63
    6a4e:	f8 94       	cli
    6a50:	de bf       	out	0x3e, r29	; 62
    6a52:	0f be       	out	0x3f, r0	; 63
    6a54:	cd bf       	out	0x3d, r28	; 61
    6a56:	69 83       	std	Y+1, r22	; 0x01
    6a58:	7a 83       	std	Y+2, r23	; 0x02
    6a5a:	8b 83       	std	Y+3, r24	; 0x03
    6a5c:	9c 83       	std	Y+4, r25	; 0x04
    6a5e:	ca 01       	movw	r24, r20
    6a60:	b9 01       	movw	r22, r18
    6a62:	a6 01       	movw	r20, r12
    6a64:	95 01       	movw	r18, r10
	// returns distance in meters between two positions, both specified
	// as signed decimal-degrees latitude and longitude. Uses great-circle
	// distance computation for hypothised sphere of radius 6372795 meters.
	// Because Earth is no exact sphere, rounding errors may be upto 0.5%.
	float delta = radians(targetLon - currentLon);
    6a66:	0e 94 23 41 	call	0x8246	; 0x8246 <__subsf3>
    6a6a:	25 e3       	ldi	r18, 0x35	; 53
    6a6c:	3a ef       	ldi	r19, 0xFA	; 250
    6a6e:	4e e8       	ldi	r20, 0x8E	; 142
    6a70:	5c e3       	ldi	r21, 0x3C	; 60
    6a72:	0e 94 f8 43 	call	0x87f0	; 0x87f0 <__mulsf3>
    6a76:	6b 01       	movw	r12, r22
    6a78:	5c 01       	movw	r10, r24
	float sdlong = sin(delta);
    6a7a:	7d 2d       	mov	r23, r13
    6a7c:	9b 2d       	mov	r25, r11
    6a7e:	0e 94 5b 44 	call	0x88b6	; 0x88b6 <sin>
    6a82:	2b 01       	movw	r4, r22
    6a84:	3c 01       	movw	r6, r24
	float cdlong = cos(delta);
    6a86:	6c 2d       	mov	r22, r12
    6a88:	7d 2d       	mov	r23, r13
    6a8a:	8a 2d       	mov	r24, r10
    6a8c:	9b 2d       	mov	r25, r11
    6a8e:	0e 94 ee 41 	call	0x83dc	; 0x83dc <cos>
    6a92:	6d 83       	std	Y+5, r22	; 0x05
    6a94:	7e 83       	std	Y+6, r23	; 0x06
    6a96:	8f 83       	std	Y+7, r24	; 0x07
    6a98:	98 87       	std	Y+8, r25	; 0x08
	targetLat = radians(targetLat);
    6a9a:	25 e3       	ldi	r18, 0x35	; 53
    6a9c:	3a ef       	ldi	r19, 0xFA	; 250
    6a9e:	4e e8       	ldi	r20, 0x8E	; 142
    6aa0:	5c e3       	ldi	r21, 0x3C	; 60
    6aa2:	69 81       	ldd	r22, Y+1	; 0x01
    6aa4:	7a 81       	ldd	r23, Y+2	; 0x02
    6aa6:	8b 81       	ldd	r24, Y+3	; 0x03
    6aa8:	9c 81       	ldd	r25, Y+4	; 0x04
    6aaa:	0e 94 f8 43 	call	0x87f0	; 0x87f0 <__mulsf3>
    6aae:	6b 01       	movw	r12, r22
    6ab0:	89 83       	std	Y+1, r24	; 0x01
    6ab2:	99 87       	std	Y+9, r25	; 0x09
	currentLat = radians(currentLat);
    6ab4:	25 e3       	ldi	r18, 0x35	; 53
    6ab6:	3a ef       	ldi	r19, 0xFA	; 250
    6ab8:	4e e8       	ldi	r20, 0x8E	; 142
    6aba:	5c e3       	ldi	r21, 0x3C	; 60
    6abc:	c8 01       	movw	r24, r16
    6abe:	b7 01       	movw	r22, r14
    6ac0:	0e 94 f8 43 	call	0x87f0	; 0x87f0 <__mulsf3>
    6ac4:	16 2f       	mov	r17, r22
    6ac6:	07 2f       	mov	r16, r23
    6ac8:	38 2e       	mov	r3, r24
    6aca:	29 2e       	mov	r2, r25
	float slat1 = sin(targetLat);
    6acc:	39 81       	ldd	r19, Y+1	; 0x01
    6ace:	29 85       	ldd	r18, Y+9	; 0x09
    6ad0:	6c 2d       	mov	r22, r12
    6ad2:	7d 2d       	mov	r23, r13
    6ad4:	83 2f       	mov	r24, r19
    6ad6:	92 2f       	mov	r25, r18
    6ad8:	0e 94 5b 44 	call	0x88b6	; 0x88b6 <sin>
    6adc:	4b 01       	movw	r8, r22
    6ade:	5c 01       	movw	r10, r24
	float clat1 = cos(targetLat);
    6ae0:	39 81       	ldd	r19, Y+1	; 0x01
    6ae2:	29 85       	ldd	r18, Y+9	; 0x09
    6ae4:	6c 2d       	mov	r22, r12
    6ae6:	7d 2d       	mov	r23, r13
    6ae8:	83 2f       	mov	r24, r19
    6aea:	92 2f       	mov	r25, r18
    6aec:	0e 94 ee 41 	call	0x83dc	; 0x83dc <cos>
    6af0:	69 83       	std	Y+1, r22	; 0x01
    6af2:	7a 83       	std	Y+2, r23	; 0x02
    6af4:	8b 83       	std	Y+3, r24	; 0x03
    6af6:	9c 83       	std	Y+4, r25	; 0x04
	float slat2 = sin(currentLat);
    6af8:	a8 01       	movw	r20, r16
    6afa:	91 01       	movw	r18, r2
    6afc:	65 2f       	mov	r22, r21
    6afe:	74 2f       	mov	r23, r20
    6b00:	83 2f       	mov	r24, r19
    6b02:	92 2f       	mov	r25, r18
    6b04:	0e 94 5b 44 	call	0x88b6	; 0x88b6 <sin>
    6b08:	69 87       	std	Y+9, r22	; 0x09
    6b0a:	7a 87       	std	Y+10, r23	; 0x0a
    6b0c:	8b 87       	std	Y+11, r24	; 0x0b
    6b0e:	9c 87       	std	Y+12, r25	; 0x0c
	float clat2 = cos(currentLat);
    6b10:	a8 01       	movw	r20, r16
    6b12:	91 01       	movw	r18, r2
    6b14:	65 2f       	mov	r22, r21
    6b16:	74 2f       	mov	r23, r20
    6b18:	83 2f       	mov	r24, r19
    6b1a:	92 2f       	mov	r25, r18
    6b1c:	0e 94 ee 41 	call	0x83dc	; 0x83dc <cos>
    6b20:	6b 01       	movw	r12, r22
    6b22:	7c 01       	movw	r14, r24
	delta = (clat1 * slat2) - (slat1 * clat2 * cdlong);
    6b24:	29 85       	ldd	r18, Y+9	; 0x09
    6b26:	3a 85       	ldd	r19, Y+10	; 0x0a
    6b28:	4b 85       	ldd	r20, Y+11	; 0x0b
    6b2a:	5c 85       	ldd	r21, Y+12	; 0x0c
    6b2c:	69 81       	ldd	r22, Y+1	; 0x01
    6b2e:	7a 81       	ldd	r23, Y+2	; 0x02
    6b30:	8b 81       	ldd	r24, Y+3	; 0x03
    6b32:	9c 81       	ldd	r25, Y+4	; 0x04
    6b34:	0e 94 f8 43 	call	0x87f0	; 0x87f0 <__mulsf3>
    6b38:	6d 87       	std	Y+13, r22	; 0x0d
    6b3a:	7e 87       	std	Y+14, r23	; 0x0e
    6b3c:	8f 87       	std	Y+15, r24	; 0x0f
    6b3e:	98 8b       	std	Y+16, r25	; 0x10
    6b40:	a7 01       	movw	r20, r14
    6b42:	96 01       	movw	r18, r12
    6b44:	c5 01       	movw	r24, r10
    6b46:	b4 01       	movw	r22, r8
    6b48:	0e 94 f8 43 	call	0x87f0	; 0x87f0 <__mulsf3>
    6b4c:	2d 81       	ldd	r18, Y+5	; 0x05
    6b4e:	3e 81       	ldd	r19, Y+6	; 0x06
    6b50:	4f 81       	ldd	r20, Y+7	; 0x07
    6b52:	58 85       	ldd	r21, Y+8	; 0x08
    6b54:	0e 94 f8 43 	call	0x87f0	; 0x87f0 <__mulsf3>
    6b58:	9b 01       	movw	r18, r22
    6b5a:	ac 01       	movw	r20, r24
    6b5c:	6d 85       	ldd	r22, Y+13	; 0x0d
    6b5e:	7e 85       	ldd	r23, Y+14	; 0x0e
    6b60:	8f 85       	ldd	r24, Y+15	; 0x0f
    6b62:	98 89       	ldd	r25, Y+16	; 0x10
    6b64:	0e 94 23 41 	call	0x8246	; 0x8246 <__subsf3>
	delta = sq(delta);
    6b68:	26 2f       	mov	r18, r22
    6b6a:	37 2f       	mov	r19, r23
    6b6c:	48 2f       	mov	r20, r24
    6b6e:	59 2f       	mov	r21, r25
    6b70:	0e 94 f8 43 	call	0x87f0	; 0x87f0 <__mulsf3>
    6b74:	36 2e       	mov	r3, r22
    6b76:	27 2e       	mov	r2, r23
    6b78:	18 2f       	mov	r17, r24
    6b7a:	09 2f       	mov	r16, r25
	delta += sq(clat2 * sdlong);
    6b7c:	a3 01       	movw	r20, r6
    6b7e:	92 01       	movw	r18, r4
    6b80:	c7 01       	movw	r24, r14
    6b82:	b6 01       	movw	r22, r12
    6b84:	0e 94 f8 43 	call	0x87f0	; 0x87f0 <__mulsf3>
    6b88:	26 2f       	mov	r18, r22
    6b8a:	37 2f       	mov	r19, r23
    6b8c:	48 2f       	mov	r20, r24
    6b8e:	59 2f       	mov	r21, r25
    6b90:	0e 94 f8 43 	call	0x87f0	; 0x87f0 <__mulsf3>
    6b94:	9b 01       	movw	r18, r22
    6b96:	ac 01       	movw	r20, r24
    6b98:	d1 01       	movw	r26, r2
    6b9a:	f8 01       	movw	r30, r16
    6b9c:	6b 2f       	mov	r22, r27
    6b9e:	7a 2f       	mov	r23, r26
    6ba0:	8f 2f       	mov	r24, r31
    6ba2:	9e 2f       	mov	r25, r30
    6ba4:	0e 94 24 41 	call	0x8248	; 0x8248 <__addsf3>
	delta = sqrt(delta);
    6ba8:	0e 94 65 44 	call	0x88ca	; 0x88ca <sqrt>
    6bac:	2b 01       	movw	r4, r22
    6bae:	3c 01       	movw	r6, r24
	float denom = (slat1 * slat2) + (clat1 * clat2 * cdlong);
    6bb0:	29 85       	ldd	r18, Y+9	; 0x09
    6bb2:	3a 85       	ldd	r19, Y+10	; 0x0a
    6bb4:	4b 85       	ldd	r20, Y+11	; 0x0b
    6bb6:	5c 85       	ldd	r21, Y+12	; 0x0c
    6bb8:	c5 01       	movw	r24, r10
    6bba:	b4 01       	movw	r22, r8
    6bbc:	0e 94 f8 43 	call	0x87f0	; 0x87f0 <__mulsf3>
    6bc0:	4b 01       	movw	r8, r22
    6bc2:	5c 01       	movw	r10, r24
    6bc4:	a7 01       	movw	r20, r14
    6bc6:	96 01       	movw	r18, r12
    6bc8:	69 81       	ldd	r22, Y+1	; 0x01
    6bca:	7a 81       	ldd	r23, Y+2	; 0x02
    6bcc:	8b 81       	ldd	r24, Y+3	; 0x03
    6bce:	9c 81       	ldd	r25, Y+4	; 0x04
    6bd0:	0e 94 f8 43 	call	0x87f0	; 0x87f0 <__mulsf3>
    6bd4:	2d 81       	ldd	r18, Y+5	; 0x05
    6bd6:	3e 81       	ldd	r19, Y+6	; 0x06
    6bd8:	4f 81       	ldd	r20, Y+7	; 0x07
    6bda:	58 85       	ldd	r21, Y+8	; 0x08
    6bdc:	0e 94 f8 43 	call	0x87f0	; 0x87f0 <__mulsf3>
    6be0:	9b 01       	movw	r18, r22
    6be2:	ac 01       	movw	r20, r24
    6be4:	c5 01       	movw	r24, r10
    6be6:	b4 01       	movw	r22, r8
    6be8:	0e 94 24 41 	call	0x8248	; 0x8248 <__addsf3>
    6bec:	9b 01       	movw	r18, r22
    6bee:	ac 01       	movw	r20, r24
	delta = atan2(delta, denom);
    6bf0:	c3 01       	movw	r24, r6
    6bf2:	b2 01       	movw	r22, r4
    6bf4:	0e 94 97 41 	call	0x832e	; 0x832e <atan2>
	return delta * 6372795 * MTR;
    6bf8:	26 e7       	ldi	r18, 0x76	; 118
    6bfa:	3b e7       	ldi	r19, 0x7B	; 123
    6bfc:	42 ec       	ldi	r20, 0xC2	; 194
    6bfe:	5a e4       	ldi	r21, 0x4A	; 74
    6c00:	0e 94 f8 43 	call	0x87f0	; 0x87f0 <__mulsf3>
}
    6c04:	60 96       	adiw	r28, 0x10	; 16
    6c06:	0f b6       	in	r0, 0x3f	; 63
    6c08:	f8 94       	cli
    6c0a:	de bf       	out	0x3e, r29	; 62
    6c0c:	0f be       	out	0x3f, r0	; 63
    6c0e:	cd bf       	out	0x3d, r28	; 61
    6c10:	df 91       	pop	r29
    6c12:	cf 91       	pop	r28
    6c14:	1f 91       	pop	r17
    6c16:	0f 91       	pop	r16
    6c18:	ff 90       	pop	r15
    6c1a:	ef 90       	pop	r14
    6c1c:	df 90       	pop	r13
    6c1e:	cf 90       	pop	r12
    6c20:	bf 90       	pop	r11
    6c22:	af 90       	pop	r10
    6c24:	9f 90       	pop	r9
    6c26:	8f 90       	pop	r8
    6c28:	7f 90       	pop	r7
    6c2a:	6f 90       	pop	r6
    6c2c:	5f 90       	pop	r5
    6c2e:	4f 90       	pop	r4
    6c30:	3f 90       	pop	r3
    6c32:	2f 90       	pop	r2
    6c34:	08 95       	ret

00006c36 <_ZN3Gps6decodeEh>:

bool Gps::decode(byte inByte) {
    6c36:	cf 93       	push	r28
    6c38:	df 93       	push	r29
    6c3a:	ec 01       	movw	r28, r24
	// check if the character completes a valid GPS sentence
	model->setGpsDecode(gpsSource->decode(inByte));
    6c3c:	8a 81       	ldd	r24, Y+2	; 0x02
    6c3e:	9b 81       	ldd	r25, Y+3	; 0x03
    6c40:	0e 94 03 1d 	call	0x3a06	; 0x3a06 <_ZN4NMEA6decodeEc>
    6c44:	61 e0       	ldi	r22, 0x01	; 1
    6c46:	89 2b       	or	r24, r25
    6c48:	09 f4       	brne	.+2      	; 0x6c4c <_ZN3Gps6decodeEh+0x16>
    6c4a:	60 e0       	ldi	r22, 0x00	; 0
    6c4c:	8c 81       	ldd	r24, Y+4	; 0x04
    6c4e:	9d 81       	ldd	r25, Y+5	; 0x05
    6c50:	0e 94 db 2d 	call	0x5bb6	; 0x5bb6 <_ZN14FreeBoardModel12setGpsDecodeEb>
	//if(DEBUG)
	//Serial.println(inByte);
	if (model->isGpsDecode()) {
    6c54:	8c 81       	ldd	r24, Y+4	; 0x04
    6c56:	9d 81       	ldd	r25, Y+5	; 0x05
    6c58:	0e 94 22 2d 	call	0x5a44	; 0x5a44 <_ZN14FreeBoardModel11isGpsDecodeEv>
    6c5c:	88 23       	and	r24, r24
    6c5e:	69 f1       	breq	.+90     	; 0x6cba <_ZN3Gps6decodeEh+0x84>
		model->setGpsStatus(gpsSource->gprmc_status());
    6c60:	8a 81       	ldd	r24, Y+2	; 0x02
    6c62:	9b 81       	ldd	r25, Y+3	; 0x03
    6c64:	0e 94 1a 1c 	call	0x3834	; 0x3834 <_ZN4NMEA12gprmc_statusEv>
    6c68:	68 2f       	mov	r22, r24
    6c6a:	8c 81       	ldd	r24, Y+4	; 0x04
    6c6c:	9d 81       	ldd	r25, Y+5	; 0x05
    6c6e:	0e 94 00 2e 	call	0x5c00	; 0x5c00 <_ZN14FreeBoardModel12setGpsStatusEc>
		if (gpsSource->gprmc_status() == 'A' && gpsSource->term(0)[2] != 'R' && gpsSource->term(0)[3] != 'M' && gpsSource->term(0)[4] != 'C') {
    6c72:	8a 81       	ldd	r24, Y+2	; 0x02
    6c74:	9b 81       	ldd	r25, Y+3	; 0x03
    6c76:	0e 94 1a 1c 	call	0x3834	; 0x3834 <_ZN4NMEA12gprmc_statusEv>
    6c7a:	81 34       	cpi	r24, 0x41	; 65
    6c7c:	f1 f4       	brne	.+60     	; 0x6cba <_ZN3Gps6decodeEh+0x84>
    6c7e:	60 e0       	ldi	r22, 0x00	; 0
    6c80:	70 e0       	ldi	r23, 0x00	; 0
    6c82:	8a 81       	ldd	r24, Y+2	; 0x02
    6c84:	9b 81       	ldd	r25, Y+3	; 0x03
    6c86:	0e 94 54 1c 	call	0x38a8	; 0x38a8 <_ZN4NMEA4termEi>
    6c8a:	fc 01       	movw	r30, r24
    6c8c:	82 81       	ldd	r24, Z+2	; 0x02
    6c8e:	82 35       	cpi	r24, 0x52	; 82
    6c90:	a1 f0       	breq	.+40     	; 0x6cba <_ZN3Gps6decodeEh+0x84>
    6c92:	60 e0       	ldi	r22, 0x00	; 0
    6c94:	70 e0       	ldi	r23, 0x00	; 0
    6c96:	8a 81       	ldd	r24, Y+2	; 0x02
    6c98:	9b 81       	ldd	r25, Y+3	; 0x03
    6c9a:	0e 94 54 1c 	call	0x38a8	; 0x38a8 <_ZN4NMEA4termEi>
    6c9e:	fc 01       	movw	r30, r24
    6ca0:	83 81       	ldd	r24, Z+3	; 0x03
    6ca2:	8d 34       	cpi	r24, 0x4D	; 77
    6ca4:	51 f0       	breq	.+20     	; 0x6cba <_ZN3Gps6decodeEh+0x84>
    6ca6:	60 e0       	ldi	r22, 0x00	; 0
    6ca8:	70 e0       	ldi	r23, 0x00	; 0
    6caa:	8a 81       	ldd	r24, Y+2	; 0x02
    6cac:	9b 81       	ldd	r25, Y+3	; 0x03
    6cae:	0e 94 54 1c 	call	0x38a8	; 0x38a8 <_ZN4NMEA4termEi>
    6cb2:	fc 01       	movw	r30, r24
    6cb4:	84 81       	ldd	r24, Z+4	; 0x04
    6cb6:	83 34       	cpi	r24, 0x43	; 67
    6cb8:	31 f4       	brne	.+12     	; 0x6cc6 <_ZN3Gps6decodeEh+0x90>
			model->setGpsLongitude(gpsSource->gprmc_longitude());
			model->setGpsSpeed(gpsSource->gprmc_speed(model->getGpsSpeedUnit()));
			model->setGpsUtc(gpsSource->gprmc_utc());
		}
	}
	return model->isGpsDecode();
    6cba:	8c 81       	ldd	r24, Y+4	; 0x04
    6cbc:	9d 81       	ldd	r25, Y+5	; 0x05
}
    6cbe:	df 91       	pop	r29
    6cc0:	cf 91       	pop	r28
			model->setGpsLongitude(gpsSource->gprmc_longitude());
			model->setGpsSpeed(gpsSource->gprmc_speed(model->getGpsSpeedUnit()));
			model->setGpsUtc(gpsSource->gprmc_utc());
		}
	}
	return model->isGpsDecode();
    6cc2:	0c 94 22 2d 	jmp	0x5a44	; 0x5a44 <_ZN14FreeBoardModel11isGpsDecodeEv>
	//if(DEBUG)
	//Serial.println(inByte);
	if (model->isGpsDecode()) {
		model->setGpsStatus(gpsSource->gprmc_status());
		if (gpsSource->gprmc_status() == 'A' && gpsSource->term(0)[2] != 'R' && gpsSource->term(0)[3] != 'M' && gpsSource->term(0)[4] != 'C') {
			model->setGpsLastFix(millis());
    6cc6:	0e 94 e7 15 	call	0x2bce	; 0x2bce <millis>
    6cca:	ab 01       	movw	r20, r22
    6ccc:	bc 01       	movw	r22, r24
    6cce:	8c 81       	ldd	r24, Y+4	; 0x04
    6cd0:	9d 81       	ldd	r25, Y+5	; 0x05
    6cd2:	0e 94 e0 2d 	call	0x5bc0	; 0x5bc0 <_ZN14FreeBoardModel13setGpsLastFixEm>
			model->setGpsCourse(gpsSource->gprmc_course());
    6cd6:	8a 81       	ldd	r24, Y+2	; 0x02
    6cd8:	9b 81       	ldd	r25, Y+3	; 0x03
    6cda:	0e 94 45 1c 	call	0x388a	; 0x388a <_ZN4NMEA12gprmc_courseEv>
    6cde:	ab 01       	movw	r20, r22
    6ce0:	bc 01       	movw	r22, r24
    6ce2:	8c 81       	ldd	r24, Y+4	; 0x04
    6ce4:	9d 81       	ldd	r25, Y+5	; 0x05
    6ce6:	0e 94 d3 2d 	call	0x5ba6	; 0x5ba6 <_ZN14FreeBoardModel12setGpsCourseEf>
			model->setGpsLatitude(gpsSource->gprmc_latitude());
    6cea:	8a 81       	ldd	r24, Y+2	; 0x02
    6cec:	9b 81       	ldd	r25, Y+3	; 0x03
    6cee:	0e 94 1d 1c 	call	0x383a	; 0x383a <_ZN4NMEA14gprmc_latitudeEv>
    6cf2:	ab 01       	movw	r20, r22
    6cf4:	bc 01       	movw	r22, r24
    6cf6:	8c 81       	ldd	r24, Y+4	; 0x04
    6cf8:	9d 81       	ldd	r25, Y+5	; 0x05
    6cfa:	0e 94 e8 2d 	call	0x5bd0	; 0x5bd0 <_ZN14FreeBoardModel14setGpsLatitudeEf>
			model->setGpsLongitude(gpsSource->gprmc_longitude());
    6cfe:	8a 81       	ldd	r24, Y+2	; 0x02
    6d00:	9b 81       	ldd	r25, Y+3	; 0x03
    6d02:	0e 94 27 1c 	call	0x384e	; 0x384e <_ZN4NMEA15gprmc_longitudeEv>
    6d06:	ab 01       	movw	r20, r22
    6d08:	bc 01       	movw	r22, r24
    6d0a:	8c 81       	ldd	r24, Y+4	; 0x04
    6d0c:	9d 81       	ldd	r25, Y+5	; 0x05
    6d0e:	0e 94 f0 2d 	call	0x5be0	; 0x5be0 <_ZN14FreeBoardModel15setGpsLongitudeEf>
			model->setGpsSpeed(gpsSource->gprmc_speed(model->getGpsSpeedUnit()));
    6d12:	8c 81       	ldd	r24, Y+4	; 0x04
    6d14:	9d 81       	ldd	r25, Y+5	; 0x05
    6d16:	0e 94 c8 2c 	call	0x5990	; 0x5990 <_ZN14FreeBoardModel15getGpsSpeedUnitEv>
    6d1a:	ab 01       	movw	r20, r22
    6d1c:	bc 01       	movw	r22, r24
    6d1e:	8a 81       	ldd	r24, Y+2	; 0x02
    6d20:	9b 81       	ldd	r25, Y+3	; 0x03
    6d22:	0e 94 31 1c 	call	0x3862	; 0x3862 <_ZN4NMEA11gprmc_speedEf>
    6d26:	ab 01       	movw	r20, r22
    6d28:	bc 01       	movw	r22, r24
    6d2a:	8c 81       	ldd	r24, Y+4	; 0x04
    6d2c:	9d 81       	ldd	r25, Y+5	; 0x05
    6d2e:	0e 94 f8 2d 	call	0x5bf0	; 0x5bf0 <_ZN14FreeBoardModel11setGpsSpeedEf>
			model->setGpsUtc(gpsSource->gprmc_utc());
    6d32:	8a 81       	ldd	r24, Y+2	; 0x02
    6d34:	9b 81       	ldd	r25, Y+3	; 0x03
    6d36:	0e 94 10 1c 	call	0x3820	; 0x3820 <_ZN4NMEA9gprmc_utcEv>
    6d3a:	ab 01       	movw	r20, r22
    6d3c:	bc 01       	movw	r22, r24
    6d3e:	8c 81       	ldd	r24, Y+4	; 0x04
    6d40:	9d 81       	ldd	r25, Y+5	; 0x05
    6d42:	0e 94 05 2e 	call	0x5c0a	; 0x5c0a <_ZN14FreeBoardModel9setGpsUtcEf>
    6d46:	b9 cf       	rjmp	.-142    	; 0x6cba <_ZN3Gps6decodeEh+0x84>

00006d48 <_ZN3Gps12setupGpsImplEv>:
}
/*
 * setup implementations for various models of GPS.
 * Define the GPS in GPS.h
 */
void Gps::setupGpsImpl(){
    6d48:	ef 92       	push	r14
    6d4a:	ff 92       	push	r15
    6d4c:	0f 93       	push	r16
    6d4e:	1f 93       	push	r17
    6d50:	cf 93       	push	r28
    6d52:	df 93       	push	r29
    6d54:	cd b7       	in	r28, 0x3d	; 61
    6d56:	de b7       	in	r29, 0x3e	; 62
    6d58:	a8 97       	sbiw	r28, 0x28	; 40
    6d5a:	0f b6       	in	r0, 0x3f	; 63
    6d5c:	f8 94       	cli
    6d5e:	de bf       	out	0x3e, r29	; 62
    6d60:	0f be       	out	0x3f, r0	; 63
    6d62:	cd bf       	out	0x3d, r28	; 61
    6d64:	8c 01       	movw	r16, r24
	//setup based on GPS type - probably wants a more modular way if many GPS types appear
	Serial.println("Setting GPS config..." );
    6d66:	61 e4       	ldi	r22, 0x41	; 65
    6d68:	74 e0       	ldi	r23, 0x04	; 4
    6d6a:	8a ed       	ldi	r24, 0xDA	; 218
    6d6c:	96 e0       	ldi	r25, 0x06	; 6
    6d6e:	0e 94 ea 06 	call	0xdd4	; 0xdd4 <_ZN5Print7printlnEPKc>
	if(GPS_EM_406A == model->getGpsModel()){
    6d72:	f8 01       	movw	r30, r16
    6d74:	84 81       	ldd	r24, Z+4	; 0x04
    6d76:	95 81       	ldd	r25, Z+5	; 0x05
    6d78:	0e 94 80 2e 	call	0x5d00	; 0x5d00 <_ZN14FreeBoardModel11getGpsModelEv>
    6d7c:	01 97       	sbiw	r24, 0x01	; 1
    6d7e:	09 f0       	breq	.+2      	; 0x6d82 <_ZN3Gps12setupGpsImplEv+0x3a>
    6d80:	7f c0       	rjmp	.+254    	; 0x6e80 <_ZN3Gps12setupGpsImplEv+0x138>
		//Serial1.begin(38400, 8, 1, 0); //gps
		//set debug on
		Serial1.println("$PSRF105,1*3E");
    6d82:	67 e5       	ldi	r22, 0x57	; 87
    6d84:	74 e0       	ldi	r23, 0x04	; 4
    6d86:	88 eb       	ldi	r24, 0xB8	; 184
    6d88:	96 e0       	ldi	r25, 0x06	; 6
    6d8a:	0e 94 ea 06 	call	0xdd4	; 0xdd4 <_ZN5Print7printlnEPKc>

		//set VTG off -  Vector track an Speed over the Ground
		Serial1.println("$PSRF103,05,00,00,01*21");
    6d8e:	65 e6       	ldi	r22, 0x65	; 101
    6d90:	74 e0       	ldi	r23, 0x04	; 4
    6d92:	88 eb       	ldi	r24, 0xB8	; 184
    6d94:	96 e0       	ldi	r25, 0x06	; 6
    6d96:	0e 94 ea 06 	call	0xdd4	; 0xdd4 <_ZN5Print7printlnEPKc>
		//set GLL off -  Lat/Lon data
		Serial1.println("$PSRF103,01,00,00,01*25");
    6d9a:	6d e7       	ldi	r22, 0x7D	; 125
    6d9c:	74 e0       	ldi	r23, 0x04	; 4
    6d9e:	88 eb       	ldi	r24, 0xB8	; 184
    6da0:	96 e0       	ldi	r25, 0x06	; 6
    6da2:	0e 94 ea 06 	call	0xdd4	; 0xdd4 <_ZN5Print7printlnEPKc>
		//set GGA on, 5sec, constant -  Fix information
		Serial1.println("$PSRF103,00,00,05,01*21");
    6da6:	65 e9       	ldi	r22, 0x95	; 149
    6da8:	74 e0       	ldi	r23, 0x04	; 4
    6daa:	88 eb       	ldi	r24, 0xB8	; 184
    6dac:	96 e0       	ldi	r25, 0x06	; 6
    6dae:	0e 94 ea 06 	call	0xdd4	; 0xdd4 <_ZN5Print7printlnEPKc>
		//set GSA on, 5 sec, constant - Overall Satellite data
		Serial1.println("$PSRF103,02,00,05,01*23");
    6db2:	6d ea       	ldi	r22, 0xAD	; 173
    6db4:	74 e0       	ldi	r23, 0x04	; 4
    6db6:	88 eb       	ldi	r24, 0xB8	; 184
    6db8:	96 e0       	ldi	r25, 0x06	; 6
    6dba:	0e 94 ea 06 	call	0xdd4	; 0xdd4 <_ZN5Print7printlnEPKc>
		//set GSV on, 20sec, constant -Detailed Satellite data
		Serial1.println("$PSRF103,03,00,20,01*25");
    6dbe:	65 ec       	ldi	r22, 0xC5	; 197
    6dc0:	74 e0       	ldi	r23, 0x04	; 4
    6dc2:	88 eb       	ldi	r24, 0xB8	; 184
    6dc4:	96 e0       	ldi	r25, 0x06	; 6
    6dc6:	0e 94 ea 06 	call	0xdd4	; 0xdd4 <_ZN5Print7printlnEPKc>
		//set RMC on, 1sec, constant, Recommended minimum info
		Serial1.println("$PSRF103,04,00,01,01*21");
    6dca:	6d ed       	ldi	r22, 0xDD	; 221
    6dcc:	74 e0       	ldi	r23, 0x04	; 4
    6dce:	88 eb       	ldi	r24, 0xB8	; 184
    6dd0:	96 e0       	ldi	r25, 0x06	; 6
    6dd2:	0e 94 ea 06 	call	0xdd4	; 0xdd4 <_ZN5Print7printlnEPKc>

		//debug off
		Serial1.println("$PSRF105,0*3F");
    6dd6:	65 ef       	ldi	r22, 0xF5	; 245
    6dd8:	74 e0       	ldi	r23, 0x04	; 4
    6dda:	88 eb       	ldi	r24, 0xB8	; 184
    6ddc:	96 e0       	ldi	r25, 0x06	; 6
    6dde:	0e 94 ea 06 	call	0xdd4	; 0xdd4 <_ZN5Print7printlnEPKc>
    6de2:	1a a2       	std	Y+34, r1	; 0x22
    6de4:	19 a2       	std	Y+33, r1	; 0x21
#endif

public:

  // Basic constructor requires a preallocated buffer
  PString(char *buf, size_t size) : _buf(buf), _size(size)
    6de6:	88 e0       	ldi	r24, 0x08	; 8
    6de8:	92 e0       	ldi	r25, 0x02	; 2
    6dea:	98 a3       	std	Y+32, r25	; 0x20
    6dec:	8f 8f       	std	Y+31, r24	; 0x1f
    6dee:	ee 24       	eor	r14, r14
    6df0:	e3 94       	inc	r14
    6df2:	f1 2c       	mov	r15, r1
    6df4:	ec 0e       	add	r14, r28
    6df6:	fd 1e       	adc	r15, r29
    6df8:	fc a2       	std	Y+36, r15	; 0x24
    6dfa:	eb a2       	std	Y+35, r14	; 0x23
    6dfc:	8e e1       	ldi	r24, 0x1E	; 30
    6dfe:	90 e0       	ldi	r25, 0x00	; 0
    6e00:	98 a7       	std	Y+40, r25	; 0x28
    6e02:	8f a3       	std	Y+39, r24	; 0x27
  { begin(); }
    6e04:	ce 01       	movw	r24, r28
    6e06:	4f 96       	adiw	r24, 0x1f	; 31
    6e08:	0e 94 d7 17 	call	0x2fae	; 0x2fae <_ZN7PString5beginEv>
		//#define SIRF_BAUD_RATE_57600    "$PSRF100,1,57600,8,1,0*36\r\n"

		//$PSRF100,1,38400,8,1,0*3D\r\n
		char gpsSentence [30];
		PString str(gpsSentence, sizeof(gpsSentence));
		str.print("$PSRF100,1,");
    6e0c:	63 e0       	ldi	r22, 0x03	; 3
    6e0e:	75 e0       	ldi	r23, 0x05	; 5
    6e10:	ce 01       	movw	r24, r28
    6e12:	4f 96       	adiw	r24, 0x1f	; 31
    6e14:	0e 94 99 06 	call	0xd32	; 0xd32 <_ZN5Print5printEPKc>
		str.print(model->getSerialBaud1());
    6e18:	f8 01       	movw	r30, r16
    6e1a:	84 81       	ldd	r24, Z+4	; 0x04
    6e1c:	95 81       	ldd	r25, Z+5	; 0x05
    6e1e:	0e 94 9c 2e 	call	0x5d38	; 0x5d38 <_ZN14FreeBoardModel14getSerialBaud1Ev>
    6e22:	ab 01       	movw	r20, r22
    6e24:	bc 01       	movw	r22, r24
    6e26:	2a e0       	ldi	r18, 0x0A	; 10
    6e28:	30 e0       	ldi	r19, 0x00	; 0
    6e2a:	ce 01       	movw	r24, r28
    6e2c:	4f 96       	adiw	r24, 0x1f	; 31
    6e2e:	0e 94 e1 07 	call	0xfc2	; 0xfc2 <_ZN5Print5printEli>
		str.print(",8,1,0*");
    6e32:	6f e0       	ldi	r22, 0x0F	; 15
    6e34:	75 e0       	ldi	r23, 0x05	; 5
    6e36:	ce 01       	movw	r24, r28
    6e38:	4f 96       	adiw	r24, 0x1f	; 31
    6e3a:	0e 94 99 06 	call	0xd32	; 0xd32 <_ZN5Print5printEPKc>
		//calculate the checksum
		byte cs = getChecksum(gpsSentence); //clear any old checksum
    6e3e:	c7 01       	movw	r24, r14
    6e40:	0e 94 6d 33 	call	0x66da	; 0x66da <_Z11getChecksumPc>
    6e44:	f8 2e       	mov	r15, r24
		//bug - arduino prints 0x007 as 7, 0x02B as 2B, so we add it now
		if (cs < 0x10) str.print('0');
    6e46:	ff e0       	ldi	r31, 0x0F	; 15
    6e48:	f8 17       	cp	r31, r24
    6e4a:	28 f0       	brcs	.+10     	; 0x6e56 <_ZN3Gps12setupGpsImplEv+0x10e>
    6e4c:	60 e3       	ldi	r22, 0x30	; 48
    6e4e:	ce 01       	movw	r24, r28
    6e50:	4f 96       	adiw	r24, 0x1f	; 31
    6e52:	0e 94 9b 06 	call	0xd36	; 0xd36 <_ZN5Print5printEc>
		str.print(cs, HEX); // Assemble the final message and send it out the serial port
    6e56:	40 e1       	ldi	r20, 0x10	; 16
    6e58:	50 e0       	ldi	r21, 0x00	; 0
    6e5a:	6f 2d       	mov	r22, r15
    6e5c:	ce 01       	movw	r24, r28
    6e5e:	4f 96       	adiw	r24, 0x1f	; 31
    6e60:	0e 94 c1 07 	call	0xf82	; 0xf82 <_ZN5Print5printEhi>
		Serial1.println(gpsSentence);
    6e64:	be 01       	movw	r22, r28
    6e66:	6f 5f       	subi	r22, 0xFF	; 255
    6e68:	7f 4f       	sbci	r23, 0xFF	; 255
    6e6a:	88 eb       	ldi	r24, 0xB8	; 184
    6e6c:	96 e0       	ldi	r25, 0x06	; 6
    6e6e:	0e 94 ea 06 	call	0xdd4	; 0xdd4 <_ZN5Print7printlnEPKc>
		//Serial1.println("$PSRF100,1,38400,8,1,0*3D");
		Serial.println(gpsSentence);
    6e72:	be 01       	movw	r22, r28
    6e74:	6f 5f       	subi	r22, 0xFF	; 255
    6e76:	7f 4f       	sbci	r23, 0xFF	; 255
    6e78:	8a ed       	ldi	r24, 0xDA	; 218
    6e7a:	96 e0       	ldi	r25, 0x06	; 6
    6e7c:	0e 94 ea 06 	call	0xdd4	; 0xdd4 <_ZN5Print7printlnEPKc>
	}
	if(GPS_MTEK_3329 == model->getGpsModel()){
    6e80:	f8 01       	movw	r30, r16
    6e82:	84 81       	ldd	r24, Z+4	; 0x04
    6e84:	95 81       	ldd	r25, Z+5	; 0x05
    6e86:	0e 94 80 2e 	call	0x5d00	; 0x5d00 <_ZN14FreeBoardModel11getGpsModelEv>
    6e8a:	02 97       	sbiw	r24, 0x02	; 2
    6e8c:	09 f0       	breq	.+2      	; 0x6e90 <_ZN3Gps12setupGpsImplEv+0x148>
    6e8e:	53 c0       	rjmp	.+166    	; 0x6f36 <_ZN3Gps12setupGpsImplEv+0x1ee>

		//setting update rate to 1Hz
		Serial1.println("$PMTK220,1000*1F");
    6e90:	67 e1       	ldi	r22, 0x17	; 23
    6e92:	75 e0       	ldi	r23, 0x05	; 5
    6e94:	88 eb       	ldi	r24, 0xB8	; 184
    6e96:	96 e0       	ldi	r25, 0x06	; 6
    6e98:	0e 94 ea 06 	call	0xdd4	; 0xdd4 <_ZN5Print7printlnEPKc>
		//setting the NMEA Output to get RMC, GGA, GSA & GSV.
		Serial1.println("$PMTK314,0,1,0,1,1,1,0,0,0,0,0,0,0,0,0,0,0,0,0*28");
    6e9c:	68 e2       	ldi	r22, 0x28	; 40
    6e9e:	75 e0       	ldi	r23, 0x05	; 5
    6ea0:	88 eb       	ldi	r24, 0xB8	; 184
    6ea2:	96 e0       	ldi	r25, 0x06	; 6
    6ea4:	0e 94 ea 06 	call	0xdd4	; 0xdd4 <_ZN5Print7printlnEPKc>
    6ea8:	1a a2       	std	Y+34, r1	; 0x22
    6eaa:	19 a2       	std	Y+33, r1	; 0x21
#endif

public:

  // Basic constructor requires a preallocated buffer
  PString(char *buf, size_t size) : _buf(buf), _size(size)
    6eac:	88 e0       	ldi	r24, 0x08	; 8
    6eae:	92 e0       	ldi	r25, 0x02	; 2
    6eb0:	98 a3       	std	Y+32, r25	; 0x20
    6eb2:	8f 8f       	std	Y+31, r24	; 0x1f
    6eb4:	ee 24       	eor	r14, r14
    6eb6:	e3 94       	inc	r14
    6eb8:	f1 2c       	mov	r15, r1
    6eba:	ec 0e       	add	r14, r28
    6ebc:	fd 1e       	adc	r15, r29
    6ebe:	fc a2       	std	Y+36, r15	; 0x24
    6ec0:	eb a2       	std	Y+35, r14	; 0x23
    6ec2:	8e e1       	ldi	r24, 0x1E	; 30
    6ec4:	90 e0       	ldi	r25, 0x00	; 0
    6ec6:	98 a7       	std	Y+40, r25	; 0x28
    6ec8:	8f a3       	std	Y+39, r24	; 0x27
  { begin(); }
    6eca:	ce 01       	movw	r24, r28
    6ecc:	4f 96       	adiw	r24, 0x1f	; 31
    6ece:	0e 94 d7 17 	call	0x2fae	; 0x2fae <_ZN7PString5beginEv>
		You can also set the GPS to any desired baud rate speed by changing the value inside the string and generate a new checksum here: http://www.hhhh.org/wiml/proj/nmeaxor.html
		 */

		char gpsSentence [30];
		PString str(gpsSentence, sizeof(gpsSentence));
		str.print("$PMTK251,");
    6ed2:	6a e5       	ldi	r22, 0x5A	; 90
    6ed4:	75 e0       	ldi	r23, 0x05	; 5
    6ed6:	ce 01       	movw	r24, r28
    6ed8:	4f 96       	adiw	r24, 0x1f	; 31
    6eda:	0e 94 99 06 	call	0xd32	; 0xd32 <_ZN5Print5printEPKc>
		str.print(model->getSerialBaud1());
    6ede:	f8 01       	movw	r30, r16
    6ee0:	84 81       	ldd	r24, Z+4	; 0x04
    6ee2:	95 81       	ldd	r25, Z+5	; 0x05
    6ee4:	0e 94 9c 2e 	call	0x5d38	; 0x5d38 <_ZN14FreeBoardModel14getSerialBaud1Ev>
    6ee8:	ab 01       	movw	r20, r22
    6eea:	bc 01       	movw	r22, r24
    6eec:	2a e0       	ldi	r18, 0x0A	; 10
    6eee:	30 e0       	ldi	r19, 0x00	; 0
    6ef0:	ce 01       	movw	r24, r28
    6ef2:	4f 96       	adiw	r24, 0x1f	; 31
    6ef4:	0e 94 e1 07 	call	0xfc2	; 0xfc2 <_ZN5Print5printEli>
		str.print("*");
    6ef8:	65 e1       	ldi	r22, 0x15	; 21
    6efa:	75 e0       	ldi	r23, 0x05	; 5
    6efc:	ce 01       	movw	r24, r28
    6efe:	4f 96       	adiw	r24, 0x1f	; 31
    6f00:	0e 94 99 06 	call	0xd32	; 0xd32 <_ZN5Print5printEPKc>
		//calculate the checksum
		byte cs = getChecksum(gpsSentence); //clear any old checksum
    6f04:	c7 01       	movw	r24, r14
    6f06:	0e 94 6d 33 	call	0x66da	; 0x66da <_Z11getChecksumPc>
    6f0a:	18 2f       	mov	r17, r24
		//bug - arduino prints 0x007 as 7, 0x02B as 2B, so we add it now
		if (cs < 0x10) str.print('0');
    6f0c:	80 31       	cpi	r24, 0x10	; 16
    6f0e:	28 f4       	brcc	.+10     	; 0x6f1a <_ZN3Gps12setupGpsImplEv+0x1d2>
    6f10:	60 e3       	ldi	r22, 0x30	; 48
    6f12:	ce 01       	movw	r24, r28
    6f14:	4f 96       	adiw	r24, 0x1f	; 31
    6f16:	0e 94 9b 06 	call	0xd36	; 0xd36 <_ZN5Print5printEc>
		str.print(cs, HEX); // Assemble the final message and send it out the serial port
    6f1a:	40 e1       	ldi	r20, 0x10	; 16
    6f1c:	50 e0       	ldi	r21, 0x00	; 0
    6f1e:	61 2f       	mov	r22, r17
    6f20:	ce 01       	movw	r24, r28
    6f22:	4f 96       	adiw	r24, 0x1f	; 31
    6f24:	0e 94 c1 07 	call	0xf82	; 0xf82 <_ZN5Print5printEhi>
		Serial1.println(gpsSentence);
    6f28:	be 01       	movw	r22, r28
    6f2a:	6f 5f       	subi	r22, 0xFF	; 255
    6f2c:	7f 4f       	sbci	r23, 0xFF	; 255
    6f2e:	88 eb       	ldi	r24, 0xB8	; 184
    6f30:	96 e0       	ldi	r25, 0x06	; 6
    6f32:	0e 94 ea 06 	call	0xdd4	; 0xdd4 <_ZN5Print7printlnEPKc>

	}
}
    6f36:	a8 96       	adiw	r28, 0x28	; 40
    6f38:	0f b6       	in	r0, 0x3f	; 63
    6f3a:	f8 94       	cli
    6f3c:	de bf       	out	0x3e, r29	; 62
    6f3e:	0f be       	out	0x3f, r0	; 63
    6f40:	cd bf       	out	0x3d, r28	; 61
    6f42:	df 91       	pop	r29
    6f44:	cf 91       	pop	r28
    6f46:	1f 91       	pop	r17
    6f48:	0f 91       	pop	r16
    6f4a:	ff 90       	pop	r15
    6f4c:	ef 90       	pop	r14
    6f4e:	08 95       	ret

00006f50 <_ZN3Gps8setupGpsEv>:
//	return gpsDecode;
//}
/*
 Set baud rate and various message frequencies.
 */
void Gps::setupGps() {
    6f50:	cf 93       	push	r28
    6f52:	df 93       	push	r29
    6f54:	ec 01       	movw	r28, r24
	 6 MSS (If internal beacon is supported)
	 7 Not defined
	 8 ZDA (if 1PPS output is supported)
	 9 Not defined
	 */
	autoBaud();
    6f56:	0e 94 6b 34 	call	0x68d6	; 0x68d6 <_ZN3Gps8autoBaudEv>

	setupGpsImpl();
    6f5a:	ce 01       	movw	r24, r28
    6f5c:	0e 94 a4 36 	call	0x6d48	; 0x6d48 <_ZN3Gps12setupGpsImplEv>
	//now flush and restart
	Serial1.flush();
    6f60:	88 eb       	ldi	r24, 0xB8	; 184
    6f62:	96 e0       	ldi	r25, 0x06	; 6
    6f64:	0e 94 ce 01 	call	0x39c	; 0x39c <_ZN14HardwareSerial5flushEv>
	Serial1.end();
    6f68:	88 eb       	ldi	r24, 0xB8	; 184
    6f6a:	96 e0       	ldi	r25, 0x06	; 6
    6f6c:	0e 94 c1 05 	call	0xb82	; 0xb82 <_ZN14HardwareSerial3endEv>
	Serial1.begin(model->getSerialBaud1(), SERIAL_8N1);
    6f70:	8c 81       	ldd	r24, Y+4	; 0x04
    6f72:	9d 81       	ldd	r25, Y+5	; 0x05
    6f74:	0e 94 9c 2e 	call	0x5d38	; 0x5d38 <_ZN14FreeBoardModel14getSerialBaud1Ev>
    6f78:	ab 01       	movw	r20, r22
    6f7a:	bc 01       	movw	r22, r24
    6f7c:	26 e0       	ldi	r18, 0x06	; 6
    6f7e:	88 eb       	ldi	r24, 0xB8	; 184
    6f80:	96 e0       	ldi	r25, 0x06	; 6
	//Serial1.begin(38400, SERIAL_8N1);
}
    6f82:	df 91       	pop	r29
    6f84:	cf 91       	pop	r28

	setupGpsImpl();
	//now flush and restart
	Serial1.flush();
	Serial1.end();
	Serial1.begin(model->getSerialBaud1(), SERIAL_8N1);
    6f86:	0c 94 29 05 	jmp	0xa52	; 0xa52 <_ZN14HardwareSerial5beginEmh>

00006f8a <_GLOBAL__sub_I_gpsBuffer>:
    6f8a:	10 92 20 11 	sts	0x1120, r1
    6f8e:	10 92 1f 11 	sts	0x111F, r1
#endif

public:

  // Basic constructor requires a preallocated buffer
  PString(char *buf, size_t size) : _buf(buf), _size(size)
    6f92:	88 e0       	ldi	r24, 0x08	; 8
    6f94:	92 e0       	ldi	r25, 0x02	; 2
    6f96:	90 93 1e 11 	sts	0x111E, r25
    6f9a:	80 93 1d 11 	sts	0x111D, r24
    6f9e:	87 e2       	ldi	r24, 0x27	; 39
    6fa0:	91 e1       	ldi	r25, 0x11	; 17
    6fa2:	90 93 22 11 	sts	0x1122, r25
    6fa6:	80 93 21 11 	sts	0x1121, r24
    6faa:	88 e2       	ldi	r24, 0x28	; 40
    6fac:	90 e0       	ldi	r25, 0x00	; 0
    6fae:	90 93 26 11 	sts	0x1126, r25
    6fb2:	80 93 25 11 	sts	0x1125, r24
  { begin(); }
    6fb6:	8d e1       	ldi	r24, 0x1D	; 29
    6fb8:	91 e1       	ldi	r25, 0x11	; 17
    6fba:	0c 94 d7 17 	jmp	0x2fae	; 0x2fae <_ZN7PString5beginEv>

00006fbe <_ZN10NmeaSerialD1Ev>:

class AltSoftSerial : public Stream
{
public:
	AltSoftSerial() { }
	~AltSoftSerial() { end(); }
    6fbe:	28 e1       	ldi	r18, 0x18	; 24
    6fc0:	32 e0       	ldi	r19, 0x02	; 2
    6fc2:	fc 01       	movw	r30, r24
    6fc4:	31 83       	std	Z+1, r19	; 0x01
    6fc6:	20 83       	st	Z, r18
    6fc8:	0c 94 1d 23 	jmp	0x463a	; 0x463a <_ZN13AltSoftSerial3endEv>

00006fcc <_ZN10NmeaSerialD0Ev>:
 *      Author: robert
 */

#include "NmeaSerial.h"

NmeaSerial::~NmeaSerial() {
    6fcc:	cf 93       	push	r28
    6fce:	df 93       	push	r29
    6fd0:	ec 01       	movw	r28, r24
    6fd2:	88 e1       	ldi	r24, 0x18	; 24
    6fd4:	92 e0       	ldi	r25, 0x02	; 2
    6fd6:	99 83       	std	Y+1, r25	; 0x01
    6fd8:	88 83       	st	Y, r24
    6fda:	0e 94 1d 23 	call	0x463a	; 0x463a <_ZN13AltSoftSerial3endEv>

}
    6fde:	ce 01       	movw	r24, r28
    6fe0:	df 91       	pop	r29
    6fe2:	cf 91       	pop	r28
    6fe4:	0c 94 89 15 	jmp	0x2b12	; 0x2b12 <_ZdlPv>

00006fe8 <_ZN10NmeaSerial5beginEl>:
void NmeaSerial::begin(long speed) {
	//initialise the nmea output
	//pinMode(nmeaRxPin, INPUT);
	//pinMode(nmeaTxPin, OUTPUT);
	AltSoftSerial::begin(speed);
    6fe8:	9a 01       	movw	r18, r20
    6fea:	ab 01       	movw	r20, r22
	static void begin(uint32_t baud) { init((F_CPU + baud / 2) / baud); }
    6fec:	ca 01       	movw	r24, r20
    6fee:	b9 01       	movw	r22, r18
    6ff0:	96 95       	lsr	r25
    6ff2:	87 95       	ror	r24
    6ff4:	77 95       	ror	r23
    6ff6:	67 95       	ror	r22
    6ff8:	7c 5d       	subi	r23, 0xDC	; 220
    6ffa:	8b 40       	sbci	r24, 0x0B	; 11
    6ffc:	9f 4f       	sbci	r25, 0xFF	; 255
    6ffe:	0e 94 fd 44 	call	0x89fa	; 0x89fa <__udivmodsi4>
    7002:	ca 01       	movw	r24, r20
    7004:	b9 01       	movw	r22, r18
    7006:	0c 94 03 21 	jmp	0x4206	; 0x4206 <_ZN13AltSoftSerial4initEm>

0000700a <_ZN10NmeaSerial9printNmeaEPc>:

void NmeaSerial::printNmea(char* sentence) {
	//sentence can be up to 80 chars
	//make it as perfect as possible, as the Raymarine C70 is very touchy
	// noInterrupts();
	println(sentence);
    700a:	0c 94 ea 06 	jmp	0xdd4	; 0xdd4 <_ZN5Print7printlnEPKc>

0000700e <_ZN10NmeaSerial13printWindNmeaEv>:
 * 4. Wind Speed Units, K/M/N
 * 5. Status, A = Data Valid
 * 6. Checksum
 *
 */
void NmeaSerial::printWindNmea() {
    700e:	cf 92       	push	r12
    7010:	df 92       	push	r13
    7012:	ef 92       	push	r14
    7014:	ff 92       	push	r15
    7016:	0f 93       	push	r16
    7018:	1f 93       	push	r17
    701a:	cf 93       	push	r28
    701c:	df 93       	push	r29
    701e:	cd b7       	in	r28, 0x3d	; 61
    7020:	de b7       	in	r29, 0x3e	; 62
    7022:	2a 97       	sbiw	r28, 0x0a	; 10
    7024:	0f b6       	in	r0, 0x3f	; 63
    7026:	f8 94       	cli
    7028:	de bf       	out	0x3e, r29	; 62
    702a:	0f be       	out	0x3f, r0	; 63
    702c:	cd bf       	out	0x3d, r28	; 61
    702e:	8c 01       	movw	r16, r24
	//Assemble a sentence of the various parts so that we can calculate the proper checksum

	PString str(windSentence, sizeof(windSentence));
    7030:	7c 01       	movw	r14, r24
    7032:	8e e0       	ldi	r24, 0x0E	; 14
    7034:	e8 0e       	add	r14, r24
    7036:	f1 1c       	adc	r15, r1
    7038:	1c 82       	std	Y+4, r1	; 0x04
    703a:	1b 82       	std	Y+3, r1	; 0x03
#endif

public:

  // Basic constructor requires a preallocated buffer
  PString(char *buf, size_t size) : _buf(buf), _size(size)
    703c:	88 e0       	ldi	r24, 0x08	; 8
    703e:	92 e0       	ldi	r25, 0x02	; 2
    7040:	9a 83       	std	Y+2, r25	; 0x02
    7042:	89 83       	std	Y+1, r24	; 0x01
    7044:	fe 82       	std	Y+6, r15	; 0x06
    7046:	ed 82       	std	Y+5, r14	; 0x05
    7048:	8e e1       	ldi	r24, 0x1E	; 30
    704a:	90 e0       	ldi	r25, 0x00	; 0
    704c:	9a 87       	std	Y+10, r25	; 0x0a
    704e:	89 87       	std	Y+9, r24	; 0x09
  { begin(); }
    7050:	ce 01       	movw	r24, r28
    7052:	01 96       	adiw	r24, 0x01	; 1
    7054:	0e 94 d7 17 	call	0x2fae	; 0x2fae <_ZN7PString5beginEv>
	str.print("$WIMWV,");
    7058:	6c e6       	ldi	r22, 0x6C	; 108
    705a:	75 e0       	ldi	r23, 0x05	; 5
    705c:	ce 01       	movw	r24, r28
    705e:	01 96       	adiw	r24, 0x01	; 1
    7060:	0e 94 99 06 	call	0xd32	; 0xd32 <_ZN5Print5printEPKc>
	str.print(model->getWindApparentDir());
    7064:	f8 01       	movw	r30, r16
    7066:	84 85       	ldd	r24, Z+12	; 0x0c
    7068:	95 85       	ldd	r25, Z+13	; 0x0d
    706a:	0e 94 f9 2c 	call	0x59f2	; 0x59f2 <_ZN14FreeBoardModel18getWindApparentDirEv>
    706e:	4a e0       	ldi	r20, 0x0A	; 10
    7070:	50 e0       	ldi	r21, 0x00	; 0
    7072:	bc 01       	movw	r22, r24
    7074:	ce 01       	movw	r24, r28
    7076:	01 96       	adiw	r24, 0x01	; 1
    7078:	0e 94 41 08 	call	0x1082	; 0x1082 <_ZN5Print5printEii>
	str.print(".0,R,");
    707c:	64 e7       	ldi	r22, 0x74	; 116
    707e:	75 e0       	ldi	r23, 0x05	; 5
    7080:	ce 01       	movw	r24, r28
    7082:	01 96       	adiw	r24, 0x01	; 1
    7084:	0e 94 99 06 	call	0xd32	; 0xd32 <_ZN5Print5printEPKc>
	str.print(model->getWindAverage());
    7088:	f8 01       	movw	r30, r16
    708a:	84 85       	ldd	r24, Z+12	; 0x0c
    708c:	95 85       	ldd	r25, Z+13	; 0x0d
    708e:	0e 94 ff 2c 	call	0x59fe	; 0x59fe <_ZN14FreeBoardModel14getWindAverageEv>
    7092:	ab 01       	movw	r20, r22
    7094:	bc 01       	movw	r22, r24
    7096:	22 e0       	ldi	r18, 0x02	; 2
    7098:	30 e0       	ldi	r19, 0x00	; 0
    709a:	ce 01       	movw	r24, r28
    709c:	01 96       	adiw	r24, 0x01	; 1
    709e:	0e 94 57 09 	call	0x12ae	; 0x12ae <_ZN5Print5printEdi>
	str.print(",N,A*");
    70a2:	6a e7       	ldi	r22, 0x7A	; 122
    70a4:	75 e0       	ldi	r23, 0x05	; 5
    70a6:	ce 01       	movw	r24, r28
    70a8:	01 96       	adiw	r24, 0x01	; 1
    70aa:	0e 94 99 06 	call	0xd32	; 0xd32 <_ZN5Print5printEPKc>
	//calculate the checksum

	cs = getChecksum(windSentence); //clear any old checksum
    70ae:	c7 01       	movw	r24, r14
    70b0:	0e 94 6d 33 	call	0x66da	; 0x66da <_Z11getChecksumPc>
    70b4:	68 01       	movw	r12, r16
    70b6:	f0 e4       	ldi	r31, 0x40	; 64
    70b8:	cf 0e       	add	r12, r31
    70ba:	d1 1c       	adc	r13, r1
    70bc:	f6 01       	movw	r30, r12
    70be:	80 83       	st	Z, r24
	//bug - arduino prints 0x007 as 7, 0x02B as 2B, so we add it now
	if (cs < 0x10) str.print('0');
    70c0:	80 31       	cpi	r24, 0x10	; 16
    70c2:	28 f4       	brcc	.+10     	; 0x70ce <_ZN10NmeaSerial13printWindNmeaEv+0xc0>
    70c4:	60 e3       	ldi	r22, 0x30	; 48
    70c6:	ce 01       	movw	r24, r28
    70c8:	01 96       	adiw	r24, 0x01	; 1
    70ca:	0e 94 9b 06 	call	0xd36	; 0xd36 <_ZN5Print5printEc>
	str.print(cs, HEX); // Assemble the final message and send it out the serial port
    70ce:	40 e1       	ldi	r20, 0x10	; 16
    70d0:	50 e0       	ldi	r21, 0x00	; 0
    70d2:	f6 01       	movw	r30, r12
    70d4:	60 81       	ld	r22, Z
    70d6:	ce 01       	movw	r24, r28
    70d8:	01 96       	adiw	r24, 0x01	; 1
    70da:	0e 94 c1 07 	call	0xf82	; 0xf82 <_ZN5Print5printEhi>
	Serial.println(windSentence);
    70de:	b7 01       	movw	r22, r14
    70e0:	8a ed       	ldi	r24, 0xDA	; 218
    70e2:	96 e0       	ldi	r25, 0x06	; 6
    70e4:	0e 94 ea 06 	call	0xdd4	; 0xdd4 <_ZN5Print7printlnEPKc>
	printNmea(windSentence);
    70e8:	b7 01       	movw	r22, r14
    70ea:	c8 01       	movw	r24, r16
    70ec:	0e 94 05 38 	call	0x700a	; 0x700a <_ZN10NmeaSerial9printNmeaEPc>

}
    70f0:	2a 96       	adiw	r28, 0x0a	; 10
    70f2:	0f b6       	in	r0, 0x3f	; 63
    70f4:	f8 94       	cli
    70f6:	de bf       	out	0x3e, r29	; 62
    70f8:	0f be       	out	0x3f, r0	; 63
    70fa:	cd bf       	out	0x3d, r28	; 61
    70fc:	df 91       	pop	r29
    70fe:	cf 91       	pop	r28
    7100:	1f 91       	pop	r17
    7102:	0f 91       	pop	r16
    7104:	ff 90       	pop	r15
    7106:	ef 90       	pop	r14
    7108:	df 90       	pop	r13
    710a:	cf 90       	pop	r12
    710c:	08 95       	ret

0000710e <_ZN10NmeaSerial16printTrueHeadingEv>:
 *Actual vessel heading in degrees Ture produced by any device or system producing true heading.
 *
 *$--HDT,x.x,T
 *x.x = Heading, degrees True
 */
void NmeaSerial::printTrueHeading() {
    710e:	af 92       	push	r10
    7110:	bf 92       	push	r11
    7112:	cf 92       	push	r12
    7114:	df 92       	push	r13
    7116:	ef 92       	push	r14
    7118:	ff 92       	push	r15
    711a:	0f 93       	push	r16
    711c:	1f 93       	push	r17
    711e:	cf 93       	push	r28
    7120:	df 93       	push	r29
    7122:	cd b7       	in	r28, 0x3d	; 61
    7124:	de b7       	in	r29, 0x3e	; 62
    7126:	2a 97       	sbiw	r28, 0x0a	; 10
    7128:	0f b6       	in	r0, 0x3f	; 63
    712a:	f8 94       	cli
    712c:	de bf       	out	0x3e, r29	; 62
    712e:	0f be       	out	0x3f, r0	; 63
    7130:	cd bf       	out	0x3d, r28	; 61
    7132:	8c 01       	movw	r16, r24
	//Assemble a sentence of the various parts so that we can calculate the proper checksum
	// declination is positive when true N is west of MagN, eg subtract the declination
	if(model->getDeclination()==0.0)return;
    7134:	fc 01       	movw	r30, r24
    7136:	84 85       	ldd	r24, Z+12	; 0x0c
    7138:	95 85       	ldd	r25, Z+13	; 0x0d
    713a:	0e 94 e3 2c 	call	0x59c6	; 0x59c6 <_ZN14FreeBoardModel14getDeclinationEv>
    713e:	20 e0       	ldi	r18, 0x00	; 0
    7140:	30 e0       	ldi	r19, 0x00	; 0
    7142:	a9 01       	movw	r20, r18
    7144:	0e 94 ea 41 	call	0x83d4	; 0x83d4 <__cmpsf2>
    7148:	88 23       	and	r24, r24
    714a:	09 f4       	brne	.+2      	; 0x714e <_ZN10NmeaSerial16printTrueHeadingEv+0x40>
    714c:	6f c0       	rjmp	.+222    	; 0x722c <_ZN10NmeaSerial16printTrueHeadingEv+0x11e>

	PString str(trueHeadingSentence, sizeof(trueHeadingSentence));
    714e:	58 01       	movw	r10, r16
    7150:	fc e2       	ldi	r31, 0x2C	; 44
    7152:	af 0e       	add	r10, r31
    7154:	b1 1c       	adc	r11, r1
    7156:	1c 82       	std	Y+4, r1	; 0x04
    7158:	1b 82       	std	Y+3, r1	; 0x03
#endif

public:

  // Basic constructor requires a preallocated buffer
  PString(char *buf, size_t size) : _buf(buf), _size(size)
    715a:	88 e0       	ldi	r24, 0x08	; 8
    715c:	92 e0       	ldi	r25, 0x02	; 2
    715e:	9a 83       	std	Y+2, r25	; 0x02
    7160:	89 83       	std	Y+1, r24	; 0x01
    7162:	be 82       	std	Y+6, r11	; 0x06
    7164:	ad 82       	std	Y+5, r10	; 0x05
    7166:	84 e1       	ldi	r24, 0x14	; 20
    7168:	90 e0       	ldi	r25, 0x00	; 0
    716a:	9a 87       	std	Y+10, r25	; 0x0a
    716c:	89 87       	std	Y+9, r24	; 0x09
  { begin(); }
    716e:	ce 01       	movw	r24, r28
    7170:	01 96       	adiw	r24, 0x01	; 1
    7172:	0e 94 d7 17 	call	0x2fae	; 0x2fae <_ZN7PString5beginEv>
	str.print("$HCHDT,");
    7176:	60 e8       	ldi	r22, 0x80	; 128
    7178:	75 e0       	ldi	r23, 0x05	; 5
    717a:	ce 01       	movw	r24, r28
    717c:	01 96       	adiw	r24, 0x01	; 1
    717e:	0e 94 99 06 	call	0xd32	; 0xd32 <_ZN5Print5printEPKc>
	float trueHeading = model->getMagneticHeading()-model->getDeclination();
    7182:	f8 01       	movw	r30, r16
    7184:	84 85       	ldd	r24, Z+12	; 0x0c
    7186:	95 85       	ldd	r25, Z+13	; 0x0d
    7188:	0e 94 d9 2c 	call	0x59b2	; 0x59b2 <_ZN14FreeBoardModel18getMagneticHeadingEv>
    718c:	6b 01       	movw	r12, r22
    718e:	7c 01       	movw	r14, r24
    7190:	f8 01       	movw	r30, r16
    7192:	84 85       	ldd	r24, Z+12	; 0x0c
    7194:	95 85       	ldd	r25, Z+13	; 0x0d
    7196:	0e 94 e3 2c 	call	0x59c6	; 0x59c6 <_ZN14FreeBoardModel14getDeclinationEv>
    719a:	9b 01       	movw	r18, r22
    719c:	ac 01       	movw	r20, r24
    719e:	c7 01       	movw	r24, r14
    71a0:	b6 01       	movw	r22, r12
    71a2:	0e 94 23 41 	call	0x8246	; 0x8246 <__subsf3>
    71a6:	ab 01       	movw	r20, r22
    71a8:	bc 01       	movw	r22, r24
	str.print(trueHeading);
    71aa:	22 e0       	ldi	r18, 0x02	; 2
    71ac:	30 e0       	ldi	r19, 0x00	; 0
    71ae:	ce 01       	movw	r24, r28
    71b0:	01 96       	adiw	r24, 0x01	; 1
    71b2:	0e 94 57 09 	call	0x12ae	; 0x12ae <_ZN5Print5printEdi>
	str.print(",T*");
    71b6:	68 e8       	ldi	r22, 0x88	; 136
    71b8:	75 e0       	ldi	r23, 0x05	; 5
    71ba:	ce 01       	movw	r24, r28
    71bc:	01 96       	adiw	r24, 0x01	; 1
    71be:	0e 94 99 06 	call	0xd32	; 0xd32 <_ZN5Print5printEPKc>
	//calculate the checksum

	cs = 0; //clear any old checksum
    71c2:	f8 01       	movw	r30, r16
    71c4:	e0 5c       	subi	r30, 0xC0	; 192
    71c6:	ff 4f       	sbci	r31, 0xFF	; 255
    71c8:	10 82       	st	Z, r1
	for (unsigned int n = 1; n < strlen(trueHeadingSentence) - 1; n++) {
    71ca:	81 e0       	ldi	r24, 0x01	; 1
    71cc:	90 e0       	ldi	r25, 0x00	; 0
    71ce:	7f 01       	movw	r14, r30
    71d0:	09 c0       	rjmp	.+18     	; 0x71e4 <_ZN10NmeaSerial16printTrueHeadingEv+0xd6>
 *Actual vessel heading in degrees Ture produced by any device or system producing true heading.
 *
 *$--HDT,x.x,T
 *x.x = Heading, degrees True
 */
void NmeaSerial::printTrueHeading() {
    71d2:	f8 01       	movw	r30, r16
    71d4:	e8 0f       	add	r30, r24
    71d6:	f9 1f       	adc	r31, r25
	str.print(",T*");
	//calculate the checksum

	cs = 0; //clear any old checksum
	for (unsigned int n = 1; n < strlen(trueHeadingSentence) - 1; n++) {
		cs ^= trueHeadingSentence[n]; //calculates the checksum
    71d8:	24 a5       	ldd	r18, Z+44	; 0x2c
    71da:	f7 01       	movw	r30, r14
    71dc:	30 81       	ld	r19, Z
    71de:	23 27       	eor	r18, r19
    71e0:	20 83       	st	Z, r18
	str.print(trueHeading);
	str.print(",T*");
	//calculate the checksum

	cs = 0; //clear any old checksum
	for (unsigned int n = 1; n < strlen(trueHeadingSentence) - 1; n++) {
    71e2:	01 96       	adiw	r24, 0x01	; 1
    71e4:	f5 01       	movw	r30, r10
    71e6:	01 90       	ld	r0, Z+
    71e8:	00 20       	and	r0, r0
    71ea:	e9 f7       	brne	.-6      	; 0x71e6 <_ZN10NmeaSerial16printTrueHeadingEv+0xd8>
    71ec:	ea 19       	sub	r30, r10
    71ee:	fb 09       	sbc	r31, r11
    71f0:	32 97       	sbiw	r30, 0x02	; 2
    71f2:	8e 17       	cp	r24, r30
    71f4:	9f 07       	cpc	r25, r31
    71f6:	68 f3       	brcs	.-38     	; 0x71d2 <_ZN10NmeaSerial16printTrueHeadingEv+0xc4>
		cs ^= trueHeadingSentence[n]; //calculates the checksum
	}
	//bug - arduino prints 0x007 as 7, 0x02B as 2B, so we add it now
	if (cs < 0x10) str.print('0');
    71f8:	f7 01       	movw	r30, r14
    71fa:	80 81       	ld	r24, Z
    71fc:	80 31       	cpi	r24, 0x10	; 16
    71fe:	28 f4       	brcc	.+10     	; 0x720a <_ZN10NmeaSerial16printTrueHeadingEv+0xfc>
    7200:	60 e3       	ldi	r22, 0x30	; 48
    7202:	ce 01       	movw	r24, r28
    7204:	01 96       	adiw	r24, 0x01	; 1
    7206:	0e 94 9b 06 	call	0xd36	; 0xd36 <_ZN5Print5printEc>
	str.print(cs, HEX); // Assemble the final message and send it out the serial port
    720a:	40 e1       	ldi	r20, 0x10	; 16
    720c:	50 e0       	ldi	r21, 0x00	; 0
    720e:	f7 01       	movw	r30, r14
    7210:	60 81       	ld	r22, Z
    7212:	ce 01       	movw	r24, r28
    7214:	01 96       	adiw	r24, 0x01	; 1
    7216:	0e 94 c1 07 	call	0xf82	; 0xf82 <_ZN5Print5printEhi>
	Serial.println(trueHeadingSentence);
    721a:	b5 01       	movw	r22, r10
    721c:	8a ed       	ldi	r24, 0xDA	; 218
    721e:	96 e0       	ldi	r25, 0x06	; 6
    7220:	0e 94 ea 06 	call	0xdd4	; 0xdd4 <_ZN5Print7printlnEPKc>
	printNmea(trueHeadingSentence);
    7224:	b5 01       	movw	r22, r10
    7226:	c8 01       	movw	r24, r16
    7228:	0e 94 05 38 	call	0x700a	; 0x700a <_ZN10NmeaSerial9printNmeaEPc>

}
    722c:	2a 96       	adiw	r28, 0x0a	; 10
    722e:	0f b6       	in	r0, 0x3f	; 63
    7230:	f8 94       	cli
    7232:	de bf       	out	0x3e, r29	; 62
    7234:	0f be       	out	0x3f, r0	; 63
    7236:	cd bf       	out	0x3d, r28	; 61
    7238:	df 91       	pop	r29
    723a:	cf 91       	pop	r28
    723c:	1f 91       	pop	r17
    723e:	0f 91       	pop	r16
    7240:	ff 90       	pop	r15
    7242:	ef 90       	pop	r14
    7244:	df 90       	pop	r13
    7246:	cf 90       	pop	r12
    7248:	bf 90       	pop	r11
    724a:	af 90       	pop	r10
    724c:	08 95       	ret

0000724e <_ZN7SeatalkC1EP14HardwareSerialP14FreeBoardModel>:

 */

#include "Seatalk.h"

	Seatalk::Seatalk( HardwareSerial* serial, FreeBoardModel* model) {
    724e:	fc 01       	movw	r30, r24
	this->model=model;
    7250:	57 8b       	std	Z+23, r21	; 0x17
    7252:	46 8b       	std	Z+22, r20	; 0x16
	this->serial=serial;
    7254:	71 8f       	std	Z+25, r23	; 0x19
    7256:	60 8f       	std	Z+24, r22	; 0x18
	seaTalkPos = 0;
    7258:	11 82       	std	Z+1, r1	; 0x01
    725a:	10 82       	st	Z, r1
    725c:	08 95       	ret

0000725e <_ZN7Seatalk18processSeaTalkByteEh>:
	// Send 36  00  01      Cancel MOB (Man Over Board) condition
	serial->write9(0x36, true);
	serial->write9(0x00, false);
	serial->write9(0x01, false);
}
void Seatalk::processSeaTalkByte(byte inByte) {
    725e:	fc 01       	movw	r30, r24
		processSeatalk(seatalkStream);
		seaTalkPos = 0;
		// Serial.print("Command:");
		inByte = inByte - 256;
	}
	seatalkStream[seaTalkPos] = inByte;
    7260:	a0 81       	ld	r26, Z
    7262:	b1 81       	ldd	r27, Z+1	; 0x01
    7264:	a8 0f       	add	r26, r24
    7266:	b9 1f       	adc	r27, r25
    7268:	12 96       	adiw	r26, 0x02	; 2
    726a:	6c 93       	st	X, r22
	if (seaTalkPos < 19)
    726c:	80 81       	ld	r24, Z
    726e:	91 81       	ldd	r25, Z+1	; 0x01
    7270:	43 97       	sbiw	r24, 0x13	; 19
    7272:	2c f4       	brge	.+10     	; 0x727e <_ZN7Seatalk18processSeaTalkByteEh+0x20>
		seaTalkPos++;
    7274:	80 81       	ld	r24, Z
    7276:	91 81       	ldd	r25, Z+1	; 0x01
    7278:	01 96       	adiw	r24, 0x01	; 1
    727a:	91 83       	std	Z+1, r25	; 0x01
    727c:	80 83       	st	Z, r24
    727e:	08 95       	ret

00007280 <_ZN4WindC1EP14FreeBoardModel>:
		57318, 57864, 58392, 58902, 59395, 59869, 60325, 60763, 61182, 61583, 61965, 62327, 62671, 62996, 63302, 63588, 63855, 64103, 64331, 64539, 64728,
		64897, 65047, 65176, 65286, 65375, 65445, 65495, 65525, 65535, };

AverageList<val> dirList = AverageList<val>(dirStorage, MAX_NUMBER_OF_READINGS);

Wind::Wind(FreeBoardModel* model) {
    7280:	cf 93       	push	r28
    7282:	df 93       	push	r29
    7284:	eb 01       	movw	r28, r22
	this->model = model;
    7286:	fc 01       	movw	r30, r24
    7288:	71 83       	std	Z+1, r23	; 0x01
    728a:	60 83       	st	Z, r22
	//initialise the wind interrupt
	windSpeedMicros = micros();
    728c:	0e 94 f9 15 	call	0x2bf2	; 0x2bf2 <micros>
    7290:	60 93 8c 11 	sts	0x118C, r22
    7294:	70 93 8d 11 	sts	0x118D, r23
    7298:	80 93 8e 11 	sts	0x118E, r24
    729c:	90 93 8f 11 	sts	0x118F, r25
	windSpeedMicrosLast = windSpeedMicros;
    72a0:	40 91 8c 11 	lds	r20, 0x118C
    72a4:	50 91 8d 11 	lds	r21, 0x118D
    72a8:	60 91 8e 11 	lds	r22, 0x118E
    72ac:	70 91 8f 11 	lds	r23, 0x118F
    72b0:	40 93 88 11 	sts	0x1188, r20
    72b4:	50 93 89 11 	sts	0x1189, r21
    72b8:	60 93 8a 11 	sts	0x118A, r22
    72bc:	70 93 8b 11 	sts	0x118B, r23
	windDirDur = 0;
    72c0:	10 92 78 11 	sts	0x1178, r1
    72c4:	10 92 79 11 	sts	0x1179, r1
    72c8:	10 92 7a 11 	sts	0x117A, r1
    72cc:	10 92 7b 11 	sts	0x117B, r1
	windSpeedDur = 0;
    72d0:	10 92 7c 11 	sts	0x117C, r1
    72d4:	10 92 7d 11 	sts	0x117D, r1
    72d8:	10 92 7e 11 	sts	0x117E, r1
    72dc:	10 92 7f 11 	sts	0x117F, r1
	windSpeedFlag = true;
    72e0:	81 e0       	ldi	r24, 0x01	; 1
    72e2:	80 93 5f 11 	sts	0x115F, r24
	windDirFlag = true;
    72e6:	80 93 5e 11 	sts	0x115E, r24
			return min;
		}
		
		//reset the AverageList
		void reset(){ 
			currentSize = 0; 
    72ea:	10 92 52 11 	sts	0x1152, r1
			currentIndex = 0;
    72ee:	10 92 53 11 	sts	0x1153, r1
			for (byte i=0; i<size; i++){ values[i]=0; }
    72f2:	80 91 4f 11 	lds	r24, 0x114F
    72f6:	90 91 50 11 	lds	r25, 0x1150
    72fa:	20 e0       	ldi	r18, 0x00	; 0
    72fc:	09 c0       	rjmp	.+18     	; 0x7310 <_ZN4WindC1EP14FreeBoardModel+0x90>
    72fe:	fc 01       	movw	r30, r24
    7300:	32 e0       	ldi	r19, 0x02	; 2
    7302:	23 9f       	mul	r18, r19
    7304:	e0 0d       	add	r30, r0
    7306:	f1 1d       	adc	r31, r1
    7308:	11 24       	eor	r1, r1
    730a:	11 82       	std	Z+1, r1	; 0x01
    730c:	10 82       	st	Z, r1
    730e:	2f 5f       	subi	r18, 0xFF	; 255
    7310:	30 91 51 11 	lds	r19, 0x1151
    7314:	23 17       	cp	r18, r19
    7316:	98 f3       	brcs	.-26     	; 0x72fe <_ZN4WindC1EP14FreeBoardModel+0x7e>
	dirList.reset();

	// read the last wind alarm values
	if (model->getWindAlarmSpeed() > 99) {
    7318:	ce 01       	movw	r24, r28
    731a:	0e 94 f3 2c 	call	0x59e6	; 0x59e6 <_ZN14FreeBoardModel17getWindAlarmSpeedEv>
    731e:	84 36       	cpi	r24, 0x64	; 100
    7320:	91 05       	cpc	r25, r1
    7322:	3c f0       	brlt	.+14     	; 0x7332 <_ZN4WindC1EP14FreeBoardModel+0xb2>
		model->setWindAlarmSpeed(99);
    7324:	63 e6       	ldi	r22, 0x63	; 99
    7326:	70 e0       	ldi	r23, 0x00	; 0
    7328:	ce 01       	movw	r24, r28
	}
}
    732a:	df 91       	pop	r29
    732c:	cf 91       	pop	r28
	windDirFlag = true;
	dirList.reset();

	// read the last wind alarm values
	if (model->getWindAlarmSpeed() > 99) {
		model->setWindAlarmSpeed(99);
    732e:	0c 94 24 2e 	jmp	0x5c48	; 0x5c48 <_ZN14FreeBoardModel17setWindAlarmSpeedEi>
	}
}
    7332:	df 91       	pop	r29
    7334:	cf 91       	pop	r28
    7336:	08 95       	ret

00007338 <_ZN4Wind8isinLongEl>:

//routines for fast sin and cos

long Wind::isinLong(long x) {
    7338:	cf 92       	push	r12
    733a:	df 92       	push	r13
    733c:	ef 92       	push	r14
    733e:	ff 92       	push	r15
    7340:	0f 93       	push	r16
    7342:	1f 93       	push	r17
    7344:	cf 93       	push	r28
    7346:	cb 01       	movw	r24, r22
    7348:	ba 01       	movw	r22, r20
	boolean pos = true; // positive - keeps an eye on the sign.
	if (x < 0) {
    734a:	97 ff       	sbrs	r25, 7
    734c:	09 c0       	rjmp	.+18     	; 0x7360 <_ZN4Wind8isinLongEl+0x28>
		x = -x;
    734e:	90 95       	com	r25
    7350:	80 95       	com	r24
    7352:	70 95       	com	r23
    7354:	61 95       	neg	r22
    7356:	7f 4f       	sbci	r23, 0xFF	; 255
    7358:	8f 4f       	sbci	r24, 0xFF	; 255
    735a:	9f 4f       	sbci	r25, 0xFF	; 255
		pos = !pos;
    735c:	c0 e0       	ldi	r28, 0x00	; 0
    735e:	01 c0       	rjmp	.+2      	; 0x7362 <_ZN4Wind8isinLongEl+0x2a>
}

//routines for fast sin and cos

long Wind::isinLong(long x) {
	boolean pos = true; // positive - keeps an eye on the sign.
    7360:	c1 e0       	ldi	r28, 0x01	; 1
	if (x < 0) {
		x = -x;
		pos = !pos;
	}
	if (x >= 360) x %= 360;
    7362:	68 36       	cpi	r22, 0x68	; 104
    7364:	21 e0       	ldi	r18, 0x01	; 1
    7366:	72 07       	cpc	r23, r18
    7368:	81 05       	cpc	r24, r1
    736a:	91 05       	cpc	r25, r1
    736c:	34 f0       	brlt	.+12     	; 0x737a <_ZN4Wind8isinLongEl+0x42>
    736e:	28 e6       	ldi	r18, 0x68	; 104
    7370:	31 e0       	ldi	r19, 0x01	; 1
    7372:	40 e0       	ldi	r20, 0x00	; 0
    7374:	50 e0       	ldi	r21, 0x00	; 0
    7376:	0e 94 1f 45 	call	0x8a3e	; 0x8a3e <__divmodsi4>
	if (x > 180) {
    737a:	65 3b       	cpi	r22, 0xB5	; 181
    737c:	71 05       	cpc	r23, r1
    737e:	81 05       	cpc	r24, r1
    7380:	91 05       	cpc	r25, r1
    7382:	34 f0       	brlt	.+12     	; 0x7390 <_ZN4Wind8isinLongEl+0x58>
		x -= 180;
    7384:	64 5b       	subi	r22, 0xB4	; 180
    7386:	71 09       	sbc	r23, r1
    7388:	81 09       	sbc	r24, r1
    738a:	91 09       	sbc	r25, r1
    738c:	21 e0       	ldi	r18, 0x01	; 1
    738e:	c2 27       	eor	r28, r18
		pos = !pos;
	}
	if (x > 90) x = 180 - x;
    7390:	6b 35       	cpi	r22, 0x5B	; 91
    7392:	71 05       	cpc	r23, r1
    7394:	81 05       	cpc	r24, r1
    7396:	91 05       	cpc	r25, r1
    7398:	64 f0       	brlt	.+24     	; 0x73b2 <_ZN4Wind8isinLongEl+0x7a>
    739a:	04 eb       	ldi	r16, 0xB4	; 180
    739c:	10 e0       	ldi	r17, 0x00	; 0
    739e:	20 e0       	ldi	r18, 0x00	; 0
    73a0:	30 e0       	ldi	r19, 0x00	; 0
    73a2:	68 01       	movw	r12, r16
    73a4:	79 01       	movw	r14, r18
    73a6:	c6 1a       	sub	r12, r22
    73a8:	d7 0a       	sbc	r13, r23
    73aa:	e8 0a       	sbc	r14, r24
    73ac:	f9 0a       	sbc	r15, r25
    73ae:	c7 01       	movw	r24, r14
    73b0:	b6 01       	movw	r22, r12

	if (pos) return isinTable16[x]; // = /65535.0
    73b2:	fb 01       	movw	r30, r22
    73b4:	ee 0f       	add	r30, r30
    73b6:	ff 1f       	adc	r31, r31
    73b8:	e0 56       	subi	r30, 0x60	; 96
    73ba:	fa 4f       	sbci	r31, 0xFA	; 250
    73bc:	00 81       	ld	r16, Z
    73be:	11 81       	ldd	r17, Z+1	; 0x01
    73c0:	c1 11       	cpse	r28, r1
    73c2:	03 c0       	rjmp	.+6      	; 0x73ca <_ZN4Wind8isinLongEl+0x92>
	return 0 - isinTable16[x];
    73c4:	11 95       	neg	r17
    73c6:	01 95       	neg	r16
    73c8:	11 09       	sbc	r17, r1
    73ca:	20 e0       	ldi	r18, 0x00	; 0
    73cc:	30 e0       	ldi	r19, 0x00	; 0
}
    73ce:	b8 01       	movw	r22, r16
    73d0:	c9 01       	movw	r24, r18
    73d2:	cf 91       	pop	r28
    73d4:	1f 91       	pop	r17
    73d6:	0f 91       	pop	r16
    73d8:	ff 90       	pop	r15
    73da:	ef 90       	pop	r14
    73dc:	df 90       	pop	r13
    73de:	cf 90       	pop	r12
    73e0:	08 95       	ret

000073e2 <_ZN4Wind8icosLongEl>:
float Wind::isin(long x) {
	return isinLong(x) * 0.0000152590219;
}

long Wind::icosLong(long x) {
	return isinLong(x + 90);
    73e2:	46 5a       	subi	r20, 0xA6	; 166
    73e4:	5f 4f       	sbci	r21, 0xFF	; 255
    73e6:	6f 4f       	sbci	r22, 0xFF	; 255
    73e8:	7f 4f       	sbci	r23, 0xFF	; 255
    73ea:	0c 94 9c 39 	jmp	0x7338	; 0x7338 <_ZN4Wind8isinLongEl>

000073ee <_ZN4Wind20getRotationalAverageEv>:

/*
 * return the average of all circular (0-360) values in DEGREES added with an addRotationalValue call
 * Range is 0-360 DEGREES
 */
int Wind::getRotationalAverage() {
    73ee:	4f 92       	push	r4
    73f0:	5f 92       	push	r5
    73f2:	6f 92       	push	r6
    73f4:	7f 92       	push	r7
    73f6:	8f 92       	push	r8
    73f8:	9f 92       	push	r9
    73fa:	af 92       	push	r10
    73fc:	bf 92       	push	r11
    73fe:	cf 92       	push	r12
    7400:	df 92       	push	r13
    7402:	ef 92       	push	r14
    7404:	ff 92       	push	r15
    7406:	cf 93       	push	r28
    7408:	df 93       	push	r29
    740a:	3c 01       	movw	r6, r24
	long y = 0;
	float xf, yf = 0;

	byte i = 0;

	for (; i < dirList.getCurrentSize(); i++) {
    740c:	40 90 52 11 	lds	r4, 0x1152
    7410:	c0 91 4f 11 	lds	r28, 0x114F
    7414:	d0 91 50 11 	lds	r29, 0x1150
int Wind::getRotationalAverage() {
	long x =0;
	long y = 0;
	float xf, yf = 0;

	byte i = 0;
    7418:	51 2c       	mov	r5, r1
 * return the average of all circular (0-360) values in DEGREES added with an addRotationalValue call
 * Range is 0-360 DEGREES
 */
int Wind::getRotationalAverage() {
	long x =0;
	long y = 0;
    741a:	81 2c       	mov	r8, r1
    741c:	91 2c       	mov	r9, r1
    741e:	54 01       	movw	r10, r8
/*
 * return the average of all circular (0-360) values in DEGREES added with an addRotationalValue call
 * Range is 0-360 DEGREES
 */
int Wind::getRotationalAverage() {
	long x =0;
    7420:	c1 2c       	mov	r12, r1
    7422:	d1 2c       	mov	r13, r1
    7424:	76 01       	movw	r14, r12
	long y = 0;
	float xf, yf = 0;

	byte i = 0;

	for (; i < dirList.getCurrentSize(); i++) {
    7426:	19 c0       	rjmp	.+50     	; 0x745a <_ZN4Wind20getRotationalAverageEv+0x6c>
			return false;
		}
		//return the current index
		byte getCurrentIndex() { return currentIndex; }
		byte getCurrentSize() { return currentSize; }
		datatype getValue(byte x) { return values[x]; }
    7428:	88 81       	ld	r24, Y
    742a:	99 81       	ldd	r25, Y+1	; 0x01
		x += icosLong(dirList.getValue(i));
    742c:	ac 01       	movw	r20, r24
    742e:	60 e0       	ldi	r22, 0x00	; 0
    7430:	70 e0       	ldi	r23, 0x00	; 0
    7432:	c3 01       	movw	r24, r6
    7434:	0e 94 f1 39 	call	0x73e2	; 0x73e2 <_ZN4Wind8icosLongEl>
    7438:	c6 0e       	add	r12, r22
    743a:	d7 1e       	adc	r13, r23
    743c:	e8 1e       	adc	r14, r24
    743e:	f9 1e       	adc	r15, r25
    7440:	89 91       	ld	r24, Y+
    7442:	99 91       	ld	r25, Y+
		y += isinLong(dirList.getValue(i));
    7444:	ac 01       	movw	r20, r24
    7446:	60 e0       	ldi	r22, 0x00	; 0
    7448:	70 e0       	ldi	r23, 0x00	; 0
    744a:	c3 01       	movw	r24, r6
    744c:	0e 94 9c 39 	call	0x7338	; 0x7338 <_ZN4Wind8isinLongEl>
    7450:	86 0e       	add	r8, r22
    7452:	97 1e       	adc	r9, r23
    7454:	a8 1e       	adc	r10, r24
    7456:	b9 1e       	adc	r11, r25
	long y = 0;
	float xf, yf = 0;

	byte i = 0;

	for (; i < dirList.getCurrentSize(); i++) {
    7458:	53 94       	inc	r5
    745a:	54 10       	cpse	r5, r4
    745c:	e5 cf       	rjmp	.-54     	; 0x7428 <_ZN4Wind20getRotationalAverageEv+0x3a>
		y += isinLong(dirList.getValue(i));
		//Serial.print("DEBUG:angle=");
		//Serial.println(dirList.getValue(i));
	}
	//TODO:watch out for zeros
	if (x == 0l && y == 0l) {
    745e:	c1 14       	cp	r12, r1
    7460:	d1 04       	cpc	r13, r1
    7462:	e1 04       	cpc	r14, r1
    7464:	f1 04       	cpc	r15, r1
    7466:	29 f4       	brne	.+10     	; 0x7472 <_ZN4Wind20getRotationalAverageEv+0x84>
    7468:	81 14       	cp	r8, r1
    746a:	91 04       	cpc	r9, r1
    746c:	a1 04       	cpc	r10, r1
    746e:	b1 04       	cpc	r11, r1
    7470:	99 f1       	breq	.+102    	; 0x74d8 <_ZN4Wind20getRotationalAverageEv+0xea>
		return 0l;
	}
	xf = (x* 0.0000152590219) / i;
    7472:	64 2d       	mov	r22, r4
    7474:	70 e0       	ldi	r23, 0x00	; 0
    7476:	80 e0       	ldi	r24, 0x00	; 0
    7478:	90 e0       	ldi	r25, 0x00	; 0
    747a:	0e 94 8c 42 	call	0x8518	; 0x8518 <__floatsisf>
    747e:	2b 01       	movw	r4, r22
    7480:	3c 01       	movw	r6, r24
    7482:	c7 01       	movw	r24, r14
    7484:	b6 01       	movw	r22, r12
    7486:	0e 94 8c 42 	call	0x8518	; 0x8518 <__floatsisf>
    748a:	20 e8       	ldi	r18, 0x80	; 128
    748c:	30 e0       	ldi	r19, 0x00	; 0
    748e:	40 e8       	ldi	r20, 0x80	; 128
    7490:	57 e3       	ldi	r21, 0x37	; 55
    7492:	0e 94 f8 43 	call	0x87f0	; 0x87f0 <__mulsf3>
    7496:	a3 01       	movw	r20, r6
    7498:	92 01       	movw	r18, r4
    749a:	0e 94 f1 41 	call	0x83e2	; 0x83e2 <__divsf3>
    749e:	6b 01       	movw	r12, r22
    74a0:	7c 01       	movw	r14, r24
	yf = (y* 0.0000152590219) / i;
    74a2:	c5 01       	movw	r24, r10
    74a4:	b4 01       	movw	r22, r8
    74a6:	0e 94 8c 42 	call	0x8518	; 0x8518 <__floatsisf>
    74aa:	20 e8       	ldi	r18, 0x80	; 128
    74ac:	30 e0       	ldi	r19, 0x00	; 0
    74ae:	40 e8       	ldi	r20, 0x80	; 128
    74b0:	57 e3       	ldi	r21, 0x37	; 55
    74b2:	0e 94 f8 43 	call	0x87f0	; 0x87f0 <__mulsf3>
    74b6:	a3 01       	movw	r20, r6
    74b8:	92 01       	movw	r18, r4
    74ba:	0e 94 f1 41 	call	0x83e2	; 0x83e2 <__divsf3>
	//Serial.print(", cos=");
	//Serial.print(xf);
	//Serial.print("sin=");
	//Serial.println(yf);

	return degrees(atan2(yf, xf));
    74be:	a7 01       	movw	r20, r14
    74c0:	96 01       	movw	r18, r12
    74c2:	0e 94 97 41 	call	0x832e	; 0x832e <atan2>
    74c6:	21 ee       	ldi	r18, 0xE1	; 225
    74c8:	3e e2       	ldi	r19, 0x2E	; 46
    74ca:	45 e6       	ldi	r20, 0x65	; 101
    74cc:	52 e4       	ldi	r21, 0x42	; 66
    74ce:	0e 94 f8 43 	call	0x87f0	; 0x87f0 <__mulsf3>
    74d2:	0e 94 59 42 	call	0x84b2	; 0x84b2 <__fixsfsi>
    74d6:	02 c0       	rjmp	.+4      	; 0x74dc <_ZN4Wind20getRotationalAverageEv+0xee>
		//Serial.print("DEBUG:angle=");
		//Serial.println(dirList.getValue(i));
	}
	//TODO:watch out for zeros
	if (x == 0l && y == 0l) {
		return 0l;
    74d8:	60 e0       	ldi	r22, 0x00	; 0
    74da:	70 e0       	ldi	r23, 0x00	; 0
	//Serial.print("sin=");
	//Serial.println(yf);

	return degrees(atan2(yf, xf));

}
    74dc:	cb 01       	movw	r24, r22
    74de:	df 91       	pop	r29
    74e0:	cf 91       	pop	r28
    74e2:	ff 90       	pop	r15
    74e4:	ef 90       	pop	r14
    74e6:	df 90       	pop	r13
    74e8:	cf 90       	pop	r12
    74ea:	bf 90       	pop	r11
    74ec:	af 90       	pop	r10
    74ee:	9f 90       	pop	r9
    74f0:	8f 90       	pop	r8
    74f2:	7f 90       	pop	r7
    74f4:	6f 90       	pop	r6
    74f6:	5f 90       	pop	r5
    74f8:	4f 90       	pop	r4
    74fa:	08 95       	ret

000074fc <_ZN4Wind17readWindDataSpeedEv>:

/* NMEA Wind routines and alarm
 */
void Wind::readWindDataSpeed() {
    74fc:	0f 93       	push	r16
    74fe:	1f 93       	push	r17
	//fastest rps = 15ms - avoid bounce
	if ((millis() - lastSpeedPulse) > 15) {
    7500:	0e 94 e7 15 	call	0x2bce	; 0x2bce <millis>
    7504:	00 91 98 11 	lds	r16, 0x1198
    7508:	10 91 99 11 	lds	r17, 0x1199
    750c:	20 91 9a 11 	lds	r18, 0x119A
    7510:	30 91 9b 11 	lds	r19, 0x119B
    7514:	60 1b       	sub	r22, r16
    7516:	71 0b       	sbc	r23, r17
    7518:	82 0b       	sbc	r24, r18
    751a:	93 0b       	sbc	r25, r19
    751c:	60 31       	cpi	r22, 0x10	; 16
    751e:	71 05       	cpc	r23, r1
    7520:	81 05       	cpc	r24, r1
    7522:	91 05       	cpc	r25, r1
    7524:	70 f1       	brcs	.+92     	; 0x7582 <_ZN4Wind17readWindDataSpeedEv+0x86>
		if (windSpeedFlag) {
    7526:	80 91 5f 11 	lds	r24, 0x115F
    752a:	88 23       	and	r24, r24
    752c:	e9 f0       	breq	.+58     	; 0x7568 <_ZN4Wind17readWindDataSpeedEv+0x6c>
			//called by speed pin interrupt
			windSpeedMicrosLast = windSpeedMicros;
    752e:	80 91 8c 11 	lds	r24, 0x118C
    7532:	90 91 8d 11 	lds	r25, 0x118D
    7536:	a0 91 8e 11 	lds	r26, 0x118E
    753a:	b0 91 8f 11 	lds	r27, 0x118F
    753e:	80 93 88 11 	sts	0x1188, r24
    7542:	90 93 89 11 	sts	0x1189, r25
    7546:	a0 93 8a 11 	sts	0x118A, r26
    754a:	b0 93 8b 11 	sts	0x118B, r27
			windSpeedMicros = micros();
    754e:	0e 94 f9 15 	call	0x2bf2	; 0x2bf2 <micros>
    7552:	60 93 8c 11 	sts	0x118C, r22
    7556:	70 93 8d 11 	sts	0x118D, r23
    755a:	80 93 8e 11 	sts	0x118E, r24
    755e:	90 93 8f 11 	sts	0x118F, r25
			windSpeedFlag = false;
    7562:	10 92 5f 11 	sts	0x115F, r1
    7566:	03 c0       	rjmp	.+6      	; 0x756e <_ZN4Wind17readWindDataSpeedEv+0x72>
		} else {
			windSpeedFlag = true;
    7568:	81 e0       	ldi	r24, 0x01	; 1
    756a:	80 93 5f 11 	sts	0x115F, r24
		}
		lastSpeedPulse = millis();
    756e:	0e 94 e7 15 	call	0x2bce	; 0x2bce <millis>
    7572:	60 93 98 11 	sts	0x1198, r22
    7576:	70 93 99 11 	sts	0x1199, r23
    757a:	80 93 9a 11 	sts	0x119A, r24
    757e:	90 93 9b 11 	sts	0x119B, r25
	}
}
    7582:	1f 91       	pop	r17
    7584:	0f 91       	pop	r16
    7586:	08 95       	ret

00007588 <_ZN4Wind15readWindDataDirEv>:

void Wind::readWindDataDir() {
    7588:	0f 93       	push	r16
    758a:	1f 93       	push	r17
	if((millis() - lastDirPulse) > 15) {
    758c:	0e 94 e7 15 	call	0x2bce	; 0x2bce <millis>
    7590:	00 91 94 11 	lds	r16, 0x1194
    7594:	10 91 95 11 	lds	r17, 0x1195
    7598:	20 91 96 11 	lds	r18, 0x1196
    759c:	30 91 97 11 	lds	r19, 0x1197
    75a0:	60 1b       	sub	r22, r16
    75a2:	71 0b       	sbc	r23, r17
    75a4:	82 0b       	sbc	r24, r18
    75a6:	93 0b       	sbc	r25, r19
    75a8:	60 31       	cpi	r22, 0x10	; 16
    75aa:	71 05       	cpc	r23, r1
    75ac:	81 05       	cpc	r24, r1
    75ae:	91 05       	cpc	r25, r1
    75b0:	70 f1       	brcs	.+92     	; 0x760e <_ZN4Wind15readWindDataDirEv+0x86>
		if (windDirFlag) {
    75b2:	80 91 5e 11 	lds	r24, 0x115E
    75b6:	88 23       	and	r24, r24
    75b8:	e9 f0       	breq	.+58     	; 0x75f4 <_ZN4Wind15readWindDataDirEv+0x6c>
			windDirMicrosLast = windDirMicros;
    75ba:	80 91 84 11 	lds	r24, 0x1184
    75be:	90 91 85 11 	lds	r25, 0x1185
    75c2:	a0 91 86 11 	lds	r26, 0x1186
    75c6:	b0 91 87 11 	lds	r27, 0x1187
    75ca:	80 93 80 11 	sts	0x1180, r24
    75ce:	90 93 81 11 	sts	0x1181, r25
    75d2:	a0 93 82 11 	sts	0x1182, r26
    75d6:	b0 93 83 11 	sts	0x1183, r27
			windDirMicros = micros();
    75da:	0e 94 f9 15 	call	0x2bf2	; 0x2bf2 <micros>
    75de:	60 93 84 11 	sts	0x1184, r22
    75e2:	70 93 85 11 	sts	0x1185, r23
    75e6:	80 93 86 11 	sts	0x1186, r24
    75ea:	90 93 87 11 	sts	0x1187, r25
			windDirFlag = false;
    75ee:	10 92 5e 11 	sts	0x115E, r1
    75f2:	03 c0       	rjmp	.+6      	; 0x75fa <_ZN4Wind15readWindDataDirEv+0x72>
		} else {
			windDirFlag = true;
    75f4:	81 e0       	ldi	r24, 0x01	; 1
    75f6:	80 93 5e 11 	sts	0x115E, r24
		}
		lastDirPulse=millis();
    75fa:	0e 94 e7 15 	call	0x2bce	; 0x2bce <millis>
    75fe:	60 93 94 11 	sts	0x1194, r22
    7602:	70 93 95 11 	sts	0x1195, r23
    7606:	80 93 96 11 	sts	0x1196, r24
    760a:	90 93 97 11 	sts	0x1197, r25
	}
}
    760e:	1f 91       	pop	r17
    7610:	0f 91       	pop	r16
    7612:	08 95       	ret

00007614 <_ZN4Wind19calcWindSpeedAndDirEv>:

/*
 * The anemometer turns up to 60rps at 140knots - so min 16ms/16000us per turn
 * Mostly much lower :-)
 */
void Wind::calcWindSpeedAndDir() {
    7614:	4f 92       	push	r4
    7616:	5f 92       	push	r5
    7618:	6f 92       	push	r6
    761a:	7f 92       	push	r7
    761c:	8f 92       	push	r8
    761e:	9f 92       	push	r9
    7620:	af 92       	push	r10
    7622:	bf 92       	push	r11
    7624:	cf 92       	push	r12
    7626:	df 92       	push	r13
    7628:	ef 92       	push	r14
    762a:	ff 92       	push	r15
    762c:	cf 93       	push	r28
    762e:	df 93       	push	r29
    7630:	00 d0       	rcall	.+0      	; 0x7632 <_ZN4Wind19calcWindSpeedAndDirEv+0x1e>
    7632:	1f 92       	push	r1
    7634:	cd b7       	in	r28, 0x3d	; 61
    7636:	de b7       	in	r29, 0x3e	; 62
//grab data
// an interrupt could fire in here
	noInterrupts();
    7638:	f8 94       	cli
	wsTempLast = windSpeedMicrosLast;
    763a:	80 91 88 11 	lds	r24, 0x1188
    763e:	90 91 89 11 	lds	r25, 0x1189
    7642:	a0 91 8a 11 	lds	r26, 0x118A
    7646:	b0 91 8b 11 	lds	r27, 0x118B
    764a:	80 93 74 11 	sts	0x1174, r24
    764e:	90 93 75 11 	sts	0x1175, r25
    7652:	a0 93 76 11 	sts	0x1176, r26
    7656:	b0 93 77 11 	sts	0x1177, r27
	wsTemp = windSpeedMicros;
    765a:	80 91 8c 11 	lds	r24, 0x118C
    765e:	90 91 8d 11 	lds	r25, 0x118D
    7662:	a0 91 8e 11 	lds	r26, 0x118E
    7666:	b0 91 8f 11 	lds	r27, 0x118F
    766a:	80 93 70 11 	sts	0x1170, r24
    766e:	90 93 71 11 	sts	0x1171, r25
    7672:	a0 93 72 11 	sts	0x1172, r26
    7676:	b0 93 73 11 	sts	0x1173, r27
	wdTemp = windDirMicros;
    767a:	80 91 84 11 	lds	r24, 0x1184
    767e:	90 91 85 11 	lds	r25, 0x1185
    7682:	a0 91 86 11 	lds	r26, 0x1186
    7686:	b0 91 87 11 	lds	r27, 0x1187
    768a:	80 93 64 11 	sts	0x1164, r24
    768e:	90 93 65 11 	sts	0x1165, r25
    7692:	a0 93 66 11 	sts	0x1166, r26
    7696:	b0 93 67 11 	sts	0x1167, r27
	interrupts();
    769a:	78 94       	sei
	Serial.println(wsTemp);
	*/
//interrupts();
//micros resets every 50 min,
// avoid 0, bad data, rollover and too fast (bounce? <15ms)
	if (wsTempLast >= wsTemp || wsTemp - wsTempLast < 15000ul) {
    769c:	40 90 74 11 	lds	r4, 0x1174
    76a0:	50 90 75 11 	lds	r5, 0x1175
    76a4:	60 90 76 11 	lds	r6, 0x1176
    76a8:	70 90 77 11 	lds	r7, 0x1177
    76ac:	80 90 70 11 	lds	r8, 0x1170
    76b0:	90 90 71 11 	lds	r9, 0x1171
    76b4:	a0 90 72 11 	lds	r10, 0x1172
    76b8:	b0 90 73 11 	lds	r11, 0x1173
    76bc:	48 14       	cp	r4, r8
    76be:	59 04       	cpc	r5, r9
    76c0:	6a 04       	cpc	r6, r10
    76c2:	7b 04       	cpc	r7, r11
    76c4:	08 f0       	brcs	.+2      	; 0x76c8 <_ZN4Wind19calcWindSpeedAndDirEv+0xb4>
    76c6:	ff c1       	rjmp	.+1022   	; 0x7ac6 <_ZN4Wind19calcWindSpeedAndDirEv+0x4b2>
    76c8:	75 01       	movw	r14, r10
    76ca:	64 01       	movw	r12, r8
    76cc:	c4 18       	sub	r12, r4
    76ce:	d5 08       	sbc	r13, r5
    76d0:	e6 08       	sbc	r14, r6
    76d2:	f7 08       	sbc	r15, r7
    76d4:	28 e9       	ldi	r18, 0x98	; 152
    76d6:	c2 16       	cp	r12, r18
    76d8:	2a e3       	ldi	r18, 0x3A	; 58
    76da:	d2 06       	cpc	r13, r18
    76dc:	e1 04       	cpc	r14, r1
    76de:	f1 04       	cpc	r15, r1
    76e0:	08 f4       	brcc	.+2      	; 0x76e4 <_ZN4Wind19calcWindSpeedAndDirEv+0xd0>
    76e2:	f1 c1       	rjmp	.+994    	; 0x7ac6 <_ZN4Wind19calcWindSpeedAndDirEv+0x4b2>
		//Serial.println("DEBUG:wsTempLast >= wsTemp || wsTemp - wsTempLast < 15000ul");
		return;
	}

//speed in micros
	wsNow = wsTemp - wsTempLast;
    76e4:	c0 92 6c 11 	sts	0x116C, r12
    76e8:	d0 92 6d 11 	sts	0x116D, r13
    76ec:	e0 92 6e 11 	sts	0x116E, r14
    76f0:	f0 92 6f 11 	sts	0x116F, r15
	if (windSpeedDur == 0) windSpeedDur = wsNow;
    76f4:	80 91 7c 11 	lds	r24, 0x117C
    76f8:	90 91 7d 11 	lds	r25, 0x117D
    76fc:	a0 91 7e 11 	lds	r26, 0x117E
    7700:	b0 91 7f 11 	lds	r27, 0x117F
    7704:	89 2b       	or	r24, r25
    7706:	8a 2b       	or	r24, r26
    7708:	8b 2b       	or	r24, r27
    770a:	41 f4       	brne	.+16     	; 0x771c <_ZN4Wind19calcWindSpeedAndDirEv+0x108>
    770c:	c0 92 7c 11 	sts	0x117C, r12
    7710:	d0 92 7d 11 	sts	0x117D, r13
    7714:	e0 92 7e 11 	sts	0x117E, r14
    7718:	f0 92 7f 11 	sts	0x117F, r15
	wsDiff = (wsNow * 100ul) / windSpeedDur;
    771c:	80 91 7c 11 	lds	r24, 0x117C
    7720:	90 91 7d 11 	lds	r25, 0x117D
    7724:	a0 91 7e 11 	lds	r26, 0x117E
    7728:	b0 91 7f 11 	lds	r27, 0x117F
    772c:	89 83       	std	Y+1, r24	; 0x01
    772e:	9a 83       	std	Y+2, r25	; 0x02
    7730:	ab 83       	std	Y+3, r26	; 0x03
    7732:	bc 83       	std	Y+4, r27	; 0x04
    7734:	a4 e6       	ldi	r26, 0x64	; 100
    7736:	b0 e0       	ldi	r27, 0x00	; 0
    7738:	a7 01       	movw	r20, r14
    773a:	96 01       	movw	r18, r12
    773c:	0e 94 c2 44 	call	0x8984	; 0x8984 <__muluhisi3>
    7740:	29 81       	ldd	r18, Y+1	; 0x01
    7742:	3a 81       	ldd	r19, Y+2	; 0x02
    7744:	4b 81       	ldd	r20, Y+3	; 0x03
    7746:	5c 81       	ldd	r21, Y+4	; 0x04
    7748:	0e 94 fd 44 	call	0x89fa	; 0x89fa <__udivmodsi4>
    774c:	20 93 68 11 	sts	0x1168, r18
    7750:	30 93 69 11 	sts	0x1169, r19
    7754:	40 93 6a 11 	sts	0x116A, r20
    7758:	50 93 6b 11 	sts	0x116B, r21

//can only change 10% per rev
	if (wsDiff < 90ul) {
    775c:	2a 35       	cpi	r18, 0x5A	; 90
    775e:	31 05       	cpc	r19, r1
    7760:	41 05       	cpc	r20, r1
    7762:	51 05       	cpc	r21, r1
    7764:	58 f4       	brcc	.+22     	; 0x777c <_ZN4Wind19calcWindSpeedAndDirEv+0x168>
		windSpeedDur = (windSpeedDur * 9ul) / 10ul;
    7766:	20 91 7c 11 	lds	r18, 0x117C
    776a:	30 91 7d 11 	lds	r19, 0x117D
    776e:	40 91 7e 11 	lds	r20, 0x117E
    7772:	50 91 7f 11 	lds	r21, 0x117F
    7776:	a9 e0       	ldi	r26, 0x09	; 9
    7778:	b0 e0       	ldi	r27, 0x00	; 0
    777a:	0f c0       	rjmp	.+30     	; 0x779a <_ZN4Wind19calcWindSpeedAndDirEv+0x186>
	} else if (wsDiff > 110ul) {
    777c:	2f 36       	cpi	r18, 0x6F	; 111
    777e:	31 05       	cpc	r19, r1
    7780:	41 05       	cpc	r20, r1
    7782:	51 05       	cpc	r21, r1
    7784:	d8 f0       	brcs	.+54     	; 0x77bc <_ZN4Wind19calcWindSpeedAndDirEv+0x1a8>
		windSpeedDur = (windSpeedDur * 11ul) / 10ul;
    7786:	20 91 7c 11 	lds	r18, 0x117C
    778a:	30 91 7d 11 	lds	r19, 0x117D
    778e:	40 91 7e 11 	lds	r20, 0x117E
    7792:	50 91 7f 11 	lds	r21, 0x117F
    7796:	ab e0       	ldi	r26, 0x0B	; 11
    7798:	b0 e0       	ldi	r27, 0x00	; 0
    779a:	0e 94 c2 44 	call	0x8984	; 0x8984 <__muluhisi3>
    779e:	2a e0       	ldi	r18, 0x0A	; 10
    77a0:	30 e0       	ldi	r19, 0x00	; 0
    77a2:	40 e0       	ldi	r20, 0x00	; 0
    77a4:	50 e0       	ldi	r21, 0x00	; 0
    77a6:	0e 94 fd 44 	call	0x89fa	; 0x89fa <__udivmodsi4>
    77aa:	20 93 7c 11 	sts	0x117C, r18
    77ae:	30 93 7d 11 	sts	0x117D, r19
    77b2:	40 93 7e 11 	sts	0x117E, r20
    77b6:	50 93 7f 11 	sts	0x117F, r21
    77ba:	49 c0       	rjmp	.+146    	; 0x784e <_ZN4Wind19calcWindSpeedAndDirEv+0x23a>
	} else {
		//running average, to avoid random errors, adjust by speed
		if (wsNow < 250000) {
			windSpeedDur = ((10ul * windSpeedDur) + wsNow) / 11ul;
    77bc:	20 91 7c 11 	lds	r18, 0x117C
    77c0:	30 91 7d 11 	lds	r19, 0x117D
    77c4:	40 91 7e 11 	lds	r20, 0x117E
    77c8:	50 91 7f 11 	lds	r21, 0x117F
		windSpeedDur = (windSpeedDur * 9ul) / 10ul;
	} else if (wsDiff > 110ul) {
		windSpeedDur = (windSpeedDur * 11ul) / 10ul;
	} else {
		//running average, to avoid random errors, adjust by speed
		if (wsNow < 250000) {
    77cc:	90 e9       	ldi	r25, 0x90	; 144
    77ce:	c9 16       	cp	r12, r25
    77d0:	90 ed       	ldi	r25, 0xD0	; 208
    77d2:	d9 06       	cpc	r13, r25
    77d4:	93 e0       	ldi	r25, 0x03	; 3
    77d6:	e9 06       	cpc	r14, r25
    77d8:	f1 04       	cpc	r15, r1
    77da:	68 f4       	brcc	.+26     	; 0x77f6 <_ZN4Wind19calcWindSpeedAndDirEv+0x1e2>
			windSpeedDur = ((10ul * windSpeedDur) + wsNow) / 11ul;
    77dc:	aa e0       	ldi	r26, 0x0A	; 10
    77de:	b0 e0       	ldi	r27, 0x00	; 0
    77e0:	0e 94 c2 44 	call	0x8984	; 0x8984 <__muluhisi3>
    77e4:	6c 0d       	add	r22, r12
    77e6:	7d 1d       	adc	r23, r13
    77e8:	8e 1d       	adc	r24, r14
    77ea:	9f 1d       	adc	r25, r15
    77ec:	2b e0       	ldi	r18, 0x0B	; 11
    77ee:	30 e0       	ldi	r19, 0x00	; 0
    77f0:	40 e0       	ldi	r20, 0x00	; 0
    77f2:	50 e0       	ldi	r21, 0x00	; 0
    77f4:	d8 cf       	rjmp	.-80     	; 0x77a6 <_ZN4Wind19calcWindSpeedAndDirEv+0x192>
		} else if (wsNow < 500000) {
    77f6:	a0 e2       	ldi	r26, 0x20	; 32
    77f8:	ca 16       	cp	r12, r26
    77fa:	a1 ea       	ldi	r26, 0xA1	; 161
    77fc:	da 06       	cpc	r13, r26
    77fe:	a7 e0       	ldi	r26, 0x07	; 7
    7800:	ea 06       	cpc	r14, r26
    7802:	f1 04       	cpc	r15, r1
    7804:	68 f4       	brcc	.+26     	; 0x7820 <_ZN4Wind19calcWindSpeedAndDirEv+0x20c>
			windSpeedDur = ((6ul * windSpeedDur) + wsNow) / 7ul;
    7806:	a6 e0       	ldi	r26, 0x06	; 6
    7808:	b0 e0       	ldi	r27, 0x00	; 0
    780a:	0e 94 c2 44 	call	0x8984	; 0x8984 <__muluhisi3>
    780e:	6c 0d       	add	r22, r12
    7810:	7d 1d       	adc	r23, r13
    7812:	8e 1d       	adc	r24, r14
    7814:	9f 1d       	adc	r25, r15
    7816:	27 e0       	ldi	r18, 0x07	; 7
    7818:	30 e0       	ldi	r19, 0x00	; 0
    781a:	40 e0       	ldi	r20, 0x00	; 0
    781c:	50 e0       	ldi	r21, 0x00	; 0
    781e:	c3 cf       	rjmp	.-122    	; 0x77a6 <_ZN4Wind19calcWindSpeedAndDirEv+0x192>
		} else {
			windSpeedDur = ((3ul * windSpeedDur) + wsNow) / 4ul;
    7820:	a3 e0       	ldi	r26, 0x03	; 3
    7822:	b0 e0       	ldi	r27, 0x00	; 0
    7824:	0e 94 c2 44 	call	0x8984	; 0x8984 <__muluhisi3>
    7828:	6c 0d       	add	r22, r12
    782a:	7d 1d       	adc	r23, r13
    782c:	8e 1d       	adc	r24, r14
    782e:	9f 1d       	adc	r25, r15
    7830:	32 e0       	ldi	r19, 0x02	; 2
    7832:	96 95       	lsr	r25
    7834:	87 95       	ror	r24
    7836:	77 95       	ror	r23
    7838:	67 95       	ror	r22
    783a:	3a 95       	dec	r19
    783c:	d1 f7       	brne	.-12     	; 0x7832 <_ZN4Wind19calcWindSpeedAndDirEv+0x21e>
    783e:	60 93 7c 11 	sts	0x117C, r22
    7842:	70 93 7d 11 	sts	0x117D, r23
    7846:	80 93 7e 11 	sts	0x117E, r24
    784a:	90 93 7f 11 	sts	0x117F, r25
	//	Serial.println(windSpeedDur);
//direction
//FROM ULTIMETER:
//AT 130 KNTS ABOUT 46US PER DEGREE OF ROTATION

	if (wdTemp > wsTemp) {
    784e:	80 91 64 11 	lds	r24, 0x1164
    7852:	90 91 65 11 	lds	r25, 0x1165
    7856:	a0 91 66 11 	lds	r26, 0x1166
    785a:	b0 91 67 11 	lds	r27, 0x1167
    785e:	88 16       	cp	r8, r24
    7860:	99 06       	cpc	r9, r25
    7862:	aa 06       	cpc	r10, r26
    7864:	bb 06       	cpc	r11, r27
    7866:	28 f4       	brcc	.+10     	; 0x7872 <_ZN4Wind19calcWindSpeedAndDirEv+0x25e>
		wdTemp = wdTemp - wsTemp;
    7868:	88 19       	sub	r24, r8
    786a:	99 09       	sbc	r25, r9
    786c:	aa 09       	sbc	r26, r10
    786e:	bb 09       	sbc	r27, r11
    7870:	04 c0       	rjmp	.+8      	; 0x787a <_ZN4Wind19calcWindSpeedAndDirEv+0x266>
	} else {
		wdTemp = wdTemp - wsTempLast;
    7872:	84 19       	sub	r24, r4
    7874:	95 09       	sbc	r25, r5
    7876:	a6 09       	sbc	r26, r6
    7878:	b7 09       	sbc	r27, r7
    787a:	80 93 64 11 	sts	0x1164, r24
    787e:	90 93 65 11 	sts	0x1165, r25
    7882:	a0 93 66 11 	sts	0x1166, r26
    7886:	b0 93 67 11 	sts	0x1167, r27
	}
	//Serial.print("wdTemp=");
	//		Serial.print(wdTemp);
	if (wdTemp > 50 && wdTemp<wsNow) {
    788a:	80 90 64 11 	lds	r8, 0x1164
    788e:	90 90 65 11 	lds	r9, 0x1165
    7892:	a0 90 66 11 	lds	r10, 0x1166
    7896:	b0 90 67 11 	lds	r11, 0x1167
    789a:	b3 e3       	ldi	r27, 0x33	; 51
    789c:	8b 16       	cp	r8, r27
    789e:	91 04       	cpc	r9, r1
    78a0:	a1 04       	cpc	r10, r1
    78a2:	b1 04       	cpc	r11, r1
    78a4:	08 f4       	brcc	.+2      	; 0x78a8 <_ZN4Wind19calcWindSpeedAndDirEv+0x294>
    78a6:	0f c1       	rjmp	.+542    	; 0x7ac6 <_ZN4Wind19calcWindSpeedAndDirEv+0x4b2>
    78a8:	8c 14       	cp	r8, r12
    78aa:	9d 04       	cpc	r9, r13
    78ac:	ae 04       	cpc	r10, r14
    78ae:	bf 04       	cpc	r11, r15
    78b0:	08 f0       	brcs	.+2      	; 0x78b4 <_ZN4Wind19calcWindSpeedAndDirEv+0x2a0>
    78b2:	09 c1       	rjmp	.+530    	; 0x7ac6 <_ZN4Wind19calcWindSpeedAndDirEv+0x4b2>
		if (wdAvg == 0) wdAvg = wdTemp;
    78b4:	80 91 60 11 	lds	r24, 0x1160
    78b8:	90 91 61 11 	lds	r25, 0x1161
    78bc:	a0 91 62 11 	lds	r26, 0x1162
    78c0:	b0 91 63 11 	lds	r27, 0x1163
    78c4:	89 2b       	or	r24, r25
    78c6:	8a 2b       	or	r24, r26
    78c8:	8b 2b       	or	r24, r27
    78ca:	41 f4       	brne	.+16     	; 0x78dc <_ZN4Wind19calcWindSpeedAndDirEv+0x2c8>
    78cc:	80 92 60 11 	sts	0x1160, r8
    78d0:	90 92 61 11 	sts	0x1161, r9
    78d4:	a0 92 62 11 	sts	0x1162, r10
    78d8:	b0 92 63 11 	sts	0x1163, r11
		wsDiff = (wdTemp * 100ul) / wdAvg;
    78dc:	40 90 60 11 	lds	r4, 0x1160
    78e0:	50 90 61 11 	lds	r5, 0x1161
    78e4:	60 90 62 11 	lds	r6, 0x1162
    78e8:	70 90 63 11 	lds	r7, 0x1163
    78ec:	a4 e6       	ldi	r26, 0x64	; 100
    78ee:	b0 e0       	ldi	r27, 0x00	; 0
    78f0:	a5 01       	movw	r20, r10
    78f2:	94 01       	movw	r18, r8
    78f4:	0e 94 c2 44 	call	0x8984	; 0x8984 <__muluhisi3>
    78f8:	a3 01       	movw	r20, r6
    78fa:	92 01       	movw	r18, r4
    78fc:	0e 94 fd 44 	call	0x89fa	; 0x89fa <__udivmodsi4>
    7900:	20 93 68 11 	sts	0x1168, r18
    7904:	30 93 69 11 	sts	0x1169, r19
    7908:	40 93 6a 11 	sts	0x116A, r20
    790c:	50 93 6b 11 	sts	0x116B, r21
		if (wsDiff < 90ul) {
    7910:	2a 35       	cpi	r18, 0x5A	; 90
    7912:	31 05       	cpc	r19, r1
    7914:	41 05       	cpc	r20, r1
    7916:	51 05       	cpc	r21, r1
    7918:	18 f4       	brcc	.+6      	; 0x7920 <_ZN4Wind19calcWindSpeedAndDirEv+0x30c>
			wdAvg = (wdAvg * 9ul) / 10ul;
    791a:	a9 e0       	ldi	r26, 0x09	; 9
    791c:	b0 e0       	ldi	r27, 0x00	; 0
    791e:	07 c0       	rjmp	.+14     	; 0x792e <_ZN4Wind19calcWindSpeedAndDirEv+0x31a>
		} else if (wsDiff > 110ul) {
    7920:	2f 36       	cpi	r18, 0x6F	; 111
    7922:	31 05       	cpc	r19, r1
    7924:	41 05       	cpc	r20, r1
    7926:	51 05       	cpc	r21, r1
    7928:	a8 f0       	brcs	.+42     	; 0x7954 <_ZN4Wind19calcWindSpeedAndDirEv+0x340>
			wdAvg = (wdAvg * 11ul) / 10ul;
    792a:	ab e0       	ldi	r26, 0x0B	; 11
    792c:	b0 e0       	ldi	r27, 0x00	; 0
    792e:	a3 01       	movw	r20, r6
    7930:	92 01       	movw	r18, r4
    7932:	0e 94 c2 44 	call	0x8984	; 0x8984 <__muluhisi3>
    7936:	2a e0       	ldi	r18, 0x0A	; 10
    7938:	30 e0       	ldi	r19, 0x00	; 0
    793a:	40 e0       	ldi	r20, 0x00	; 0
    793c:	50 e0       	ldi	r21, 0x00	; 0
    793e:	0e 94 fd 44 	call	0x89fa	; 0x89fa <__udivmodsi4>
    7942:	20 93 60 11 	sts	0x1160, r18
    7946:	30 93 61 11 	sts	0x1161, r19
    794a:	40 93 62 11 	sts	0x1162, r20
    794e:	50 93 63 11 	sts	0x1163, r21
    7952:	47 c0       	rjmp	.+142    	; 0x79e2 <_ZN4Wind19calcWindSpeedAndDirEv+0x3ce>
		} else {
			//average
			if (wsNow < 250000) {
    7954:	e0 e9       	ldi	r30, 0x90	; 144
    7956:	ce 16       	cp	r12, r30
    7958:	e0 ed       	ldi	r30, 0xD0	; 208
    795a:	de 06       	cpc	r13, r30
    795c:	e3 e0       	ldi	r30, 0x03	; 3
    795e:	ee 06       	cpc	r14, r30
    7960:	f1 04       	cpc	r15, r1
    7962:	78 f4       	brcc	.+30     	; 0x7982 <_ZN4Wind19calcWindSpeedAndDirEv+0x36e>
				wdAvg = ((10ul * wdAvg) + wdTemp) / 11ul;
    7964:	aa e0       	ldi	r26, 0x0A	; 10
    7966:	b0 e0       	ldi	r27, 0x00	; 0
    7968:	a3 01       	movw	r20, r6
    796a:	92 01       	movw	r18, r4
    796c:	0e 94 c2 44 	call	0x8984	; 0x8984 <__muluhisi3>
    7970:	68 0d       	add	r22, r8
    7972:	79 1d       	adc	r23, r9
    7974:	8a 1d       	adc	r24, r10
    7976:	9b 1d       	adc	r25, r11
    7978:	2b e0       	ldi	r18, 0x0B	; 11
    797a:	30 e0       	ldi	r19, 0x00	; 0
    797c:	40 e0       	ldi	r20, 0x00	; 0
    797e:	50 e0       	ldi	r21, 0x00	; 0
    7980:	de cf       	rjmp	.-68     	; 0x793e <_ZN4Wind19calcWindSpeedAndDirEv+0x32a>
			} else if (wsNow < 500000) {
    7982:	f0 e2       	ldi	r31, 0x20	; 32
    7984:	cf 16       	cp	r12, r31
    7986:	f1 ea       	ldi	r31, 0xA1	; 161
    7988:	df 06       	cpc	r13, r31
    798a:	f7 e0       	ldi	r31, 0x07	; 7
    798c:	ef 06       	cpc	r14, r31
    798e:	f1 04       	cpc	r15, r1
    7990:	78 f4       	brcc	.+30     	; 0x79b0 <_ZN4Wind19calcWindSpeedAndDirEv+0x39c>
				wdAvg = ((6ul * wdAvg) + wdTemp) / 7ul;
    7992:	a6 e0       	ldi	r26, 0x06	; 6
    7994:	b0 e0       	ldi	r27, 0x00	; 0
    7996:	a3 01       	movw	r20, r6
    7998:	92 01       	movw	r18, r4
    799a:	0e 94 c2 44 	call	0x8984	; 0x8984 <__muluhisi3>
    799e:	68 0d       	add	r22, r8
    79a0:	79 1d       	adc	r23, r9
    79a2:	8a 1d       	adc	r24, r10
    79a4:	9b 1d       	adc	r25, r11
    79a6:	27 e0       	ldi	r18, 0x07	; 7
    79a8:	30 e0       	ldi	r19, 0x00	; 0
    79aa:	40 e0       	ldi	r20, 0x00	; 0
    79ac:	50 e0       	ldi	r21, 0x00	; 0
    79ae:	c7 cf       	rjmp	.-114    	; 0x793e <_ZN4Wind19calcWindSpeedAndDirEv+0x32a>
			} else {
				wdAvg = ((3ul * wdAvg) + wdTemp) / 4ul;
    79b0:	a3 e0       	ldi	r26, 0x03	; 3
    79b2:	b0 e0       	ldi	r27, 0x00	; 0
    79b4:	a3 01       	movw	r20, r6
    79b6:	92 01       	movw	r18, r4
    79b8:	0e 94 c2 44 	call	0x8984	; 0x8984 <__muluhisi3>
    79bc:	68 0d       	add	r22, r8
    79be:	79 1d       	adc	r23, r9
    79c0:	8a 1d       	adc	r24, r10
    79c2:	9b 1d       	adc	r25, r11
    79c4:	22 e0       	ldi	r18, 0x02	; 2
    79c6:	96 95       	lsr	r25
    79c8:	87 95       	ror	r24
    79ca:	77 95       	ror	r23
    79cc:	67 95       	ror	r22
    79ce:	2a 95       	dec	r18
    79d0:	d1 f7       	brne	.-12     	; 0x79c6 <_ZN4Wind19calcWindSpeedAndDirEv+0x3b2>
    79d2:	60 93 60 11 	sts	0x1160, r22
    79d6:	70 93 61 11 	sts	0x1161, r23
    79da:	80 93 62 11 	sts	0x1162, r24
    79de:	90 93 63 11 	sts	0x1163, r25
			}
		}
		//convert to degrees, this is deg anti-clockwise from arbitrary 'north'

		windDirDur = (wdAvg * 360ul) / windSpeedDur;
    79e2:	c0 90 7c 11 	lds	r12, 0x117C
    79e6:	d0 90 7d 11 	lds	r13, 0x117D
    79ea:	e0 90 7e 11 	lds	r14, 0x117E
    79ee:	f0 90 7f 11 	lds	r15, 0x117F
    79f2:	20 91 60 11 	lds	r18, 0x1160
    79f6:	30 91 61 11 	lds	r19, 0x1161
    79fa:	40 91 62 11 	lds	r20, 0x1162
    79fe:	50 91 63 11 	lds	r21, 0x1163
    7a02:	a8 e6       	ldi	r26, 0x68	; 104
    7a04:	b1 e0       	ldi	r27, 0x01	; 1
    7a06:	0e 94 c2 44 	call	0x8984	; 0x8984 <__muluhisi3>
    7a0a:	a7 01       	movw	r20, r14
    7a0c:	96 01       	movw	r18, r12
    7a0e:	0e 94 fd 44 	call	0x89fa	; 0x89fa <__udivmodsi4>
    7a12:	20 93 78 11 	sts	0x1178, r18
    7a16:	30 93 79 11 	sts	0x1179, r19
    7a1a:	40 93 7a 11 	sts	0x117A, r20
    7a1e:	50 93 7b 11 	sts	0x117B, r21
	/*	Serial.print(", wdAvg=");
		Serial.println(wdAvg);*/
		//correct the dir to clockwise
		if(windDirDur>=0 && windDirDur <360){
    7a22:	80 91 78 11 	lds	r24, 0x1178
    7a26:	90 91 79 11 	lds	r25, 0x1179
    7a2a:	a0 91 7a 11 	lds	r26, 0x117A
    7a2e:	b0 91 7b 11 	lds	r27, 0x117B
    7a32:	80 91 78 11 	lds	r24, 0x1178
    7a36:	90 91 79 11 	lds	r25, 0x1179
    7a3a:	a0 91 7a 11 	lds	r26, 0x117A
    7a3e:	b0 91 7b 11 	lds	r27, 0x117B
    7a42:	88 36       	cpi	r24, 0x68	; 104
    7a44:	91 40       	sbci	r25, 0x01	; 1
    7a46:	a1 05       	cpc	r26, r1
    7a48:	b1 05       	cpc	r27, r1
    7a4a:	08 f1       	brcs	.+66     	; 0x7a8e <_ZN4Wind19calcWindSpeedAndDirEv+0x47a>
    7a4c:	3c c0       	rjmp	.+120    	; 0x7ac6 <_ZN4Wind19calcWindSpeedAndDirEv+0x4b2>
		
		//add a value to the AverageList at the next index, if out of bounds, return false, else return true
		void addValue(datatype value){ 
			currentIndex=currentIndex+1;
			if (currentSize<size){
				values[currentSize++] = value;
    7a4e:	fa 01       	movw	r30, r20
    7a50:	82 e0       	ldi	r24, 0x02	; 2
    7a52:	78 9f       	mul	r23, r24
    7a54:	e0 0d       	add	r30, r0
    7a56:	f1 1d       	adc	r31, r1
    7a58:	11 24       	eor	r1, r1
    7a5a:	31 83       	std	Z+1, r19	; 0x01
    7a5c:	20 83       	st	Z, r18
    7a5e:	67 2f       	mov	r22, r23
    7a60:	6f 5f       	subi	r22, 0xFF	; 255
    7a62:	60 93 52 11 	sts	0x1152, r22
				currentIndex = currentIndex % currentSize;
    7a66:	80 91 53 11 	lds	r24, 0x1153
    7a6a:	0e 94 dd 44 	call	0x89ba	; 0x89ba <__udivmodqi4>
    7a6e:	90 93 53 11 	sts	0x1153, r25
    7a72:	29 c0       	rjmp	.+82     	; 0x7ac6 <_ZN4Wind19calcWindSpeedAndDirEv+0x4b2>
			}else{
				currentIndex = currentIndex % size;
    7a74:	0e 94 dd 44 	call	0x89ba	; 0x89ba <__udivmodqi4>
    7a78:	90 93 53 11 	sts	0x1153, r25
				values[currentIndex] = value; 
    7a7c:	fa 01       	movw	r30, r20
    7a7e:	a2 e0       	ldi	r26, 0x02	; 2
    7a80:	9a 9f       	mul	r25, r26
    7a82:	e0 0d       	add	r30, r0
    7a84:	f1 1d       	adc	r31, r1
    7a86:	11 24       	eor	r1, r1
    7a88:	31 83       	std	Z+1, r19	; 0x01
    7a8a:	20 83       	st	Z, r18
    7a8c:	1c c0       	rjmp	.+56     	; 0x7ac6 <_ZN4Wind19calcWindSpeedAndDirEv+0x4b2>
			dirList.addValue(360l-windDirDur);
    7a8e:	80 91 78 11 	lds	r24, 0x1178
    7a92:	90 91 79 11 	lds	r25, 0x1179
    7a96:	a0 91 7a 11 	lds	r26, 0x117A
    7a9a:	b0 91 7b 11 	lds	r27, 0x117B
    7a9e:	28 e6       	ldi	r18, 0x68	; 104
    7aa0:	31 e0       	ldi	r19, 0x01	; 1
    7aa2:	28 1b       	sub	r18, r24
    7aa4:	39 0b       	sbc	r19, r25

		}
		
		//add a value to the AverageList at the next index, if out of bounds, return false, else return true
		void addValue(datatype value){ 
			currentIndex=currentIndex+1;
    7aa6:	80 91 53 11 	lds	r24, 0x1153
    7aaa:	8f 5f       	subi	r24, 0xFF	; 255
    7aac:	80 93 53 11 	sts	0x1153, r24
			if (currentSize<size){
    7ab0:	70 91 52 11 	lds	r23, 0x1152
    7ab4:	60 91 51 11 	lds	r22, 0x1151
    7ab8:	40 91 4f 11 	lds	r20, 0x114F
    7abc:	50 91 50 11 	lds	r21, 0x1150
    7ac0:	76 17       	cp	r23, r22
    7ac2:	c0 f6       	brcc	.-80     	; 0x7a74 <_ZN4Wind19calcWindSpeedAndDirEv+0x460>
    7ac4:	c4 cf       	rjmp	.-120    	; 0x7a4e <_ZN4Wind19calcWindSpeedAndDirEv+0x43a>
	//Serial.print(",wsDiff,");
	//Serial.print(wsDiff);
	//Serial.print(",wdDirDir,");
	//Serial.println(windDirDur);

}
    7ac6:	0f 90       	pop	r0
    7ac8:	0f 90       	pop	r0
    7aca:	0f 90       	pop	r0
    7acc:	0f 90       	pop	r0
    7ace:	df 91       	pop	r29
    7ad0:	cf 91       	pop	r28
    7ad2:	ff 90       	pop	r15
    7ad4:	ef 90       	pop	r14
    7ad6:	df 90       	pop	r13
    7ad8:	cf 90       	pop	r12
    7ada:	bf 90       	pop	r11
    7adc:	af 90       	pop	r10
    7ade:	9f 90       	pop	r9
    7ae0:	8f 90       	pop	r8
    7ae2:	7f 90       	pop	r7
    7ae4:	6f 90       	pop	r6
    7ae6:	5f 90       	pop	r5
    7ae8:	4f 90       	pop	r4
    7aea:	08 95       	ret

00007aec <_ZN4Wind12calcWindDataEv>:

/*
 * Calculates wind data. Direction is apparent, 0-360 deg off the bow, clockwise, in degrees.
 */
void Wind::calcWindData() {
    7aec:	4f 92       	push	r4
    7aee:	5f 92       	push	r5
    7af0:	6f 92       	push	r6
    7af2:	7f 92       	push	r7
    7af4:	8f 92       	push	r8
    7af6:	9f 92       	push	r9
    7af8:	af 92       	push	r10
    7afa:	bf 92       	push	r11
    7afc:	cf 92       	push	r12
    7afe:	df 92       	push	r13
    7b00:	ef 92       	push	r14
    7b02:	ff 92       	push	r15
    7b04:	0f 93       	push	r16
    7b06:	1f 93       	push	r17
    7b08:	cf 93       	push	r28
    7b0a:	df 93       	push	r29
    7b0c:	00 d0       	rcall	.+0      	; 0x7b0e <_ZN4Wind12calcWindDataEv+0x22>
    7b0e:	1f 92       	push	r1
    7b10:	cd b7       	in	r28, 0x3d	; 61
    7b12:	de b7       	in	r29, 0x3e	; 62
    7b14:	8c 01       	movw	r16, r24

//fix rollover
	if (millis() < lastSpeedPulse) lastSpeedPulse = millis();
    7b16:	0e 94 e7 15 	call	0x2bce	; 0x2bce <millis>
    7b1a:	c0 90 98 11 	lds	r12, 0x1198
    7b1e:	d0 90 99 11 	lds	r13, 0x1199
    7b22:	e0 90 9a 11 	lds	r14, 0x119A
    7b26:	f0 90 9b 11 	lds	r15, 0x119B
    7b2a:	6c 15       	cp	r22, r12
    7b2c:	7d 05       	cpc	r23, r13
    7b2e:	8e 05       	cpc	r24, r14
    7b30:	9f 05       	cpc	r25, r15
    7b32:	50 f4       	brcc	.+20     	; 0x7b48 <_ZN4Wind12calcWindDataEv+0x5c>
    7b34:	0e 94 e7 15 	call	0x2bce	; 0x2bce <millis>
    7b38:	60 93 98 11 	sts	0x1198, r22
    7b3c:	70 93 99 11 	sts	0x1199, r23
    7b40:	80 93 9a 11 	sts	0x119A, r24
    7b44:	90 93 9b 11 	sts	0x119B, r25
	if (millis() < lastDirPulse) lastDirPulse = millis();
    7b48:	0e 94 e7 15 	call	0x2bce	; 0x2bce <millis>
    7b4c:	c0 90 94 11 	lds	r12, 0x1194
    7b50:	d0 90 95 11 	lds	r13, 0x1195
    7b54:	e0 90 96 11 	lds	r14, 0x1196
    7b58:	f0 90 97 11 	lds	r15, 0x1197
    7b5c:	6c 15       	cp	r22, r12
    7b5e:	7d 05       	cpc	r23, r13
    7b60:	8e 05       	cpc	r24, r14
    7b62:	9f 05       	cpc	r25, r15
    7b64:	50 f4       	brcc	.+20     	; 0x7b7a <_ZN4Wind12calcWindDataEv+0x8e>
    7b66:	0e 94 e7 15 	call	0x2bce	; 0x2bce <millis>
    7b6a:	60 93 94 11 	sts	0x1194, r22
    7b6e:	70 93 95 11 	sts	0x1195, r23
    7b72:	80 93 96 11 	sts	0x1196, r24
    7b76:	90 93 97 11 	sts	0x1197, r25

	model->setWindLastUpdate(millis());
    7b7a:	0e 94 e7 15 	call	0x2bce	; 0x2bce <millis>
    7b7e:	ab 01       	movw	r20, r22
    7b80:	bc 01       	movw	r22, r24
    7b82:	d8 01       	movw	r26, r16
    7b84:	8d 91       	ld	r24, X+
    7b86:	9c 91       	ld	r25, X
    7b88:	0e 94 3e 2e 	call	0x5c7c	; 0x5c7c <_ZN14FreeBoardModel17setWindLastUpdateEm>

//convert to windAverage
	if (millis() - lastSpeedPulse > 3000) {
    7b8c:	0e 94 e7 15 	call	0x2bce	; 0x2bce <millis>
    7b90:	c0 90 98 11 	lds	r12, 0x1198
    7b94:	d0 90 99 11 	lds	r13, 0x1199
    7b98:	e0 90 9a 11 	lds	r14, 0x119A
    7b9c:	f0 90 9b 11 	lds	r15, 0x119B
    7ba0:	6c 19       	sub	r22, r12
    7ba2:	7d 09       	sbc	r23, r13
    7ba4:	8e 09       	sbc	r24, r14
    7ba6:	9f 09       	sbc	r25, r15
    7ba8:	69 3b       	cpi	r22, 0xB9	; 185
    7baa:	7b 40       	sbci	r23, 0x0B	; 11
    7bac:	81 05       	cpc	r24, r1
    7bae:	91 05       	cpc	r25, r1
    7bb0:	e0 f0       	brcs	.+56     	; 0x7bea <_ZN4Wind12calcWindDataEv+0xfe>
		//no rotation, no wind
		model->setWindAverage(0);
    7bb2:	40 e0       	ldi	r20, 0x00	; 0
    7bb4:	50 e0       	ldi	r21, 0x00	; 0
    7bb6:	ba 01       	movw	r22, r20
    7bb8:	f8 01       	movw	r30, r16
    7bba:	80 81       	ld	r24, Z
    7bbc:	91 81       	ldd	r25, Z+1	; 0x01
		if (dir < 0) {
			dir = 360 + dir;
		}
		model->setWindApparentDir(dir);
	}
}
    7bbe:	0f 90       	pop	r0
    7bc0:	0f 90       	pop	r0
    7bc2:	0f 90       	pop	r0
    7bc4:	0f 90       	pop	r0
    7bc6:	df 91       	pop	r29
    7bc8:	cf 91       	pop	r28
    7bca:	1f 91       	pop	r17
    7bcc:	0f 91       	pop	r16
    7bce:	ff 90       	pop	r15
    7bd0:	ef 90       	pop	r14
    7bd2:	df 90       	pop	r13
    7bd4:	cf 90       	pop	r12
    7bd6:	bf 90       	pop	r11
    7bd8:	af 90       	pop	r10
    7bda:	9f 90       	pop	r9
    7bdc:	8f 90       	pop	r8
    7bde:	7f 90       	pop	r7
    7be0:	6f 90       	pop	r6
    7be2:	5f 90       	pop	r5
    7be4:	4f 90       	pop	r4
	model->setWindLastUpdate(millis());

//convert to windAverage
	if (millis() - lastSpeedPulse > 3000) {
		//no rotation, no wind
		model->setWindAverage(0);
    7be6:	0c 94 36 2e 	jmp	0x5c6c	; 0x5c6c <_ZN14FreeBoardModel14setWindAverageEf>
		//Serial.println("Wind speed reset");
	} else {
		//windSpeedDur is type long -  max sensor value = 3000000 micros
		if (windSpeedDur > 0) {
    7bea:	80 91 7c 11 	lds	r24, 0x117C
    7bee:	90 91 7d 11 	lds	r25, 0x117D
    7bf2:	a0 91 7e 11 	lds	r26, 0x117E
    7bf6:	b0 91 7f 11 	lds	r27, 0x117F
    7bfa:	89 2b       	or	r24, r25
    7bfc:	8a 2b       	or	r24, r26
    7bfe:	8b 2b       	or	r24, r27
    7c00:	09 f4       	brne	.+2      	; 0x7c04 <_ZN4Wind12calcWindDataEv+0x118>
    7c02:	4b c1       	rjmp	.+662    	; 0x7e9a <_ZN4Wind12calcWindDataEv+0x3ae>
			// arduino long = -2,147,483,648 to 2,147,483,647
			//1000 millis = 1 rps - this is 1000 x rps (for int arithmetic) range 333 - 33333
			windSpeedRps = 100000000 / windSpeedDur;
    7c04:	20 91 7c 11 	lds	r18, 0x117C
    7c08:	30 91 7d 11 	lds	r19, 0x117D
    7c0c:	40 91 7e 11 	lds	r20, 0x117E
    7c10:	50 91 7f 11 	lds	r21, 0x117F
    7c14:	60 e0       	ldi	r22, 0x00	; 0
    7c16:	71 ee       	ldi	r23, 0xE1	; 225
    7c18:	85 ef       	ldi	r24, 0xF5	; 245
    7c1a:	95 e0       	ldi	r25, 0x05	; 5
    7c1c:	0e 94 fd 44 	call	0x89fa	; 0x89fa <__udivmodsi4>
    7c20:	20 93 90 11 	sts	0x1190, r18
    7c24:	30 93 91 11 	sts	0x1191, r19
    7c28:	40 93 92 11 	sts	0x1192, r20
    7c2c:	50 93 93 11 	sts	0x1193, r21
			//NOTE:converted multipliers to KNTS
			//need to avoid div/0 errors
			if (windSpeedRps < 323) {
    7c30:	40 91 90 11 	lds	r20, 0x1190
    7c34:	50 91 91 11 	lds	r21, 0x1191
    7c38:	60 91 92 11 	lds	r22, 0x1192
    7c3c:	70 91 93 11 	lds	r23, 0x1193
    7c40:	d8 01       	movw	r26, r16
    7c42:	ed 91       	ld	r30, X+
    7c44:	fc 91       	ld	r31, X
    7c46:	43 34       	cpi	r20, 0x43	; 67
    7c48:	51 40       	sbci	r21, 0x01	; 1
    7c4a:	61 05       	cpc	r22, r1
    7c4c:	71 05       	cpc	r23, r1
    7c4e:	0c f0       	brlt	.+2      	; 0x7c52 <_ZN4Wind12calcWindDataEv+0x166>
    7c50:	6a c0       	rjmp	.+212    	; 0x7d26 <_ZN4Wind12calcWindDataEv+0x23a>
				//need extra accuracy here, zero is very unlikely
				windSpeedRps = windSpeedRps * 10;
    7c52:	20 91 90 11 	lds	r18, 0x1190
    7c56:	30 91 91 11 	lds	r19, 0x1191
    7c5a:	40 91 92 11 	lds	r20, 0x1192
    7c5e:	50 91 93 11 	lds	r21, 0x1193
    7c62:	aa e0       	ldi	r26, 0x0A	; 10
    7c64:	b0 e0       	ldi	r27, 0x00	; 0
    7c66:	0e 94 c2 44 	call	0x8984	; 0x8984 <__muluhisi3>
    7c6a:	60 93 90 11 	sts	0x1190, r22
    7c6e:	70 93 91 11 	sts	0x1191, r23
    7c72:	80 93 92 11 	sts	0x1192, r24
    7c76:	90 93 93 11 	sts	0x1193, r25
				model->setWindAverage(((((windSpeedRps * windSpeedRps) / -105) + ((25476 * windSpeedRps) / 100) - 12260)) / model->getWindFactor() * 10);
    7c7a:	20 91 90 11 	lds	r18, 0x1190
    7c7e:	30 91 91 11 	lds	r19, 0x1191
    7c82:	40 91 92 11 	lds	r20, 0x1192
    7c86:	50 91 93 11 	lds	r21, 0x1193
    7c8a:	c0 90 90 11 	lds	r12, 0x1190
    7c8e:	d0 90 91 11 	lds	r13, 0x1191
    7c92:	e0 90 92 11 	lds	r14, 0x1192
    7c96:	f0 90 93 11 	lds	r15, 0x1193
    7c9a:	40 90 90 11 	lds	r4, 0x1190
    7c9e:	50 90 91 11 	lds	r5, 0x1191
    7ca2:	60 90 92 11 	lds	r6, 0x1192
    7ca6:	70 90 93 11 	lds	r7, 0x1193
    7caa:	cf 01       	movw	r24, r30
    7cac:	29 83       	std	Y+1, r18	; 0x01
    7cae:	3a 83       	std	Y+2, r19	; 0x02
    7cb0:	4b 83       	std	Y+3, r20	; 0x03
    7cb2:	5c 83       	std	Y+4, r21	; 0x04
    7cb4:	0e 94 0b 2d 	call	0x5a16	; 0x5a16 <_ZN14FreeBoardModel13getWindFactorEv>
    7cb8:	4b 01       	movw	r8, r22
    7cba:	5c 01       	movw	r10, r24
    7cbc:	29 81       	ldd	r18, Y+1	; 0x01
    7cbe:	3a 81       	ldd	r19, Y+2	; 0x02
    7cc0:	4b 81       	ldd	r20, Y+3	; 0x03
    7cc2:	5c 81       	ldd	r21, Y+4	; 0x04
    7cc4:	c7 01       	movw	r24, r14
    7cc6:	b6 01       	movw	r22, r12
    7cc8:	0e 94 cd 44 	call	0x899a	; 0x899a <__mulsi3>
    7ccc:	27 e9       	ldi	r18, 0x97	; 151
    7cce:	3f ef       	ldi	r19, 0xFF	; 255
    7cd0:	4f ef       	ldi	r20, 0xFF	; 255
    7cd2:	5f ef       	ldi	r21, 0xFF	; 255
    7cd4:	0e 94 1f 45 	call	0x8a3e	; 0x8a3e <__divmodsi4>
    7cd8:	69 01       	movw	r12, r18
    7cda:	7a 01       	movw	r14, r20
    7cdc:	a4 e8       	ldi	r26, 0x84	; 132
    7cde:	b3 e6       	ldi	r27, 0x63	; 99
    7ce0:	a3 01       	movw	r20, r6
    7ce2:	92 01       	movw	r18, r4
    7ce4:	0e 94 c2 44 	call	0x8984	; 0x8984 <__muluhisi3>
    7ce8:	24 e6       	ldi	r18, 0x64	; 100
    7cea:	30 e0       	ldi	r19, 0x00	; 0
    7cec:	40 e0       	ldi	r20, 0x00	; 0
    7cee:	50 e0       	ldi	r21, 0x00	; 0
    7cf0:	0e 94 1f 45 	call	0x8a3e	; 0x8a3e <__divmodsi4>
    7cf4:	c2 0e       	add	r12, r18
    7cf6:	d3 1e       	adc	r13, r19
    7cf8:	e4 1e       	adc	r14, r20
    7cfa:	f5 1e       	adc	r15, r21
    7cfc:	e4 ee       	ldi	r30, 0xE4	; 228
    7cfe:	ce 1a       	sub	r12, r30
    7d00:	ef e2       	ldi	r30, 0x2F	; 47
    7d02:	de 0a       	sbc	r13, r30
    7d04:	e1 08       	sbc	r14, r1
    7d06:	f1 08       	sbc	r15, r1
    7d08:	c7 01       	movw	r24, r14
    7d0a:	b6 01       	movw	r22, r12
    7d0c:	0e 94 8c 42 	call	0x8518	; 0x8518 <__floatsisf>
    7d10:	a5 01       	movw	r20, r10
    7d12:	94 01       	movw	r18, r8
    7d14:	0e 94 f1 41 	call	0x83e2	; 0x83e2 <__divsf3>
    7d18:	20 e0       	ldi	r18, 0x00	; 0
    7d1a:	30 e0       	ldi	r19, 0x00	; 0
    7d1c:	40 e2       	ldi	r20, 0x20	; 32
    7d1e:	51 e4       	ldi	r21, 0x41	; 65
    7d20:	0e 94 f8 43 	call	0x87f0	; 0x87f0 <__mulsf3>
    7d24:	5d c0       	rjmp	.+186    	; 0x7de0 <_ZN4Wind12calcWindDataEv+0x2f4>
			} else if (windSpeedRps < 5436) {
    7d26:	80 91 90 11 	lds	r24, 0x1190
    7d2a:	90 91 91 11 	lds	r25, 0x1191
    7d2e:	a0 91 92 11 	lds	r26, 0x1192
    7d32:	b0 91 93 11 	lds	r27, 0x1193
    7d36:	8c 33       	cpi	r24, 0x3C	; 60
    7d38:	95 41       	sbci	r25, 0x15	; 21
    7d3a:	a1 05       	cpc	r26, r1
    7d3c:	b1 05       	cpc	r27, r1
    7d3e:	0c f0       	brlt	.+2      	; 0x7d42 <_ZN4Wind12calcWindDataEv+0x256>
    7d40:	55 c0       	rjmp	.+170    	; 0x7dec <_ZN4Wind12calcWindDataEv+0x300>
				//rps2 = min 10426441, max 30,864,197, cant get div/0 here?
				model->setWindAverage((((windSpeedRps * windSpeedRps) / 2222) + ((19099 * windSpeedRps) / 100) + 9638) / model->getWindFactor());
    7d42:	20 91 90 11 	lds	r18, 0x1190
    7d46:	30 91 91 11 	lds	r19, 0x1191
    7d4a:	40 91 92 11 	lds	r20, 0x1192
    7d4e:	50 91 93 11 	lds	r21, 0x1193
    7d52:	c0 90 90 11 	lds	r12, 0x1190
    7d56:	d0 90 91 11 	lds	r13, 0x1191
    7d5a:	e0 90 92 11 	lds	r14, 0x1192
    7d5e:	f0 90 93 11 	lds	r15, 0x1193
    7d62:	40 90 90 11 	lds	r4, 0x1190
    7d66:	50 90 91 11 	lds	r5, 0x1191
    7d6a:	60 90 92 11 	lds	r6, 0x1192
    7d6e:	70 90 93 11 	lds	r7, 0x1193
    7d72:	cf 01       	movw	r24, r30
    7d74:	29 83       	std	Y+1, r18	; 0x01
    7d76:	3a 83       	std	Y+2, r19	; 0x02
    7d78:	4b 83       	std	Y+3, r20	; 0x03
    7d7a:	5c 83       	std	Y+4, r21	; 0x04
    7d7c:	0e 94 0b 2d 	call	0x5a16	; 0x5a16 <_ZN14FreeBoardModel13getWindFactorEv>
    7d80:	4b 01       	movw	r8, r22
    7d82:	5c 01       	movw	r10, r24
    7d84:	29 81       	ldd	r18, Y+1	; 0x01
    7d86:	3a 81       	ldd	r19, Y+2	; 0x02
    7d88:	4b 81       	ldd	r20, Y+3	; 0x03
    7d8a:	5c 81       	ldd	r21, Y+4	; 0x04
    7d8c:	c7 01       	movw	r24, r14
    7d8e:	b6 01       	movw	r22, r12
    7d90:	0e 94 cd 44 	call	0x899a	; 0x899a <__mulsi3>
    7d94:	2e ea       	ldi	r18, 0xAE	; 174
    7d96:	38 e0       	ldi	r19, 0x08	; 8
    7d98:	40 e0       	ldi	r20, 0x00	; 0
    7d9a:	50 e0       	ldi	r21, 0x00	; 0
    7d9c:	0e 94 1f 45 	call	0x8a3e	; 0x8a3e <__divmodsi4>
    7da0:	69 01       	movw	r12, r18
    7da2:	7a 01       	movw	r14, r20
    7da4:	ab e9       	ldi	r26, 0x9B	; 155
    7da6:	ba e4       	ldi	r27, 0x4A	; 74
    7da8:	a3 01       	movw	r20, r6
    7daa:	92 01       	movw	r18, r4
    7dac:	0e 94 c2 44 	call	0x8984	; 0x8984 <__muluhisi3>
    7db0:	24 e6       	ldi	r18, 0x64	; 100
    7db2:	30 e0       	ldi	r19, 0x00	; 0
    7db4:	40 e0       	ldi	r20, 0x00	; 0
    7db6:	50 e0       	ldi	r21, 0x00	; 0
    7db8:	0e 94 1f 45 	call	0x8a3e	; 0x8a3e <__divmodsi4>
    7dbc:	c2 0e       	add	r12, r18
    7dbe:	d3 1e       	adc	r13, r19
    7dc0:	e4 1e       	adc	r14, r20
    7dc2:	f5 1e       	adc	r15, r21
    7dc4:	86 ea       	ldi	r24, 0xA6	; 166
    7dc6:	c8 0e       	add	r12, r24
    7dc8:	85 e2       	ldi	r24, 0x25	; 37
    7dca:	d8 1e       	adc	r13, r24
    7dcc:	e1 1c       	adc	r14, r1
    7dce:	f1 1c       	adc	r15, r1
    7dd0:	c7 01       	movw	r24, r14
    7dd2:	b6 01       	movw	r22, r12
    7dd4:	0e 94 8c 42 	call	0x8518	; 0x8518 <__floatsisf>
    7dd8:	a5 01       	movw	r20, r10
    7dda:	94 01       	movw	r18, r8
    7ddc:	0e 94 f1 41 	call	0x83e2	; 0x83e2 <__divsf3>
    7de0:	ab 01       	movw	r20, r22
    7de2:	bc 01       	movw	r22, r24
    7de4:	d8 01       	movw	r26, r16
    7de6:	8d 91       	ld	r24, X+
    7de8:	9c 91       	ld	r25, X
    7dea:	55 c0       	rjmp	.+170    	; 0x7e96 <_ZN4Wind12calcWindDataEv+0x3aa>
			} else {
				model->setWindAverage(((((windSpeedRps * windSpeedRps) / 1042) * 100) - (8314700 * windSpeedRps) + 2866500) / model->getWindFactor());
    7dec:	20 91 90 11 	lds	r18, 0x1190
    7df0:	30 91 91 11 	lds	r19, 0x1191
    7df4:	40 91 92 11 	lds	r20, 0x1192
    7df8:	50 91 93 11 	lds	r21, 0x1193
    7dfc:	c0 90 90 11 	lds	r12, 0x1190
    7e00:	d0 90 91 11 	lds	r13, 0x1191
    7e04:	e0 90 92 11 	lds	r14, 0x1192
    7e08:	f0 90 93 11 	lds	r15, 0x1193
    7e0c:	40 90 90 11 	lds	r4, 0x1190
    7e10:	50 90 91 11 	lds	r5, 0x1191
    7e14:	60 90 92 11 	lds	r6, 0x1192
    7e18:	70 90 93 11 	lds	r7, 0x1193
    7e1c:	cf 01       	movw	r24, r30
    7e1e:	29 83       	std	Y+1, r18	; 0x01
    7e20:	3a 83       	std	Y+2, r19	; 0x02
    7e22:	4b 83       	std	Y+3, r20	; 0x03
    7e24:	5c 83       	std	Y+4, r21	; 0x04
    7e26:	0e 94 0b 2d 	call	0x5a16	; 0x5a16 <_ZN14FreeBoardModel13getWindFactorEv>
    7e2a:	4b 01       	movw	r8, r22
    7e2c:	5c 01       	movw	r10, r24
    7e2e:	29 81       	ldd	r18, Y+1	; 0x01
    7e30:	3a 81       	ldd	r19, Y+2	; 0x02
    7e32:	4b 81       	ldd	r20, Y+3	; 0x03
    7e34:	5c 81       	ldd	r21, Y+4	; 0x04
    7e36:	c7 01       	movw	r24, r14
    7e38:	b6 01       	movw	r22, r12
    7e3a:	0e 94 cd 44 	call	0x899a	; 0x899a <__mulsi3>
    7e3e:	22 e1       	ldi	r18, 0x12	; 18
    7e40:	34 e0       	ldi	r19, 0x04	; 4
    7e42:	40 e0       	ldi	r20, 0x00	; 0
    7e44:	50 e0       	ldi	r21, 0x00	; 0
    7e46:	0e 94 1f 45 	call	0x8a3e	; 0x8a3e <__divmodsi4>
    7e4a:	a4 e6       	ldi	r26, 0x64	; 100
    7e4c:	b0 e0       	ldi	r27, 0x00	; 0
    7e4e:	0e 94 c2 44 	call	0x8984	; 0x8984 <__muluhisi3>
    7e52:	6b 01       	movw	r12, r22
    7e54:	7c 01       	movw	r14, r24
    7e56:	a3 01       	movw	r20, r6
    7e58:	92 01       	movw	r18, r4
    7e5a:	64 eb       	ldi	r22, 0xB4	; 180
    7e5c:	70 e2       	ldi	r23, 0x20	; 32
    7e5e:	81 e8       	ldi	r24, 0x81	; 129
    7e60:	9f ef       	ldi	r25, 0xFF	; 255
    7e62:	0e 94 cd 44 	call	0x899a	; 0x899a <__mulsi3>
    7e66:	c6 0e       	add	r12, r22
    7e68:	d7 1e       	adc	r13, r23
    7e6a:	e8 1e       	adc	r14, r24
    7e6c:	f9 1e       	adc	r15, r25
    7e6e:	b4 e4       	ldi	r27, 0x44	; 68
    7e70:	cb 0e       	add	r12, r27
    7e72:	bd eb       	ldi	r27, 0xBD	; 189
    7e74:	db 1e       	adc	r13, r27
    7e76:	bb e2       	ldi	r27, 0x2B	; 43
    7e78:	eb 1e       	adc	r14, r27
    7e7a:	f1 1c       	adc	r15, r1
    7e7c:	c7 01       	movw	r24, r14
    7e7e:	b6 01       	movw	r22, r12
    7e80:	0e 94 8c 42 	call	0x8518	; 0x8518 <__floatsisf>
    7e84:	a5 01       	movw	r20, r10
    7e86:	94 01       	movw	r18, r8
    7e88:	0e 94 f1 41 	call	0x83e2	; 0x83e2 <__divsf3>
    7e8c:	ab 01       	movw	r20, r22
    7e8e:	bc 01       	movw	r22, r24
    7e90:	f8 01       	movw	r30, r16
    7e92:	80 81       	ld	r24, Z
    7e94:	91 81       	ldd	r25, Z+1	; 0x01
    7e96:	0e 94 36 2e 	call	0x5c6c	; 0x5c6c <_ZN14FreeBoardModel14setWindAverageEf>
			}
		}
		//update gusts
		if (model->getWindAverage() > model->getWindMax()) model->setWindMax(model->getWindAverage());
    7e9a:	d8 01       	movw	r26, r16
    7e9c:	8d 91       	ld	r24, X+
    7e9e:	9c 91       	ld	r25, X
    7ea0:	0e 94 ff 2c 	call	0x59fe	; 0x59fe <_ZN14FreeBoardModel14getWindAverageEv>
    7ea4:	6b 01       	movw	r12, r22
    7ea6:	7c 01       	movw	r14, r24
    7ea8:	f8 01       	movw	r30, r16
    7eaa:	80 81       	ld	r24, Z
    7eac:	91 81       	ldd	r25, Z+1	; 0x01
    7eae:	0e 94 17 2d 	call	0x5a2e	; 0x5a2e <_ZN14FreeBoardModel10getWindMaxEv>
    7eb2:	bc 01       	movw	r22, r24
    7eb4:	88 27       	eor	r24, r24
    7eb6:	77 fd       	sbrc	r23, 7
    7eb8:	80 95       	com	r24
    7eba:	98 2f       	mov	r25, r24
    7ebc:	0e 94 8c 42 	call	0x8518	; 0x8518 <__floatsisf>
    7ec0:	9b 01       	movw	r18, r22
    7ec2:	ac 01       	movw	r20, r24
    7ec4:	c7 01       	movw	r24, r14
    7ec6:	b6 01       	movw	r22, r12
    7ec8:	0e 94 ed 43 	call	0x87da	; 0x87da <__gesf2>
    7ecc:	18 16       	cp	r1, r24
    7ece:	64 f4       	brge	.+24     	; 0x7ee8 <_ZN4Wind12calcWindDataEv+0x3fc>
    7ed0:	d8 01       	movw	r26, r16
    7ed2:	8d 91       	ld	r24, X+
    7ed4:	9c 91       	ld	r25, X
    7ed6:	0e 94 ff 2c 	call	0x59fe	; 0x59fe <_ZN14FreeBoardModel14getWindAverageEv>
    7eda:	0e 94 59 42 	call	0x84b2	; 0x84b2 <__fixsfsi>
    7ede:	f8 01       	movw	r30, r16
    7ee0:	80 81       	ld	r24, Z
    7ee2:	91 81       	ldd	r25, Z+1	; 0x01
    7ee4:	0e 94 75 2e 	call	0x5cea	; 0x5cea <_ZN14FreeBoardModel10setWindMaxEi>

		// calc direction, in degrees clockwise
		//should round to int, min 1
		int dir = (int) getRotationalAverage();
    7ee8:	c8 01       	movw	r24, r16
    7eea:	0e 94 f7 39 	call	0x73ee	; 0x73ee <_ZN4Wind20getRotationalAverageEv>
    7eee:	7c 01       	movw	r14, r24
		//limit to +-360, after adjust zero
		//C = A  B * (A / B)
		dir = (dir + model->getWindZeroOffset()); // %360;
    7ef0:	d8 01       	movw	r26, r16
    7ef2:	8d 91       	ld	r24, X+
    7ef4:	9c 91       	ld	r25, X
    7ef6:	0e 94 ed 2c 	call	0x59da	; 0x59da <_ZN14FreeBoardModel17getWindZeroOffsetEv>
    7efa:	8e 0d       	add	r24, r14
    7efc:	9f 1d       	adc	r25, r15
		if (dir != 0) {
    7efe:	00 97       	sbiw	r24, 0x00	; 0
    7f00:	41 f0       	breq	.+16     	; 0x7f12 <_ZN4Wind12calcWindDataEv+0x426>
			dir = dir - 360 * (dir / 360);
    7f02:	68 e6       	ldi	r22, 0x68	; 104
    7f04:	71 e0       	ldi	r23, 0x01	; 1
    7f06:	0e 94 e9 44 	call	0x89d2	; 0x89d2 <__divmodhi4>
		}
		//if minus, then reverse to +ve
		if (dir < 0) {
    7f0a:	97 ff       	sbrs	r25, 7
    7f0c:	02 c0       	rjmp	.+4      	; 0x7f12 <_ZN4Wind12calcWindDataEv+0x426>
			dir = 360 + dir;
    7f0e:	88 59       	subi	r24, 0x98	; 152
    7f10:	9e 4f       	sbci	r25, 0xFE	; 254
		}
		model->setWindApparentDir(dir);
    7f12:	bc 01       	movw	r22, r24
    7f14:	f8 01       	movw	r30, r16
    7f16:	80 81       	ld	r24, Z
    7f18:	91 81       	ldd	r25, Z+1	; 0x01
	}
}
    7f1a:	0f 90       	pop	r0
    7f1c:	0f 90       	pop	r0
    7f1e:	0f 90       	pop	r0
    7f20:	0f 90       	pop	r0
    7f22:	df 91       	pop	r29
    7f24:	cf 91       	pop	r28
    7f26:	1f 91       	pop	r17
    7f28:	0f 91       	pop	r16
    7f2a:	ff 90       	pop	r15
    7f2c:	ef 90       	pop	r14
    7f2e:	df 90       	pop	r13
    7f30:	cf 90       	pop	r12
    7f32:	bf 90       	pop	r11
    7f34:	af 90       	pop	r10
    7f36:	9f 90       	pop	r9
    7f38:	8f 90       	pop	r8
    7f3a:	7f 90       	pop	r7
    7f3c:	6f 90       	pop	r6
    7f3e:	5f 90       	pop	r5
    7f40:	4f 90       	pop	r4
		}
		//if minus, then reverse to +ve
		if (dir < 0) {
			dir = 360 + dir;
		}
		model->setWindApparentDir(dir);
    7f42:	0c 94 2a 2e 	jmp	0x5c54	; 0x5c54 <_ZN14FreeBoardModel18setWindApparentDirEi>

00007f46 <_GLOBAL__sub_I_lastSpeedPulse>:

template<typename datatype>
class AverageList {
	public:
		//<<constructor>>
		AverageList(datatype* storage, byte storageSize) : values(storage) , size(storageSize) { 
    7f46:	84 e5       	ldi	r24, 0x54	; 84
    7f48:	91 e1       	ldi	r25, 0x11	; 17
    7f4a:	90 93 50 11 	sts	0x1150, r25
    7f4e:	80 93 4f 11 	sts	0x114F, r24
    7f52:	85 e0       	ldi	r24, 0x05	; 5
    7f54:	80 93 51 11 	sts	0x1151, r24
			currentSize = 0; 
    7f58:	10 92 52 11 	sts	0x1152, r1
			currentIndex = 0; 
    7f5c:	10 92 53 11 	sts	0x1153, r1
    7f60:	08 95       	ret

00007f62 <_Z10store_charhP11ring_buffer>:
    7f62:	fb 01       	movw	r30, r22
    7f64:	e0 5c       	subi	r30, 0xC0	; 192
    7f66:	ff 4f       	sbci	r31, 0xFF	; 255
    7f68:	20 81       	ld	r18, Z
    7f6a:	31 81       	ldd	r19, Z+1	; 0x01
    7f6c:	2f 5f       	subi	r18, 0xFF	; 255
    7f6e:	3f 4f       	sbci	r19, 0xFF	; 255
    7f70:	2f 73       	andi	r18, 0x3F	; 63
    7f72:	33 27       	eor	r19, r19
    7f74:	db 01       	movw	r26, r22
    7f76:	ae 5b       	subi	r26, 0xBE	; 190
    7f78:	bf 4f       	sbci	r27, 0xFF	; 255
    7f7a:	4d 91       	ld	r20, X+
    7f7c:	5c 91       	ld	r21, X
    7f7e:	24 17       	cp	r18, r20
    7f80:	35 07       	cpc	r19, r21
    7f82:	39 f0       	breq	.+14     	; 0x7f92 <_Z10store_charhP11ring_buffer+0x30>
    7f84:	a0 81       	ld	r26, Z
    7f86:	b1 81       	ldd	r27, Z+1	; 0x01
    7f88:	a6 0f       	add	r26, r22
    7f8a:	b7 1f       	adc	r27, r23
    7f8c:	8c 93       	st	X, r24
    7f8e:	31 83       	std	Z+1, r19	; 0x01
    7f90:	20 83       	st	Z, r18
    7f92:	08 95       	ret

00007f94 <_GLOBAL__sub_I_rx_buffer>:
    7f94:	cf 93       	push	r28
    7f96:	10 92 dd 06 	sts	0x06DD, r1
    7f9a:	10 92 dc 06 	sts	0x06DC, r1
    7f9e:	88 ee       	ldi	r24, 0xE8	; 232
    7fa0:	93 e0       	ldi	r25, 0x03	; 3
    7fa2:	a0 e0       	ldi	r26, 0x00	; 0
    7fa4:	b0 e0       	ldi	r27, 0x00	; 0
    7fa6:	80 93 de 06 	sts	0x06DE, r24
    7faa:	90 93 df 06 	sts	0x06DF, r25
    7fae:	a0 93 e0 06 	sts	0x06E0, r26
    7fb2:	b0 93 e1 06 	sts	0x06E1, r27
    7fb6:	2a e5       	ldi	r18, 0x5A	; 90
    7fb8:	36 e0       	ldi	r19, 0x06	; 6
    7fba:	30 93 db 06 	sts	0x06DB, r19
    7fbe:	20 93 da 06 	sts	0x06DA, r18
    7fc2:	48 ed       	ldi	r20, 0xD8	; 216
    7fc4:	58 e0       	ldi	r21, 0x08	; 8
    7fc6:	50 93 e7 06 	sts	0x06E7, r21
    7fca:	40 93 e6 06 	sts	0x06E6, r20
    7fce:	44 e9       	ldi	r20, 0x94	; 148
    7fd0:	58 e0       	ldi	r21, 0x08	; 8
    7fd2:	50 93 e9 06 	sts	0x06E9, r21
    7fd6:	40 93 e8 06 	sts	0x06E8, r20
    7fda:	45 ec       	ldi	r20, 0xC5	; 197
    7fdc:	50 e0       	ldi	r21, 0x00	; 0
    7fde:	50 93 eb 06 	sts	0x06EB, r21
    7fe2:	40 93 ea 06 	sts	0x06EA, r20
    7fe6:	44 ec       	ldi	r20, 0xC4	; 196
    7fe8:	50 e0       	ldi	r21, 0x00	; 0
    7fea:	50 93 ed 06 	sts	0x06ED, r21
    7fee:	40 93 ec 06 	sts	0x06EC, r20
    7ff2:	40 ec       	ldi	r20, 0xC0	; 192
    7ff4:	50 e0       	ldi	r21, 0x00	; 0
    7ff6:	50 93 ef 06 	sts	0x06EF, r21
    7ffa:	40 93 ee 06 	sts	0x06EE, r20
    7ffe:	41 ec       	ldi	r20, 0xC1	; 193
    8000:	50 e0       	ldi	r21, 0x00	; 0
    8002:	50 93 f1 06 	sts	0x06F1, r21
    8006:	40 93 f0 06 	sts	0x06F0, r20
    800a:	42 ec       	ldi	r20, 0xC2	; 194
    800c:	50 e0       	ldi	r21, 0x00	; 0
    800e:	50 93 f3 06 	sts	0x06F3, r21
    8012:	40 93 f2 06 	sts	0x06F2, r20
    8016:	46 ec       	ldi	r20, 0xC6	; 198
    8018:	50 e0       	ldi	r21, 0x00	; 0
    801a:	50 93 f5 06 	sts	0x06F5, r21
    801e:	40 93 f4 06 	sts	0x06F4, r20
    8022:	c4 e0       	ldi	r28, 0x04	; 4
    8024:	c0 93 f6 06 	sts	0x06F6, r28
    8028:	f3 e0       	ldi	r31, 0x03	; 3
    802a:	f0 93 f7 06 	sts	0x06F7, r31
    802e:	e7 e0       	ldi	r30, 0x07	; 7
    8030:	e0 93 f8 06 	sts	0x06F8, r30
    8034:	75 e0       	ldi	r23, 0x05	; 5
    8036:	70 93 f9 06 	sts	0x06F9, r23
    803a:	61 e0       	ldi	r22, 0x01	; 1
    803c:	60 93 fa 06 	sts	0x06FA, r22
    8040:	10 92 bb 06 	sts	0x06BB, r1
    8044:	10 92 ba 06 	sts	0x06BA, r1
    8048:	80 93 bc 06 	sts	0x06BC, r24
    804c:	90 93 bd 06 	sts	0x06BD, r25
    8050:	a0 93 be 06 	sts	0x06BE, r26
    8054:	b0 93 bf 06 	sts	0x06BF, r27
    8058:	30 93 b9 06 	sts	0x06B9, r19
    805c:	20 93 b8 06 	sts	0x06B8, r18
    8060:	40 e5       	ldi	r20, 0x50	; 80
    8062:	58 e0       	ldi	r21, 0x08	; 8
    8064:	50 93 c5 06 	sts	0x06C5, r21
    8068:	40 93 c4 06 	sts	0x06C4, r20
    806c:	4c e0       	ldi	r20, 0x0C	; 12
    806e:	58 e0       	ldi	r21, 0x08	; 8
    8070:	50 93 c7 06 	sts	0x06C7, r21
    8074:	40 93 c6 06 	sts	0x06C6, r20
    8078:	4d ec       	ldi	r20, 0xCD	; 205
    807a:	50 e0       	ldi	r21, 0x00	; 0
    807c:	50 93 c9 06 	sts	0x06C9, r21
    8080:	40 93 c8 06 	sts	0x06C8, r20
    8084:	4c ec       	ldi	r20, 0xCC	; 204
    8086:	50 e0       	ldi	r21, 0x00	; 0
    8088:	50 93 cb 06 	sts	0x06CB, r21
    808c:	40 93 ca 06 	sts	0x06CA, r20
    8090:	48 ec       	ldi	r20, 0xC8	; 200
    8092:	50 e0       	ldi	r21, 0x00	; 0
    8094:	50 93 cd 06 	sts	0x06CD, r21
    8098:	40 93 cc 06 	sts	0x06CC, r20
    809c:	49 ec       	ldi	r20, 0xC9	; 201
    809e:	50 e0       	ldi	r21, 0x00	; 0
    80a0:	50 93 cf 06 	sts	0x06CF, r21
    80a4:	40 93 ce 06 	sts	0x06CE, r20
    80a8:	4a ec       	ldi	r20, 0xCA	; 202
    80aa:	50 e0       	ldi	r21, 0x00	; 0
    80ac:	50 93 d1 06 	sts	0x06D1, r21
    80b0:	40 93 d0 06 	sts	0x06D0, r20
    80b4:	4e ec       	ldi	r20, 0xCE	; 206
    80b6:	50 e0       	ldi	r21, 0x00	; 0
    80b8:	50 93 d3 06 	sts	0x06D3, r21
    80bc:	40 93 d2 06 	sts	0x06D2, r20
    80c0:	c0 93 d4 06 	sts	0x06D4, r28
    80c4:	f0 93 d5 06 	sts	0x06D5, r31
    80c8:	e0 93 d6 06 	sts	0x06D6, r30
    80cc:	70 93 d7 06 	sts	0x06D7, r23
    80d0:	60 93 d8 06 	sts	0x06D8, r22
    80d4:	10 92 99 06 	sts	0x0699, r1
    80d8:	10 92 98 06 	sts	0x0698, r1
    80dc:	80 93 9a 06 	sts	0x069A, r24
    80e0:	90 93 9b 06 	sts	0x069B, r25
    80e4:	a0 93 9c 06 	sts	0x069C, r26
    80e8:	b0 93 9d 06 	sts	0x069D, r27
    80ec:	30 93 97 06 	sts	0x0697, r19
    80f0:	20 93 96 06 	sts	0x0696, r18
    80f4:	48 ec       	ldi	r20, 0xC8	; 200
    80f6:	57 e0       	ldi	r21, 0x07	; 7
    80f8:	50 93 a3 06 	sts	0x06A3, r21
    80fc:	40 93 a2 06 	sts	0x06A2, r20
    8100:	44 e8       	ldi	r20, 0x84	; 132
    8102:	57 e0       	ldi	r21, 0x07	; 7
    8104:	50 93 a5 06 	sts	0x06A5, r21
    8108:	40 93 a4 06 	sts	0x06A4, r20
    810c:	45 ed       	ldi	r20, 0xD5	; 213
    810e:	50 e0       	ldi	r21, 0x00	; 0
    8110:	50 93 a7 06 	sts	0x06A7, r21
    8114:	40 93 a6 06 	sts	0x06A6, r20
    8118:	44 ed       	ldi	r20, 0xD4	; 212
    811a:	50 e0       	ldi	r21, 0x00	; 0
    811c:	50 93 a9 06 	sts	0x06A9, r21
    8120:	40 93 a8 06 	sts	0x06A8, r20
    8124:	40 ed       	ldi	r20, 0xD0	; 208
    8126:	50 e0       	ldi	r21, 0x00	; 0
    8128:	50 93 ab 06 	sts	0x06AB, r21
    812c:	40 93 aa 06 	sts	0x06AA, r20
    8130:	41 ed       	ldi	r20, 0xD1	; 209
    8132:	50 e0       	ldi	r21, 0x00	; 0
    8134:	50 93 ad 06 	sts	0x06AD, r21
    8138:	40 93 ac 06 	sts	0x06AC, r20
    813c:	42 ed       	ldi	r20, 0xD2	; 210
    813e:	50 e0       	ldi	r21, 0x00	; 0
    8140:	50 93 af 06 	sts	0x06AF, r21
    8144:	40 93 ae 06 	sts	0x06AE, r20
    8148:	46 ed       	ldi	r20, 0xD6	; 214
    814a:	50 e0       	ldi	r21, 0x00	; 0
    814c:	50 93 b1 06 	sts	0x06B1, r21
    8150:	40 93 b0 06 	sts	0x06B0, r20
    8154:	c0 93 b2 06 	sts	0x06B2, r28
    8158:	f0 93 b3 06 	sts	0x06B3, r31
    815c:	e0 93 b4 06 	sts	0x06B4, r30
    8160:	70 93 b5 06 	sts	0x06B5, r23
    8164:	60 93 b6 06 	sts	0x06B6, r22
    8168:	10 92 77 06 	sts	0x0677, r1
    816c:	10 92 76 06 	sts	0x0676, r1
    8170:	80 93 78 06 	sts	0x0678, r24
    8174:	90 93 79 06 	sts	0x0679, r25
    8178:	a0 93 7a 06 	sts	0x067A, r26
    817c:	b0 93 7b 06 	sts	0x067B, r27
    8180:	30 93 75 06 	sts	0x0675, r19
    8184:	20 93 74 06 	sts	0x0674, r18
    8188:	80 e4       	ldi	r24, 0x40	; 64
    818a:	97 e0       	ldi	r25, 0x07	; 7
    818c:	90 93 81 06 	sts	0x0681, r25
    8190:	80 93 80 06 	sts	0x0680, r24
    8194:	8c ef       	ldi	r24, 0xFC	; 252
    8196:	96 e0       	ldi	r25, 0x06	; 6
    8198:	90 93 83 06 	sts	0x0683, r25
    819c:	80 93 82 06 	sts	0x0682, r24
    81a0:	85 e3       	ldi	r24, 0x35	; 53
    81a2:	91 e0       	ldi	r25, 0x01	; 1
    81a4:	90 93 85 06 	sts	0x0685, r25
    81a8:	80 93 84 06 	sts	0x0684, r24
    81ac:	84 e3       	ldi	r24, 0x34	; 52
    81ae:	91 e0       	ldi	r25, 0x01	; 1
    81b0:	90 93 87 06 	sts	0x0687, r25
    81b4:	80 93 86 06 	sts	0x0686, r24
    81b8:	80 e3       	ldi	r24, 0x30	; 48
    81ba:	91 e0       	ldi	r25, 0x01	; 1
    81bc:	90 93 89 06 	sts	0x0689, r25
    81c0:	80 93 88 06 	sts	0x0688, r24
    81c4:	81 e3       	ldi	r24, 0x31	; 49
    81c6:	91 e0       	ldi	r25, 0x01	; 1
    81c8:	90 93 8b 06 	sts	0x068B, r25
    81cc:	80 93 8a 06 	sts	0x068A, r24
    81d0:	82 e3       	ldi	r24, 0x32	; 50
    81d2:	91 e0       	ldi	r25, 0x01	; 1
    81d4:	90 93 8d 06 	sts	0x068D, r25
    81d8:	80 93 8c 06 	sts	0x068C, r24
    81dc:	86 e3       	ldi	r24, 0x36	; 54
    81de:	91 e0       	ldi	r25, 0x01	; 1
    81e0:	90 93 8f 06 	sts	0x068F, r25
    81e4:	80 93 8e 06 	sts	0x068E, r24
    81e8:	c0 93 90 06 	sts	0x0690, r28
    81ec:	f0 93 91 06 	sts	0x0691, r31
    81f0:	e0 93 92 06 	sts	0x0692, r30
    81f4:	70 93 93 06 	sts	0x0693, r23
    81f8:	60 93 94 06 	sts	0x0694, r22
    81fc:	cf 91       	pop	r28
    81fe:	08 95       	ret

00008200 <_ZN5Print5writeEPKc>:
    8200:	61 15       	cp	r22, r1
    8202:	71 05       	cpc	r23, r1
    8204:	81 f0       	breq	.+32     	; 0x8226 <_ZN5Print5writeEPKc+0x26>
    8206:	db 01       	movw	r26, r22
    8208:	0d 90       	ld	r0, X+
    820a:	00 20       	and	r0, r0
    820c:	e9 f7       	brne	.-6      	; 0x8208 <_ZN5Print5writeEPKc+0x8>
    820e:	ad 01       	movw	r20, r26
    8210:	41 50       	subi	r20, 0x01	; 1
    8212:	51 09       	sbc	r21, r1
    8214:	46 1b       	sub	r20, r22
    8216:	57 0b       	sbc	r21, r23
    8218:	dc 01       	movw	r26, r24
    821a:	ed 91       	ld	r30, X+
    821c:	fc 91       	ld	r31, X
    821e:	02 80       	ldd	r0, Z+2	; 0x02
    8220:	f3 81       	ldd	r31, Z+3	; 0x03
    8222:	e0 2d       	mov	r30, r0
    8224:	19 94       	eijmp
    8226:	80 e0       	ldi	r24, 0x00	; 0
    8228:	90 e0       	ldi	r25, 0x00	; 0
    822a:	08 95       	ret

0000822c <main>:
    822c:	0e 94 55 16 	call	0x2caa	; 0x2caa <init>
    8230:	0e 94 f7 2e 	call	0x5dee	; 0x5dee <setup>
    8234:	c9 e3       	ldi	r28, 0x39	; 57
    8236:	d3 e0       	ldi	r29, 0x03	; 3
    8238:	0e 94 17 30 	call	0x602e	; 0x602e <loop>
    823c:	20 97       	sbiw	r28, 0x00	; 0
    823e:	e1 f3       	breq	.-8      	; 0x8238 <main+0xc>
    8240:	0e 94 39 03 	call	0x672	; 0x672 <_Z14serialEventRunv>
    8244:	f9 cf       	rjmp	.-14     	; 0x8238 <main+0xc>

00008246 <__subsf3>:
    8246:	50 58       	subi	r21, 0x80	; 128

00008248 <__addsf3>:
    8248:	bb 27       	eor	r27, r27
    824a:	aa 27       	eor	r26, r26
    824c:	0e d0       	rcall	.+28     	; 0x826a <__addsf3x>
    824e:	63 c2       	rjmp	.+1222   	; 0x8716 <__fp_round>
    8250:	2c d2       	rcall	.+1112   	; 0x86aa <__fp_pscA>
    8252:	30 f0       	brcs	.+12     	; 0x8260 <__addsf3+0x18>
    8254:	31 d2       	rcall	.+1122   	; 0x86b8 <__fp_pscB>
    8256:	20 f0       	brcs	.+8      	; 0x8260 <__addsf3+0x18>
    8258:	31 f4       	brne	.+12     	; 0x8266 <__addsf3+0x1e>
    825a:	9f 3f       	cpi	r25, 0xFF	; 255
    825c:	11 f4       	brne	.+4      	; 0x8262 <__addsf3+0x1a>
    825e:	1e f4       	brtc	.+6      	; 0x8266 <__addsf3+0x1e>
    8260:	fc c1       	rjmp	.+1016   	; 0x865a <__fp_nan>
    8262:	0e f4       	brtc	.+2      	; 0x8266 <__addsf3+0x1e>
    8264:	e0 95       	com	r30
    8266:	e7 fb       	bst	r30, 7
    8268:	c9 c1       	rjmp	.+914    	; 0x85fc <__fp_inf>

0000826a <__addsf3x>:
    826a:	e9 2f       	mov	r30, r25
    826c:	76 d2       	rcall	.+1260   	; 0x875a <__fp_split3>
    826e:	80 f3       	brcs	.-32     	; 0x8250 <__addsf3+0x8>
    8270:	ba 17       	cp	r27, r26
    8272:	62 07       	cpc	r22, r18
    8274:	73 07       	cpc	r23, r19
    8276:	84 07       	cpc	r24, r20
    8278:	95 07       	cpc	r25, r21
    827a:	18 f0       	brcs	.+6      	; 0x8282 <__addsf3x+0x18>
    827c:	71 f4       	brne	.+28     	; 0x829a <__addsf3x+0x30>
    827e:	9e f5       	brtc	.+102    	; 0x82e6 <__addsf3x+0x7c>
    8280:	a5 c2       	rjmp	.+1354   	; 0x87cc <__fp_zero>
    8282:	0e f4       	brtc	.+2      	; 0x8286 <__addsf3x+0x1c>
    8284:	e0 95       	com	r30
    8286:	0b 2e       	mov	r0, r27
    8288:	ba 2f       	mov	r27, r26
    828a:	a0 2d       	mov	r26, r0
    828c:	0b 01       	movw	r0, r22
    828e:	b9 01       	movw	r22, r18
    8290:	90 01       	movw	r18, r0
    8292:	0c 01       	movw	r0, r24
    8294:	ca 01       	movw	r24, r20
    8296:	a0 01       	movw	r20, r0
    8298:	11 24       	eor	r1, r1
    829a:	ff 27       	eor	r31, r31
    829c:	59 1b       	sub	r21, r25
    829e:	99 f0       	breq	.+38     	; 0x82c6 <__addsf3x+0x5c>
    82a0:	59 3f       	cpi	r21, 0xF9	; 249
    82a2:	50 f4       	brcc	.+20     	; 0x82b8 <__addsf3x+0x4e>
    82a4:	50 3e       	cpi	r21, 0xE0	; 224
    82a6:	68 f1       	brcs	.+90     	; 0x8302 <__addsf3x+0x98>
    82a8:	1a 16       	cp	r1, r26
    82aa:	f0 40       	sbci	r31, 0x00	; 0
    82ac:	a2 2f       	mov	r26, r18
    82ae:	23 2f       	mov	r18, r19
    82b0:	34 2f       	mov	r19, r20
    82b2:	44 27       	eor	r20, r20
    82b4:	58 5f       	subi	r21, 0xF8	; 248
    82b6:	f3 cf       	rjmp	.-26     	; 0x829e <__addsf3x+0x34>
    82b8:	46 95       	lsr	r20
    82ba:	37 95       	ror	r19
    82bc:	27 95       	ror	r18
    82be:	a7 95       	ror	r26
    82c0:	f0 40       	sbci	r31, 0x00	; 0
    82c2:	53 95       	inc	r21
    82c4:	c9 f7       	brne	.-14     	; 0x82b8 <__addsf3x+0x4e>
    82c6:	7e f4       	brtc	.+30     	; 0x82e6 <__addsf3x+0x7c>
    82c8:	1f 16       	cp	r1, r31
    82ca:	ba 0b       	sbc	r27, r26
    82cc:	62 0b       	sbc	r22, r18
    82ce:	73 0b       	sbc	r23, r19
    82d0:	84 0b       	sbc	r24, r20
    82d2:	ba f0       	brmi	.+46     	; 0x8302 <__addsf3x+0x98>
    82d4:	91 50       	subi	r25, 0x01	; 1
    82d6:	a1 f0       	breq	.+40     	; 0x8300 <__addsf3x+0x96>
    82d8:	ff 0f       	add	r31, r31
    82da:	bb 1f       	adc	r27, r27
    82dc:	66 1f       	adc	r22, r22
    82de:	77 1f       	adc	r23, r23
    82e0:	88 1f       	adc	r24, r24
    82e2:	c2 f7       	brpl	.-16     	; 0x82d4 <__addsf3x+0x6a>
    82e4:	0e c0       	rjmp	.+28     	; 0x8302 <__addsf3x+0x98>
    82e6:	ba 0f       	add	r27, r26
    82e8:	62 1f       	adc	r22, r18
    82ea:	73 1f       	adc	r23, r19
    82ec:	84 1f       	adc	r24, r20
    82ee:	48 f4       	brcc	.+18     	; 0x8302 <__addsf3x+0x98>
    82f0:	87 95       	ror	r24
    82f2:	77 95       	ror	r23
    82f4:	67 95       	ror	r22
    82f6:	b7 95       	ror	r27
    82f8:	f7 95       	ror	r31
    82fa:	9e 3f       	cpi	r25, 0xFE	; 254
    82fc:	08 f0       	brcs	.+2      	; 0x8300 <__addsf3x+0x96>
    82fe:	b3 cf       	rjmp	.-154    	; 0x8266 <__addsf3+0x1e>
    8300:	93 95       	inc	r25
    8302:	88 0f       	add	r24, r24
    8304:	08 f0       	brcs	.+2      	; 0x8308 <__addsf3x+0x9e>
    8306:	99 27       	eor	r25, r25
    8308:	ee 0f       	add	r30, r30
    830a:	97 95       	ror	r25
    830c:	87 95       	ror	r24
    830e:	08 95       	ret
    8310:	cc d1       	rcall	.+920    	; 0x86aa <__fp_pscA>
    8312:	58 f0       	brcs	.+22     	; 0x832a <__addsf3x+0xc0>
    8314:	80 e8       	ldi	r24, 0x80	; 128
    8316:	91 e0       	ldi	r25, 0x01	; 1
    8318:	09 f4       	brne	.+2      	; 0x831c <__addsf3x+0xb2>
    831a:	9e ef       	ldi	r25, 0xFE	; 254
    831c:	cd d1       	rcall	.+922    	; 0x86b8 <__fp_pscB>
    831e:	28 f0       	brcs	.+10     	; 0x832a <__addsf3x+0xc0>
    8320:	40 e8       	ldi	r20, 0x80	; 128
    8322:	51 e0       	ldi	r21, 0x01	; 1
    8324:	59 f4       	brne	.+22     	; 0x833c <atan2+0xe>
    8326:	5e ef       	ldi	r21, 0xFE	; 254
    8328:	09 c0       	rjmp	.+18     	; 0x833c <atan2+0xe>
    832a:	97 c1       	rjmp	.+814    	; 0x865a <__fp_nan>
    832c:	4f c2       	rjmp	.+1182   	; 0x87cc <__fp_zero>

0000832e <atan2>:
    832e:	e9 2f       	mov	r30, r25
    8330:	e0 78       	andi	r30, 0x80	; 128
    8332:	13 d2       	rcall	.+1062   	; 0x875a <__fp_split3>
    8334:	68 f3       	brcs	.-38     	; 0x8310 <__addsf3x+0xa6>
    8336:	09 2e       	mov	r0, r25
    8338:	05 2a       	or	r0, r21
    833a:	c1 f3       	breq	.-16     	; 0x832c <__addsf3x+0xc2>
    833c:	26 17       	cp	r18, r22
    833e:	37 07       	cpc	r19, r23
    8340:	48 07       	cpc	r20, r24
    8342:	59 07       	cpc	r21, r25
    8344:	38 f0       	brcs	.+14     	; 0x8354 <atan2+0x26>
    8346:	0e 2e       	mov	r0, r30
    8348:	07 f8       	bld	r0, 7
    834a:	e0 25       	eor	r30, r0
    834c:	69 f0       	breq	.+26     	; 0x8368 <atan2+0x3a>
    834e:	e0 25       	eor	r30, r0
    8350:	e0 64       	ori	r30, 0x40	; 64
    8352:	0a c0       	rjmp	.+20     	; 0x8368 <atan2+0x3a>
    8354:	ef 63       	ori	r30, 0x3F	; 63
    8356:	07 f8       	bld	r0, 7
    8358:	00 94       	com	r0
    835a:	07 fa       	bst	r0, 7
    835c:	db 01       	movw	r26, r22
    835e:	b9 01       	movw	r22, r18
    8360:	9d 01       	movw	r18, r26
    8362:	dc 01       	movw	r26, r24
    8364:	ca 01       	movw	r24, r20
    8366:	ad 01       	movw	r20, r26
    8368:	ef 93       	push	r30
    836a:	4a d0       	rcall	.+148    	; 0x8400 <__divsf3_pse>
    836c:	d4 d1       	rcall	.+936    	; 0x8716 <__fp_round>
    836e:	0a d0       	rcall	.+20     	; 0x8384 <atan>
    8370:	5f 91       	pop	r21
    8372:	55 23       	and	r21, r21
    8374:	31 f0       	breq	.+12     	; 0x8382 <atan2+0x54>
    8376:	2b ed       	ldi	r18, 0xDB	; 219
    8378:	3f e0       	ldi	r19, 0x0F	; 15
    837a:	49 e4       	ldi	r20, 0x49	; 73
    837c:	50 fd       	sbrc	r21, 0
    837e:	49 ec       	ldi	r20, 0xC9	; 201
    8380:	63 cf       	rjmp	.-314    	; 0x8248 <__addsf3>
    8382:	08 95       	ret

00008384 <atan>:
    8384:	df 93       	push	r29
    8386:	dd 27       	eor	r29, r29
    8388:	b9 2f       	mov	r27, r25
    838a:	bf 77       	andi	r27, 0x7F	; 127
    838c:	40 e8       	ldi	r20, 0x80	; 128
    838e:	5f e3       	ldi	r21, 0x3F	; 63
    8390:	16 16       	cp	r1, r22
    8392:	17 06       	cpc	r1, r23
    8394:	48 07       	cpc	r20, r24
    8396:	5b 07       	cpc	r21, r27
    8398:	10 f4       	brcc	.+4      	; 0x839e <atan+0x1a>
    839a:	d9 2f       	mov	r29, r25
    839c:	22 d2       	rcall	.+1092   	; 0x87e2 <inverse>
    839e:	9f 93       	push	r25
    83a0:	8f 93       	push	r24
    83a2:	7f 93       	push	r23
    83a4:	6f 93       	push	r22
    83a6:	cf d2       	rcall	.+1438   	; 0x8946 <square>
    83a8:	e4 ee       	ldi	r30, 0xE4	; 228
    83aa:	f0 e0       	ldi	r31, 0x00	; 0
    83ac:	59 d1       	rcall	.+690    	; 0x8660 <__fp_powser>
    83ae:	b3 d1       	rcall	.+870    	; 0x8716 <__fp_round>
    83b0:	2f 91       	pop	r18
    83b2:	3f 91       	pop	r19
    83b4:	4f 91       	pop	r20
    83b6:	5f 91       	pop	r21
    83b8:	27 d2       	rcall	.+1102   	; 0x8808 <__mulsf3x>
    83ba:	dd 23       	and	r29, r29
    83bc:	49 f0       	breq	.+18     	; 0x83d0 <atan+0x4c>
    83be:	90 58       	subi	r25, 0x80	; 128
    83c0:	a2 ea       	ldi	r26, 0xA2	; 162
    83c2:	2a ed       	ldi	r18, 0xDA	; 218
    83c4:	3f e0       	ldi	r19, 0x0F	; 15
    83c6:	49 ec       	ldi	r20, 0xC9	; 201
    83c8:	5f e3       	ldi	r21, 0x3F	; 63
    83ca:	d0 78       	andi	r29, 0x80	; 128
    83cc:	5d 27       	eor	r21, r29
    83ce:	4d df       	rcall	.-358    	; 0x826a <__addsf3x>
    83d0:	df 91       	pop	r29
    83d2:	a1 c1       	rjmp	.+834    	; 0x8716 <__fp_round>

000083d4 <__cmpsf2>:
    83d4:	ef d0       	rcall	.+478    	; 0x85b4 <__fp_cmp>
    83d6:	08 f4       	brcc	.+2      	; 0x83da <__cmpsf2+0x6>
    83d8:	81 e0       	ldi	r24, 0x01	; 1
    83da:	08 95       	ret

000083dc <cos>:
    83dc:	75 d1       	rcall	.+746    	; 0x86c8 <__fp_rempio2>
    83de:	e3 95       	inc	r30
    83e0:	ab c1       	rjmp	.+854    	; 0x8738 <__fp_sinus>

000083e2 <__divsf3>:
    83e2:	0c d0       	rcall	.+24     	; 0x83fc <__divsf3x>
    83e4:	98 c1       	rjmp	.+816    	; 0x8716 <__fp_round>
    83e6:	68 d1       	rcall	.+720    	; 0x86b8 <__fp_pscB>
    83e8:	40 f0       	brcs	.+16     	; 0x83fa <__divsf3+0x18>
    83ea:	5f d1       	rcall	.+702    	; 0x86aa <__fp_pscA>
    83ec:	30 f0       	brcs	.+12     	; 0x83fa <__divsf3+0x18>
    83ee:	21 f4       	brne	.+8      	; 0x83f8 <__divsf3+0x16>
    83f0:	5f 3f       	cpi	r21, 0xFF	; 255
    83f2:	19 f0       	breq	.+6      	; 0x83fa <__divsf3+0x18>
    83f4:	03 c1       	rjmp	.+518    	; 0x85fc <__fp_inf>
    83f6:	51 11       	cpse	r21, r1
    83f8:	ea c1       	rjmp	.+980    	; 0x87ce <__fp_szero>
    83fa:	2f c1       	rjmp	.+606    	; 0x865a <__fp_nan>

000083fc <__divsf3x>:
    83fc:	ae d1       	rcall	.+860    	; 0x875a <__fp_split3>
    83fe:	98 f3       	brcs	.-26     	; 0x83e6 <__divsf3+0x4>

00008400 <__divsf3_pse>:
    8400:	99 23       	and	r25, r25
    8402:	c9 f3       	breq	.-14     	; 0x83f6 <__divsf3+0x14>
    8404:	55 23       	and	r21, r21
    8406:	b1 f3       	breq	.-20     	; 0x83f4 <__divsf3+0x12>
    8408:	95 1b       	sub	r25, r21
    840a:	55 0b       	sbc	r21, r21
    840c:	bb 27       	eor	r27, r27
    840e:	aa 27       	eor	r26, r26
    8410:	62 17       	cp	r22, r18
    8412:	73 07       	cpc	r23, r19
    8414:	84 07       	cpc	r24, r20
    8416:	38 f0       	brcs	.+14     	; 0x8426 <__divsf3_pse+0x26>
    8418:	9f 5f       	subi	r25, 0xFF	; 255
    841a:	5f 4f       	sbci	r21, 0xFF	; 255
    841c:	22 0f       	add	r18, r18
    841e:	33 1f       	adc	r19, r19
    8420:	44 1f       	adc	r20, r20
    8422:	aa 1f       	adc	r26, r26
    8424:	a9 f3       	breq	.-22     	; 0x8410 <__divsf3_pse+0x10>
    8426:	33 d0       	rcall	.+102    	; 0x848e <__divsf3_pse+0x8e>
    8428:	0e 2e       	mov	r0, r30
    842a:	3a f0       	brmi	.+14     	; 0x843a <__divsf3_pse+0x3a>
    842c:	e0 e8       	ldi	r30, 0x80	; 128
    842e:	30 d0       	rcall	.+96     	; 0x8490 <__divsf3_pse+0x90>
    8430:	91 50       	subi	r25, 0x01	; 1
    8432:	50 40       	sbci	r21, 0x00	; 0
    8434:	e6 95       	lsr	r30
    8436:	00 1c       	adc	r0, r0
    8438:	ca f7       	brpl	.-14     	; 0x842c <__divsf3_pse+0x2c>
    843a:	29 d0       	rcall	.+82     	; 0x848e <__divsf3_pse+0x8e>
    843c:	fe 2f       	mov	r31, r30
    843e:	27 d0       	rcall	.+78     	; 0x848e <__divsf3_pse+0x8e>
    8440:	66 0f       	add	r22, r22
    8442:	77 1f       	adc	r23, r23
    8444:	88 1f       	adc	r24, r24
    8446:	bb 1f       	adc	r27, r27
    8448:	26 17       	cp	r18, r22
    844a:	37 07       	cpc	r19, r23
    844c:	48 07       	cpc	r20, r24
    844e:	ab 07       	cpc	r26, r27
    8450:	b0 e8       	ldi	r27, 0x80	; 128
    8452:	09 f0       	breq	.+2      	; 0x8456 <__divsf3_pse+0x56>
    8454:	bb 0b       	sbc	r27, r27
    8456:	80 2d       	mov	r24, r0
    8458:	bf 01       	movw	r22, r30
    845a:	ff 27       	eor	r31, r31
    845c:	93 58       	subi	r25, 0x83	; 131
    845e:	5f 4f       	sbci	r21, 0xFF	; 255
    8460:	2a f0       	brmi	.+10     	; 0x846c <__divsf3_pse+0x6c>
    8462:	9e 3f       	cpi	r25, 0xFE	; 254
    8464:	51 05       	cpc	r21, r1
    8466:	68 f0       	brcs	.+26     	; 0x8482 <__divsf3_pse+0x82>
    8468:	c9 c0       	rjmp	.+402    	; 0x85fc <__fp_inf>
    846a:	b1 c1       	rjmp	.+866    	; 0x87ce <__fp_szero>
    846c:	5f 3f       	cpi	r21, 0xFF	; 255
    846e:	ec f3       	brlt	.-6      	; 0x846a <__divsf3_pse+0x6a>
    8470:	98 3e       	cpi	r25, 0xE8	; 232
    8472:	dc f3       	brlt	.-10     	; 0x846a <__divsf3_pse+0x6a>
    8474:	86 95       	lsr	r24
    8476:	77 95       	ror	r23
    8478:	67 95       	ror	r22
    847a:	b7 95       	ror	r27
    847c:	f7 95       	ror	r31
    847e:	9f 5f       	subi	r25, 0xFF	; 255
    8480:	c9 f7       	brne	.-14     	; 0x8474 <__divsf3_pse+0x74>
    8482:	88 0f       	add	r24, r24
    8484:	91 1d       	adc	r25, r1
    8486:	96 95       	lsr	r25
    8488:	87 95       	ror	r24
    848a:	97 f9       	bld	r25, 7
    848c:	08 95       	ret
    848e:	e1 e0       	ldi	r30, 0x01	; 1
    8490:	66 0f       	add	r22, r22
    8492:	77 1f       	adc	r23, r23
    8494:	88 1f       	adc	r24, r24
    8496:	bb 1f       	adc	r27, r27
    8498:	62 17       	cp	r22, r18
    849a:	73 07       	cpc	r23, r19
    849c:	84 07       	cpc	r24, r20
    849e:	ba 07       	cpc	r27, r26
    84a0:	20 f0       	brcs	.+8      	; 0x84aa <__divsf3_pse+0xaa>
    84a2:	62 1b       	sub	r22, r18
    84a4:	73 0b       	sbc	r23, r19
    84a6:	84 0b       	sbc	r24, r20
    84a8:	ba 0b       	sbc	r27, r26
    84aa:	ee 1f       	adc	r30, r30
    84ac:	88 f7       	brcc	.-30     	; 0x8490 <__divsf3_pse+0x90>
    84ae:	e0 95       	com	r30
    84b0:	08 95       	ret

000084b2 <__fixsfsi>:
    84b2:	04 d0       	rcall	.+8      	; 0x84bc <__fixunssfsi>
    84b4:	68 94       	set
    84b6:	b1 11       	cpse	r27, r1
    84b8:	8a c1       	rjmp	.+788    	; 0x87ce <__fp_szero>
    84ba:	08 95       	ret

000084bc <__fixunssfsi>:
    84bc:	56 d1       	rcall	.+684    	; 0x876a <__fp_splitA>
    84be:	88 f0       	brcs	.+34     	; 0x84e2 <__fixunssfsi+0x26>
    84c0:	9f 57       	subi	r25, 0x7F	; 127
    84c2:	90 f0       	brcs	.+36     	; 0x84e8 <__fixunssfsi+0x2c>
    84c4:	b9 2f       	mov	r27, r25
    84c6:	99 27       	eor	r25, r25
    84c8:	b7 51       	subi	r27, 0x17	; 23
    84ca:	a0 f0       	brcs	.+40     	; 0x84f4 <__fixunssfsi+0x38>
    84cc:	d1 f0       	breq	.+52     	; 0x8502 <__fixunssfsi+0x46>
    84ce:	66 0f       	add	r22, r22
    84d0:	77 1f       	adc	r23, r23
    84d2:	88 1f       	adc	r24, r24
    84d4:	99 1f       	adc	r25, r25
    84d6:	1a f0       	brmi	.+6      	; 0x84de <__fixunssfsi+0x22>
    84d8:	ba 95       	dec	r27
    84da:	c9 f7       	brne	.-14     	; 0x84ce <__fixunssfsi+0x12>
    84dc:	12 c0       	rjmp	.+36     	; 0x8502 <__fixunssfsi+0x46>
    84de:	b1 30       	cpi	r27, 0x01	; 1
    84e0:	81 f0       	breq	.+32     	; 0x8502 <__fixunssfsi+0x46>
    84e2:	74 d1       	rcall	.+744    	; 0x87cc <__fp_zero>
    84e4:	b1 e0       	ldi	r27, 0x01	; 1
    84e6:	08 95       	ret
    84e8:	71 c1       	rjmp	.+738    	; 0x87cc <__fp_zero>
    84ea:	67 2f       	mov	r22, r23
    84ec:	78 2f       	mov	r23, r24
    84ee:	88 27       	eor	r24, r24
    84f0:	b8 5f       	subi	r27, 0xF8	; 248
    84f2:	39 f0       	breq	.+14     	; 0x8502 <__fixunssfsi+0x46>
    84f4:	b9 3f       	cpi	r27, 0xF9	; 249
    84f6:	cc f3       	brlt	.-14     	; 0x84ea <__fixunssfsi+0x2e>
    84f8:	86 95       	lsr	r24
    84fa:	77 95       	ror	r23
    84fc:	67 95       	ror	r22
    84fe:	b3 95       	inc	r27
    8500:	d9 f7       	brne	.-10     	; 0x84f8 <__fixunssfsi+0x3c>
    8502:	3e f4       	brtc	.+14     	; 0x8512 <__fixunssfsi+0x56>
    8504:	90 95       	com	r25
    8506:	80 95       	com	r24
    8508:	70 95       	com	r23
    850a:	61 95       	neg	r22
    850c:	7f 4f       	sbci	r23, 0xFF	; 255
    850e:	8f 4f       	sbci	r24, 0xFF	; 255
    8510:	9f 4f       	sbci	r25, 0xFF	; 255
    8512:	08 95       	ret

00008514 <__floatunsisf>:
    8514:	e8 94       	clt
    8516:	09 c0       	rjmp	.+18     	; 0x852a <__floatsisf+0x12>

00008518 <__floatsisf>:
    8518:	97 fb       	bst	r25, 7
    851a:	3e f4       	brtc	.+14     	; 0x852a <__floatsisf+0x12>
    851c:	90 95       	com	r25
    851e:	80 95       	com	r24
    8520:	70 95       	com	r23
    8522:	61 95       	neg	r22
    8524:	7f 4f       	sbci	r23, 0xFF	; 255
    8526:	8f 4f       	sbci	r24, 0xFF	; 255
    8528:	9f 4f       	sbci	r25, 0xFF	; 255
    852a:	99 23       	and	r25, r25
    852c:	a9 f0       	breq	.+42     	; 0x8558 <__floatsisf+0x40>
    852e:	f9 2f       	mov	r31, r25
    8530:	96 e9       	ldi	r25, 0x96	; 150
    8532:	bb 27       	eor	r27, r27
    8534:	93 95       	inc	r25
    8536:	f6 95       	lsr	r31
    8538:	87 95       	ror	r24
    853a:	77 95       	ror	r23
    853c:	67 95       	ror	r22
    853e:	b7 95       	ror	r27
    8540:	f1 11       	cpse	r31, r1
    8542:	f8 cf       	rjmp	.-16     	; 0x8534 <__floatsisf+0x1c>
    8544:	fa f4       	brpl	.+62     	; 0x8584 <__floatsisf+0x6c>
    8546:	bb 0f       	add	r27, r27
    8548:	11 f4       	brne	.+4      	; 0x854e <__floatsisf+0x36>
    854a:	60 ff       	sbrs	r22, 0
    854c:	1b c0       	rjmp	.+54     	; 0x8584 <__floatsisf+0x6c>
    854e:	6f 5f       	subi	r22, 0xFF	; 255
    8550:	7f 4f       	sbci	r23, 0xFF	; 255
    8552:	8f 4f       	sbci	r24, 0xFF	; 255
    8554:	9f 4f       	sbci	r25, 0xFF	; 255
    8556:	16 c0       	rjmp	.+44     	; 0x8584 <__floatsisf+0x6c>
    8558:	88 23       	and	r24, r24
    855a:	11 f0       	breq	.+4      	; 0x8560 <__floatsisf+0x48>
    855c:	96 e9       	ldi	r25, 0x96	; 150
    855e:	11 c0       	rjmp	.+34     	; 0x8582 <__floatsisf+0x6a>
    8560:	77 23       	and	r23, r23
    8562:	21 f0       	breq	.+8      	; 0x856c <__floatsisf+0x54>
    8564:	9e e8       	ldi	r25, 0x8E	; 142
    8566:	87 2f       	mov	r24, r23
    8568:	76 2f       	mov	r23, r22
    856a:	05 c0       	rjmp	.+10     	; 0x8576 <__floatsisf+0x5e>
    856c:	66 23       	and	r22, r22
    856e:	71 f0       	breq	.+28     	; 0x858c <__floatsisf+0x74>
    8570:	96 e8       	ldi	r25, 0x86	; 134
    8572:	86 2f       	mov	r24, r22
    8574:	70 e0       	ldi	r23, 0x00	; 0
    8576:	60 e0       	ldi	r22, 0x00	; 0
    8578:	2a f0       	brmi	.+10     	; 0x8584 <__floatsisf+0x6c>
    857a:	9a 95       	dec	r25
    857c:	66 0f       	add	r22, r22
    857e:	77 1f       	adc	r23, r23
    8580:	88 1f       	adc	r24, r24
    8582:	da f7       	brpl	.-10     	; 0x857a <__floatsisf+0x62>
    8584:	88 0f       	add	r24, r24
    8586:	96 95       	lsr	r25
    8588:	87 95       	ror	r24
    858a:	97 f9       	bld	r25, 7
    858c:	08 95       	ret

0000858e <floor>:
    858e:	07 d1       	rcall	.+526    	; 0x879e <__fp_trunc>
    8590:	80 f0       	brcs	.+32     	; 0x85b2 <floor+0x24>
    8592:	9f 37       	cpi	r25, 0x7F	; 127
    8594:	40 f4       	brcc	.+16     	; 0x85a6 <floor+0x18>
    8596:	91 11       	cpse	r25, r1
    8598:	0e f0       	brts	.+2      	; 0x859c <floor+0xe>
    859a:	19 c1       	rjmp	.+562    	; 0x87ce <__fp_szero>
    859c:	60 e0       	ldi	r22, 0x00	; 0
    859e:	70 e0       	ldi	r23, 0x00	; 0
    85a0:	80 e8       	ldi	r24, 0x80	; 128
    85a2:	9f eb       	ldi	r25, 0xBF	; 191
    85a4:	08 95       	ret
    85a6:	26 f4       	brtc	.+8      	; 0x85b0 <floor+0x22>
    85a8:	1b 16       	cp	r1, r27
    85aa:	61 1d       	adc	r22, r1
    85ac:	71 1d       	adc	r23, r1
    85ae:	81 1d       	adc	r24, r1
    85b0:	2b c0       	rjmp	.+86     	; 0x8608 <__fp_mintl>
    85b2:	45 c0       	rjmp	.+138    	; 0x863e <__fp_mpack>

000085b4 <__fp_cmp>:
    85b4:	99 0f       	add	r25, r25
    85b6:	00 08       	sbc	r0, r0
    85b8:	55 0f       	add	r21, r21
    85ba:	aa 0b       	sbc	r26, r26
    85bc:	e0 e8       	ldi	r30, 0x80	; 128
    85be:	fe ef       	ldi	r31, 0xFE	; 254
    85c0:	16 16       	cp	r1, r22
    85c2:	17 06       	cpc	r1, r23
    85c4:	e8 07       	cpc	r30, r24
    85c6:	f9 07       	cpc	r31, r25
    85c8:	c0 f0       	brcs	.+48     	; 0x85fa <__fp_cmp+0x46>
    85ca:	12 16       	cp	r1, r18
    85cc:	13 06       	cpc	r1, r19
    85ce:	e4 07       	cpc	r30, r20
    85d0:	f5 07       	cpc	r31, r21
    85d2:	98 f0       	brcs	.+38     	; 0x85fa <__fp_cmp+0x46>
    85d4:	62 1b       	sub	r22, r18
    85d6:	73 0b       	sbc	r23, r19
    85d8:	84 0b       	sbc	r24, r20
    85da:	95 0b       	sbc	r25, r21
    85dc:	39 f4       	brne	.+14     	; 0x85ec <__fp_cmp+0x38>
    85de:	0a 26       	eor	r0, r26
    85e0:	61 f0       	breq	.+24     	; 0x85fa <__fp_cmp+0x46>
    85e2:	23 2b       	or	r18, r19
    85e4:	24 2b       	or	r18, r20
    85e6:	25 2b       	or	r18, r21
    85e8:	21 f4       	brne	.+8      	; 0x85f2 <__fp_cmp+0x3e>
    85ea:	08 95       	ret
    85ec:	0a 26       	eor	r0, r26
    85ee:	09 f4       	brne	.+2      	; 0x85f2 <__fp_cmp+0x3e>
    85f0:	a1 40       	sbci	r26, 0x01	; 1
    85f2:	a6 95       	lsr	r26
    85f4:	8f ef       	ldi	r24, 0xFF	; 255
    85f6:	81 1d       	adc	r24, r1
    85f8:	81 1d       	adc	r24, r1
    85fa:	08 95       	ret

000085fc <__fp_inf>:
    85fc:	97 f9       	bld	r25, 7
    85fe:	9f 67       	ori	r25, 0x7F	; 127
    8600:	80 e8       	ldi	r24, 0x80	; 128
    8602:	70 e0       	ldi	r23, 0x00	; 0
    8604:	60 e0       	ldi	r22, 0x00	; 0
    8606:	08 95       	ret

00008608 <__fp_mintl>:
    8608:	88 23       	and	r24, r24
    860a:	71 f4       	brne	.+28     	; 0x8628 <__fp_mintl+0x20>
    860c:	77 23       	and	r23, r23
    860e:	21 f0       	breq	.+8      	; 0x8618 <__fp_mintl+0x10>
    8610:	98 50       	subi	r25, 0x08	; 8
    8612:	87 2b       	or	r24, r23
    8614:	76 2f       	mov	r23, r22
    8616:	07 c0       	rjmp	.+14     	; 0x8626 <__fp_mintl+0x1e>
    8618:	66 23       	and	r22, r22
    861a:	11 f4       	brne	.+4      	; 0x8620 <__fp_mintl+0x18>
    861c:	99 27       	eor	r25, r25
    861e:	0d c0       	rjmp	.+26     	; 0x863a <__fp_mintl+0x32>
    8620:	90 51       	subi	r25, 0x10	; 16
    8622:	86 2b       	or	r24, r22
    8624:	70 e0       	ldi	r23, 0x00	; 0
    8626:	60 e0       	ldi	r22, 0x00	; 0
    8628:	2a f0       	brmi	.+10     	; 0x8634 <__fp_mintl+0x2c>
    862a:	9a 95       	dec	r25
    862c:	66 0f       	add	r22, r22
    862e:	77 1f       	adc	r23, r23
    8630:	88 1f       	adc	r24, r24
    8632:	da f7       	brpl	.-10     	; 0x862a <__fp_mintl+0x22>
    8634:	88 0f       	add	r24, r24
    8636:	96 95       	lsr	r25
    8638:	87 95       	ror	r24
    863a:	97 f9       	bld	r25, 7
    863c:	08 95       	ret

0000863e <__fp_mpack>:
    863e:	9f 3f       	cpi	r25, 0xFF	; 255
    8640:	31 f0       	breq	.+12     	; 0x864e <__fp_mpack_finite+0xc>

00008642 <__fp_mpack_finite>:
    8642:	91 50       	subi	r25, 0x01	; 1
    8644:	20 f4       	brcc	.+8      	; 0x864e <__fp_mpack_finite+0xc>
    8646:	87 95       	ror	r24
    8648:	77 95       	ror	r23
    864a:	67 95       	ror	r22
    864c:	b7 95       	ror	r27
    864e:	88 0f       	add	r24, r24
    8650:	91 1d       	adc	r25, r1
    8652:	96 95       	lsr	r25
    8654:	87 95       	ror	r24
    8656:	97 f9       	bld	r25, 7
    8658:	08 95       	ret

0000865a <__fp_nan>:
    865a:	9f ef       	ldi	r25, 0xFF	; 255
    865c:	80 ec       	ldi	r24, 0xC0	; 192
    865e:	08 95       	ret

00008660 <__fp_powser>:
    8660:	df 93       	push	r29
    8662:	cf 93       	push	r28
    8664:	1f 93       	push	r17
    8666:	0f 93       	push	r16
    8668:	ff 92       	push	r15
    866a:	ef 92       	push	r14
    866c:	df 92       	push	r13
    866e:	7b 01       	movw	r14, r22
    8670:	8c 01       	movw	r16, r24
    8672:	68 94       	set
    8674:	05 c0       	rjmp	.+10     	; 0x8680 <__fp_powser+0x20>
    8676:	da 2e       	mov	r13, r26
    8678:	ef 01       	movw	r28, r30
    867a:	c6 d0       	rcall	.+396    	; 0x8808 <__mulsf3x>
    867c:	fe 01       	movw	r30, r28
    867e:	e8 94       	clt
    8680:	a5 91       	lpm	r26, Z+
    8682:	25 91       	lpm	r18, Z+
    8684:	35 91       	lpm	r19, Z+
    8686:	45 91       	lpm	r20, Z+
    8688:	55 91       	lpm	r21, Z+
    868a:	ae f3       	brts	.-22     	; 0x8676 <__fp_powser+0x16>
    868c:	ef 01       	movw	r28, r30
    868e:	ed dd       	rcall	.-1062   	; 0x826a <__addsf3x>
    8690:	fe 01       	movw	r30, r28
    8692:	97 01       	movw	r18, r14
    8694:	a8 01       	movw	r20, r16
    8696:	da 94       	dec	r13
    8698:	79 f7       	brne	.-34     	; 0x8678 <__fp_powser+0x18>
    869a:	df 90       	pop	r13
    869c:	ef 90       	pop	r14
    869e:	ff 90       	pop	r15
    86a0:	0f 91       	pop	r16
    86a2:	1f 91       	pop	r17
    86a4:	cf 91       	pop	r28
    86a6:	df 91       	pop	r29
    86a8:	08 95       	ret

000086aa <__fp_pscA>:
    86aa:	00 24       	eor	r0, r0
    86ac:	0a 94       	dec	r0
    86ae:	16 16       	cp	r1, r22
    86b0:	17 06       	cpc	r1, r23
    86b2:	18 06       	cpc	r1, r24
    86b4:	09 06       	cpc	r0, r25
    86b6:	08 95       	ret

000086b8 <__fp_pscB>:
    86b8:	00 24       	eor	r0, r0
    86ba:	0a 94       	dec	r0
    86bc:	12 16       	cp	r1, r18
    86be:	13 06       	cpc	r1, r19
    86c0:	14 06       	cpc	r1, r20
    86c2:	05 06       	cpc	r0, r21
    86c4:	08 95       	ret
    86c6:	c9 cf       	rjmp	.-110    	; 0x865a <__fp_nan>

000086c8 <__fp_rempio2>:
    86c8:	50 d0       	rcall	.+160    	; 0x876a <__fp_splitA>
    86ca:	e8 f3       	brcs	.-6      	; 0x86c6 <__fp_pscB+0xe>
    86cc:	e8 94       	clt
    86ce:	e0 e0       	ldi	r30, 0x00	; 0
    86d0:	bb 27       	eor	r27, r27
    86d2:	9f 57       	subi	r25, 0x7F	; 127
    86d4:	f0 f0       	brcs	.+60     	; 0x8712 <__fp_rempio2+0x4a>
    86d6:	2a ed       	ldi	r18, 0xDA	; 218
    86d8:	3f e0       	ldi	r19, 0x0F	; 15
    86da:	49 ec       	ldi	r20, 0xC9	; 201
    86dc:	06 c0       	rjmp	.+12     	; 0x86ea <__fp_rempio2+0x22>
    86de:	ee 0f       	add	r30, r30
    86e0:	bb 0f       	add	r27, r27
    86e2:	66 1f       	adc	r22, r22
    86e4:	77 1f       	adc	r23, r23
    86e6:	88 1f       	adc	r24, r24
    86e8:	28 f0       	brcs	.+10     	; 0x86f4 <__fp_rempio2+0x2c>
    86ea:	b2 3a       	cpi	r27, 0xA2	; 162
    86ec:	62 07       	cpc	r22, r18
    86ee:	73 07       	cpc	r23, r19
    86f0:	84 07       	cpc	r24, r20
    86f2:	28 f0       	brcs	.+10     	; 0x86fe <__fp_rempio2+0x36>
    86f4:	b2 5a       	subi	r27, 0xA2	; 162
    86f6:	62 0b       	sbc	r22, r18
    86f8:	73 0b       	sbc	r23, r19
    86fa:	84 0b       	sbc	r24, r20
    86fc:	e3 95       	inc	r30
    86fe:	9a 95       	dec	r25
    8700:	72 f7       	brpl	.-36     	; 0x86de <__fp_rempio2+0x16>
    8702:	80 38       	cpi	r24, 0x80	; 128
    8704:	30 f4       	brcc	.+12     	; 0x8712 <__fp_rempio2+0x4a>
    8706:	9a 95       	dec	r25
    8708:	bb 0f       	add	r27, r27
    870a:	66 1f       	adc	r22, r22
    870c:	77 1f       	adc	r23, r23
    870e:	88 1f       	adc	r24, r24
    8710:	d2 f7       	brpl	.-12     	; 0x8706 <__fp_rempio2+0x3e>
    8712:	90 48       	sbci	r25, 0x80	; 128
    8714:	96 cf       	rjmp	.-212    	; 0x8642 <__fp_mpack_finite>

00008716 <__fp_round>:
    8716:	09 2e       	mov	r0, r25
    8718:	03 94       	inc	r0
    871a:	00 0c       	add	r0, r0
    871c:	11 f4       	brne	.+4      	; 0x8722 <__fp_round+0xc>
    871e:	88 23       	and	r24, r24
    8720:	52 f0       	brmi	.+20     	; 0x8736 <__fp_round+0x20>
    8722:	bb 0f       	add	r27, r27
    8724:	40 f4       	brcc	.+16     	; 0x8736 <__fp_round+0x20>
    8726:	bf 2b       	or	r27, r31
    8728:	11 f4       	brne	.+4      	; 0x872e <__fp_round+0x18>
    872a:	60 ff       	sbrs	r22, 0
    872c:	04 c0       	rjmp	.+8      	; 0x8736 <__fp_round+0x20>
    872e:	6f 5f       	subi	r22, 0xFF	; 255
    8730:	7f 4f       	sbci	r23, 0xFF	; 255
    8732:	8f 4f       	sbci	r24, 0xFF	; 255
    8734:	9f 4f       	sbci	r25, 0xFF	; 255
    8736:	08 95       	ret

00008738 <__fp_sinus>:
    8738:	ef 93       	push	r30
    873a:	e0 ff       	sbrs	r30, 0
    873c:	06 c0       	rjmp	.+12     	; 0x874a <__fp_sinus+0x12>
    873e:	a2 ea       	ldi	r26, 0xA2	; 162
    8740:	2a ed       	ldi	r18, 0xDA	; 218
    8742:	3f e0       	ldi	r19, 0x0F	; 15
    8744:	49 ec       	ldi	r20, 0xC9	; 201
    8746:	5f eb       	ldi	r21, 0xBF	; 191
    8748:	90 dd       	rcall	.-1248   	; 0x826a <__addsf3x>
    874a:	e5 df       	rcall	.-54     	; 0x8716 <__fp_round>
    874c:	0f 90       	pop	r0
    874e:	03 94       	inc	r0
    8750:	01 fc       	sbrc	r0, 1
    8752:	90 58       	subi	r25, 0x80	; 128
    8754:	e1 e1       	ldi	r30, 0x11	; 17
    8756:	f1 e0       	ldi	r31, 0x01	; 1
    8758:	04 c1       	rjmp	.+520    	; 0x8962 <__fp_powsodd>

0000875a <__fp_split3>:
    875a:	57 fd       	sbrc	r21, 7
    875c:	90 58       	subi	r25, 0x80	; 128
    875e:	44 0f       	add	r20, r20
    8760:	55 1f       	adc	r21, r21
    8762:	59 f0       	breq	.+22     	; 0x877a <__fp_splitA+0x10>
    8764:	5f 3f       	cpi	r21, 0xFF	; 255
    8766:	71 f0       	breq	.+28     	; 0x8784 <__fp_splitA+0x1a>
    8768:	47 95       	ror	r20

0000876a <__fp_splitA>:
    876a:	88 0f       	add	r24, r24
    876c:	97 fb       	bst	r25, 7
    876e:	99 1f       	adc	r25, r25
    8770:	61 f0       	breq	.+24     	; 0x878a <__fp_splitA+0x20>
    8772:	9f 3f       	cpi	r25, 0xFF	; 255
    8774:	79 f0       	breq	.+30     	; 0x8794 <__fp_splitA+0x2a>
    8776:	87 95       	ror	r24
    8778:	08 95       	ret
    877a:	12 16       	cp	r1, r18
    877c:	13 06       	cpc	r1, r19
    877e:	14 06       	cpc	r1, r20
    8780:	55 1f       	adc	r21, r21
    8782:	f2 cf       	rjmp	.-28     	; 0x8768 <__fp_split3+0xe>
    8784:	46 95       	lsr	r20
    8786:	f1 df       	rcall	.-30     	; 0x876a <__fp_splitA>
    8788:	08 c0       	rjmp	.+16     	; 0x879a <__fp_splitA+0x30>
    878a:	16 16       	cp	r1, r22
    878c:	17 06       	cpc	r1, r23
    878e:	18 06       	cpc	r1, r24
    8790:	99 1f       	adc	r25, r25
    8792:	f1 cf       	rjmp	.-30     	; 0x8776 <__fp_splitA+0xc>
    8794:	86 95       	lsr	r24
    8796:	71 05       	cpc	r23, r1
    8798:	61 05       	cpc	r22, r1
    879a:	08 94       	sec
    879c:	08 95       	ret

0000879e <__fp_trunc>:
    879e:	e5 df       	rcall	.-54     	; 0x876a <__fp_splitA>
    87a0:	a0 f0       	brcs	.+40     	; 0x87ca <__fp_trunc+0x2c>
    87a2:	be e7       	ldi	r27, 0x7E	; 126
    87a4:	b9 17       	cp	r27, r25
    87a6:	88 f4       	brcc	.+34     	; 0x87ca <__fp_trunc+0x2c>
    87a8:	bb 27       	eor	r27, r27
    87aa:	9f 38       	cpi	r25, 0x8F	; 143
    87ac:	60 f4       	brcc	.+24     	; 0x87c6 <__fp_trunc+0x28>
    87ae:	16 16       	cp	r1, r22
    87b0:	b1 1d       	adc	r27, r1
    87b2:	67 2f       	mov	r22, r23
    87b4:	78 2f       	mov	r23, r24
    87b6:	88 27       	eor	r24, r24
    87b8:	98 5f       	subi	r25, 0xF8	; 248
    87ba:	f7 cf       	rjmp	.-18     	; 0x87aa <__fp_trunc+0xc>
    87bc:	86 95       	lsr	r24
    87be:	77 95       	ror	r23
    87c0:	67 95       	ror	r22
    87c2:	b1 1d       	adc	r27, r1
    87c4:	93 95       	inc	r25
    87c6:	96 39       	cpi	r25, 0x96	; 150
    87c8:	c8 f3       	brcs	.-14     	; 0x87bc <__fp_trunc+0x1e>
    87ca:	08 95       	ret

000087cc <__fp_zero>:
    87cc:	e8 94       	clt

000087ce <__fp_szero>:
    87ce:	bb 27       	eor	r27, r27
    87d0:	66 27       	eor	r22, r22
    87d2:	77 27       	eor	r23, r23
    87d4:	cb 01       	movw	r24, r22
    87d6:	97 f9       	bld	r25, 7
    87d8:	08 95       	ret

000087da <__gesf2>:
    87da:	ec de       	rcall	.-552    	; 0x85b4 <__fp_cmp>
    87dc:	08 f4       	brcc	.+2      	; 0x87e0 <__gesf2+0x6>
    87de:	8f ef       	ldi	r24, 0xFF	; 255
    87e0:	08 95       	ret

000087e2 <inverse>:
    87e2:	9b 01       	movw	r18, r22
    87e4:	ac 01       	movw	r20, r24
    87e6:	60 e0       	ldi	r22, 0x00	; 0
    87e8:	70 e0       	ldi	r23, 0x00	; 0
    87ea:	80 e8       	ldi	r24, 0x80	; 128
    87ec:	9f e3       	ldi	r25, 0x3F	; 63
    87ee:	f9 cd       	rjmp	.-1038   	; 0x83e2 <__divsf3>

000087f0 <__mulsf3>:
    87f0:	0b d0       	rcall	.+22     	; 0x8808 <__mulsf3x>
    87f2:	91 cf       	rjmp	.-222    	; 0x8716 <__fp_round>
    87f4:	5a df       	rcall	.-332    	; 0x86aa <__fp_pscA>
    87f6:	28 f0       	brcs	.+10     	; 0x8802 <__mulsf3+0x12>
    87f8:	5f df       	rcall	.-322    	; 0x86b8 <__fp_pscB>
    87fa:	18 f0       	brcs	.+6      	; 0x8802 <__mulsf3+0x12>
    87fc:	95 23       	and	r25, r21
    87fe:	09 f0       	breq	.+2      	; 0x8802 <__mulsf3+0x12>
    8800:	fd ce       	rjmp	.-518    	; 0x85fc <__fp_inf>
    8802:	2b cf       	rjmp	.-426    	; 0x865a <__fp_nan>
    8804:	11 24       	eor	r1, r1
    8806:	e3 cf       	rjmp	.-58     	; 0x87ce <__fp_szero>

00008808 <__mulsf3x>:
    8808:	a8 df       	rcall	.-176    	; 0x875a <__fp_split3>
    880a:	a0 f3       	brcs	.-24     	; 0x87f4 <__mulsf3+0x4>

0000880c <__mulsf3_pse>:
    880c:	95 9f       	mul	r25, r21
    880e:	d1 f3       	breq	.-12     	; 0x8804 <__mulsf3+0x14>
    8810:	95 0f       	add	r25, r21
    8812:	50 e0       	ldi	r21, 0x00	; 0
    8814:	55 1f       	adc	r21, r21
    8816:	62 9f       	mul	r22, r18
    8818:	f0 01       	movw	r30, r0
    881a:	72 9f       	mul	r23, r18
    881c:	bb 27       	eor	r27, r27
    881e:	f0 0d       	add	r31, r0
    8820:	b1 1d       	adc	r27, r1
    8822:	63 9f       	mul	r22, r19
    8824:	aa 27       	eor	r26, r26
    8826:	f0 0d       	add	r31, r0
    8828:	b1 1d       	adc	r27, r1
    882a:	aa 1f       	adc	r26, r26
    882c:	64 9f       	mul	r22, r20
    882e:	66 27       	eor	r22, r22
    8830:	b0 0d       	add	r27, r0
    8832:	a1 1d       	adc	r26, r1
    8834:	66 1f       	adc	r22, r22
    8836:	82 9f       	mul	r24, r18
    8838:	22 27       	eor	r18, r18
    883a:	b0 0d       	add	r27, r0
    883c:	a1 1d       	adc	r26, r1
    883e:	62 1f       	adc	r22, r18
    8840:	73 9f       	mul	r23, r19
    8842:	b0 0d       	add	r27, r0
    8844:	a1 1d       	adc	r26, r1
    8846:	62 1f       	adc	r22, r18
    8848:	83 9f       	mul	r24, r19
    884a:	a0 0d       	add	r26, r0
    884c:	61 1d       	adc	r22, r1
    884e:	22 1f       	adc	r18, r18
    8850:	74 9f       	mul	r23, r20
    8852:	33 27       	eor	r19, r19
    8854:	a0 0d       	add	r26, r0
    8856:	61 1d       	adc	r22, r1
    8858:	23 1f       	adc	r18, r19
    885a:	84 9f       	mul	r24, r20
    885c:	60 0d       	add	r22, r0
    885e:	21 1d       	adc	r18, r1
    8860:	82 2f       	mov	r24, r18
    8862:	76 2f       	mov	r23, r22
    8864:	6a 2f       	mov	r22, r26
    8866:	11 24       	eor	r1, r1
    8868:	9f 57       	subi	r25, 0x7F	; 127
    886a:	50 40       	sbci	r21, 0x00	; 0
    886c:	8a f0       	brmi	.+34     	; 0x8890 <__mulsf3_pse+0x84>
    886e:	e1 f0       	breq	.+56     	; 0x88a8 <__mulsf3_pse+0x9c>
    8870:	88 23       	and	r24, r24
    8872:	4a f0       	brmi	.+18     	; 0x8886 <__mulsf3_pse+0x7a>
    8874:	ee 0f       	add	r30, r30
    8876:	ff 1f       	adc	r31, r31
    8878:	bb 1f       	adc	r27, r27
    887a:	66 1f       	adc	r22, r22
    887c:	77 1f       	adc	r23, r23
    887e:	88 1f       	adc	r24, r24
    8880:	91 50       	subi	r25, 0x01	; 1
    8882:	50 40       	sbci	r21, 0x00	; 0
    8884:	a9 f7       	brne	.-22     	; 0x8870 <__mulsf3_pse+0x64>
    8886:	9e 3f       	cpi	r25, 0xFE	; 254
    8888:	51 05       	cpc	r21, r1
    888a:	70 f0       	brcs	.+28     	; 0x88a8 <__mulsf3_pse+0x9c>
    888c:	b7 ce       	rjmp	.-658    	; 0x85fc <__fp_inf>
    888e:	9f cf       	rjmp	.-194    	; 0x87ce <__fp_szero>
    8890:	5f 3f       	cpi	r21, 0xFF	; 255
    8892:	ec f3       	brlt	.-6      	; 0x888e <__mulsf3_pse+0x82>
    8894:	98 3e       	cpi	r25, 0xE8	; 232
    8896:	dc f3       	brlt	.-10     	; 0x888e <__mulsf3_pse+0x82>
    8898:	86 95       	lsr	r24
    889a:	77 95       	ror	r23
    889c:	67 95       	ror	r22
    889e:	b7 95       	ror	r27
    88a0:	f7 95       	ror	r31
    88a2:	e7 95       	ror	r30
    88a4:	9f 5f       	subi	r25, 0xFF	; 255
    88a6:	c1 f7       	brne	.-16     	; 0x8898 <__mulsf3_pse+0x8c>
    88a8:	fe 2b       	or	r31, r30
    88aa:	88 0f       	add	r24, r24
    88ac:	91 1d       	adc	r25, r1
    88ae:	96 95       	lsr	r25
    88b0:	87 95       	ror	r24
    88b2:	97 f9       	bld	r25, 7
    88b4:	08 95       	ret

000088b6 <sin>:
    88b6:	9f 93       	push	r25
    88b8:	07 df       	rcall	.-498    	; 0x86c8 <__fp_rempio2>
    88ba:	0f 90       	pop	r0
    88bc:	07 fc       	sbrc	r0, 7
    88be:	ee 5f       	subi	r30, 0xFE	; 254
    88c0:	3b cf       	rjmp	.-394    	; 0x8738 <__fp_sinus>
    88c2:	11 f4       	brne	.+4      	; 0x88c8 <sin+0x12>
    88c4:	0e f4       	brtc	.+2      	; 0x88c8 <sin+0x12>
    88c6:	c9 ce       	rjmp	.-622    	; 0x865a <__fp_nan>
    88c8:	ba ce       	rjmp	.-652    	; 0x863e <__fp_mpack>

000088ca <sqrt>:
    88ca:	4f df       	rcall	.-354    	; 0x876a <__fp_splitA>
    88cc:	d0 f3       	brcs	.-12     	; 0x88c2 <sin+0xc>
    88ce:	99 23       	and	r25, r25
    88d0:	d9 f3       	breq	.-10     	; 0x88c8 <sin+0x12>
    88d2:	ce f3       	brts	.-14     	; 0x88c6 <sin+0x10>
    88d4:	9f 57       	subi	r25, 0x7F	; 127
    88d6:	55 0b       	sbc	r21, r21
    88d8:	87 ff       	sbrs	r24, 7
    88da:	3c d0       	rcall	.+120    	; 0x8954 <__fp_norm2>
    88dc:	00 24       	eor	r0, r0
    88de:	a0 e6       	ldi	r26, 0x60	; 96
    88e0:	40 ea       	ldi	r20, 0xA0	; 160
    88e2:	90 01       	movw	r18, r0
    88e4:	80 58       	subi	r24, 0x80	; 128
    88e6:	56 95       	lsr	r21
    88e8:	97 95       	ror	r25
    88ea:	28 f4       	brcc	.+10     	; 0x88f6 <sqrt+0x2c>
    88ec:	80 5c       	subi	r24, 0xC0	; 192
    88ee:	66 0f       	add	r22, r22
    88f0:	77 1f       	adc	r23, r23
    88f2:	88 1f       	adc	r24, r24
    88f4:	20 f0       	brcs	.+8      	; 0x88fe <sqrt+0x34>
    88f6:	26 17       	cp	r18, r22
    88f8:	37 07       	cpc	r19, r23
    88fa:	48 07       	cpc	r20, r24
    88fc:	30 f4       	brcc	.+12     	; 0x890a <sqrt+0x40>
    88fe:	62 1b       	sub	r22, r18
    8900:	73 0b       	sbc	r23, r19
    8902:	84 0b       	sbc	r24, r20
    8904:	20 29       	or	r18, r0
    8906:	31 29       	or	r19, r1
    8908:	4a 2b       	or	r20, r26
    890a:	a6 95       	lsr	r26
    890c:	17 94       	ror	r1
    890e:	07 94       	ror	r0
    8910:	20 25       	eor	r18, r0
    8912:	31 25       	eor	r19, r1
    8914:	4a 27       	eor	r20, r26
    8916:	58 f7       	brcc	.-42     	; 0x88ee <sqrt+0x24>
    8918:	66 0f       	add	r22, r22
    891a:	77 1f       	adc	r23, r23
    891c:	88 1f       	adc	r24, r24
    891e:	20 f0       	brcs	.+8      	; 0x8928 <sqrt+0x5e>
    8920:	26 17       	cp	r18, r22
    8922:	37 07       	cpc	r19, r23
    8924:	48 07       	cpc	r20, r24
    8926:	30 f4       	brcc	.+12     	; 0x8934 <sqrt+0x6a>
    8928:	62 0b       	sbc	r22, r18
    892a:	73 0b       	sbc	r23, r19
    892c:	84 0b       	sbc	r24, r20
    892e:	20 0d       	add	r18, r0
    8930:	31 1d       	adc	r19, r1
    8932:	41 1d       	adc	r20, r1
    8934:	a0 95       	com	r26
    8936:	81 f7       	brne	.-32     	; 0x8918 <sqrt+0x4e>
    8938:	b9 01       	movw	r22, r18
    893a:	84 2f       	mov	r24, r20
    893c:	91 58       	subi	r25, 0x81	; 129
    893e:	88 0f       	add	r24, r24
    8940:	96 95       	lsr	r25
    8942:	87 95       	ror	r24
    8944:	08 95       	ret

00008946 <square>:
    8946:	9b 01       	movw	r18, r22
    8948:	ac 01       	movw	r20, r24
    894a:	52 cf       	rjmp	.-348    	; 0x87f0 <__mulsf3>

0000894c <__unordsf2>:
    894c:	33 de       	rcall	.-922    	; 0x85b4 <__fp_cmp>
    894e:	88 0b       	sbc	r24, r24
    8950:	99 0b       	sbc	r25, r25
    8952:	08 95       	ret

00008954 <__fp_norm2>:
    8954:	91 50       	subi	r25, 0x01	; 1
    8956:	50 40       	sbci	r21, 0x00	; 0
    8958:	66 0f       	add	r22, r22
    895a:	77 1f       	adc	r23, r23
    895c:	88 1f       	adc	r24, r24
    895e:	d2 f7       	brpl	.-12     	; 0x8954 <__fp_norm2>
    8960:	08 95       	ret

00008962 <__fp_powsodd>:
    8962:	9f 93       	push	r25
    8964:	8f 93       	push	r24
    8966:	7f 93       	push	r23
    8968:	6f 93       	push	r22
    896a:	ff 93       	push	r31
    896c:	ef 93       	push	r30
    896e:	9b 01       	movw	r18, r22
    8970:	ac 01       	movw	r20, r24
    8972:	3e df       	rcall	.-388    	; 0x87f0 <__mulsf3>
    8974:	ef 91       	pop	r30
    8976:	ff 91       	pop	r31
    8978:	73 de       	rcall	.-794    	; 0x8660 <__fp_powser>
    897a:	2f 91       	pop	r18
    897c:	3f 91       	pop	r19
    897e:	4f 91       	pop	r20
    8980:	5f 91       	pop	r21
    8982:	36 cf       	rjmp	.-404    	; 0x87f0 <__mulsf3>

00008984 <__muluhisi3>:
    8984:	0e 94 3b 45 	call	0x8a76	; 0x8a76 <__umulhisi3>
    8988:	a5 9f       	mul	r26, r21
    898a:	90 0d       	add	r25, r0
    898c:	b4 9f       	mul	r27, r20
    898e:	90 0d       	add	r25, r0
    8990:	a4 9f       	mul	r26, r20
    8992:	80 0d       	add	r24, r0
    8994:	91 1d       	adc	r25, r1
    8996:	11 24       	eor	r1, r1
    8998:	08 95       	ret

0000899a <__mulsi3>:
    899a:	db 01       	movw	r26, r22
    899c:	8f 93       	push	r24
    899e:	9f 93       	push	r25
    89a0:	0e 94 c2 44 	call	0x8984	; 0x8984 <__muluhisi3>
    89a4:	bf 91       	pop	r27
    89a6:	af 91       	pop	r26
    89a8:	a2 9f       	mul	r26, r18
    89aa:	80 0d       	add	r24, r0
    89ac:	91 1d       	adc	r25, r1
    89ae:	a3 9f       	mul	r26, r19
    89b0:	90 0d       	add	r25, r0
    89b2:	b2 9f       	mul	r27, r18
    89b4:	90 0d       	add	r25, r0
    89b6:	11 24       	eor	r1, r1
    89b8:	08 95       	ret

000089ba <__udivmodqi4>:
    89ba:	99 1b       	sub	r25, r25
    89bc:	79 e0       	ldi	r23, 0x09	; 9
    89be:	04 c0       	rjmp	.+8      	; 0x89c8 <__udivmodqi4_ep>

000089c0 <__udivmodqi4_loop>:
    89c0:	99 1f       	adc	r25, r25
    89c2:	96 17       	cp	r25, r22
    89c4:	08 f0       	brcs	.+2      	; 0x89c8 <__udivmodqi4_ep>
    89c6:	96 1b       	sub	r25, r22

000089c8 <__udivmodqi4_ep>:
    89c8:	88 1f       	adc	r24, r24
    89ca:	7a 95       	dec	r23
    89cc:	c9 f7       	brne	.-14     	; 0x89c0 <__udivmodqi4_loop>
    89ce:	80 95       	com	r24
    89d0:	08 95       	ret

000089d2 <__divmodhi4>:
    89d2:	97 fb       	bst	r25, 7
    89d4:	07 2e       	mov	r0, r23
    89d6:	16 f4       	brtc	.+4      	; 0x89dc <__divmodhi4+0xa>
    89d8:	00 94       	com	r0
    89da:	07 d0       	rcall	.+14     	; 0x89ea <__divmodhi4_neg1>
    89dc:	77 fd       	sbrc	r23, 7
    89de:	09 d0       	rcall	.+18     	; 0x89f2 <__divmodhi4_neg2>
    89e0:	0e 94 47 45 	call	0x8a8e	; 0x8a8e <__udivmodhi4>
    89e4:	07 fc       	sbrc	r0, 7
    89e6:	05 d0       	rcall	.+10     	; 0x89f2 <__divmodhi4_neg2>
    89e8:	3e f4       	brtc	.+14     	; 0x89f8 <__divmodhi4_exit>

000089ea <__divmodhi4_neg1>:
    89ea:	90 95       	com	r25
    89ec:	81 95       	neg	r24
    89ee:	9f 4f       	sbci	r25, 0xFF	; 255
    89f0:	08 95       	ret

000089f2 <__divmodhi4_neg2>:
    89f2:	70 95       	com	r23
    89f4:	61 95       	neg	r22
    89f6:	7f 4f       	sbci	r23, 0xFF	; 255

000089f8 <__divmodhi4_exit>:
    89f8:	08 95       	ret

000089fa <__udivmodsi4>:
    89fa:	a1 e2       	ldi	r26, 0x21	; 33
    89fc:	1a 2e       	mov	r1, r26
    89fe:	aa 1b       	sub	r26, r26
    8a00:	bb 1b       	sub	r27, r27
    8a02:	fd 01       	movw	r30, r26
    8a04:	0d c0       	rjmp	.+26     	; 0x8a20 <__udivmodsi4_ep>

00008a06 <__udivmodsi4_loop>:
    8a06:	aa 1f       	adc	r26, r26
    8a08:	bb 1f       	adc	r27, r27
    8a0a:	ee 1f       	adc	r30, r30
    8a0c:	ff 1f       	adc	r31, r31
    8a0e:	a2 17       	cp	r26, r18
    8a10:	b3 07       	cpc	r27, r19
    8a12:	e4 07       	cpc	r30, r20
    8a14:	f5 07       	cpc	r31, r21
    8a16:	20 f0       	brcs	.+8      	; 0x8a20 <__udivmodsi4_ep>
    8a18:	a2 1b       	sub	r26, r18
    8a1a:	b3 0b       	sbc	r27, r19
    8a1c:	e4 0b       	sbc	r30, r20
    8a1e:	f5 0b       	sbc	r31, r21

00008a20 <__udivmodsi4_ep>:
    8a20:	66 1f       	adc	r22, r22
    8a22:	77 1f       	adc	r23, r23
    8a24:	88 1f       	adc	r24, r24
    8a26:	99 1f       	adc	r25, r25
    8a28:	1a 94       	dec	r1
    8a2a:	69 f7       	brne	.-38     	; 0x8a06 <__udivmodsi4_loop>
    8a2c:	60 95       	com	r22
    8a2e:	70 95       	com	r23
    8a30:	80 95       	com	r24
    8a32:	90 95       	com	r25
    8a34:	9b 01       	movw	r18, r22
    8a36:	ac 01       	movw	r20, r24
    8a38:	bd 01       	movw	r22, r26
    8a3a:	cf 01       	movw	r24, r30
    8a3c:	08 95       	ret

00008a3e <__divmodsi4>:
    8a3e:	05 2e       	mov	r0, r21
    8a40:	97 fb       	bst	r25, 7
    8a42:	16 f4       	brtc	.+4      	; 0x8a48 <__divmodsi4+0xa>
    8a44:	00 94       	com	r0
    8a46:	07 d0       	rcall	.+14     	; 0x8a56 <__divmodsi4_neg1>
    8a48:	57 fd       	sbrc	r21, 7
    8a4a:	0d d0       	rcall	.+26     	; 0x8a66 <__divmodsi4_neg2>
    8a4c:	0e 94 fd 44 	call	0x89fa	; 0x89fa <__udivmodsi4>
    8a50:	07 fc       	sbrc	r0, 7
    8a52:	09 d0       	rcall	.+18     	; 0x8a66 <__divmodsi4_neg2>
    8a54:	7e f4       	brtc	.+30     	; 0x8a74 <__divmodsi4_exit>

00008a56 <__divmodsi4_neg1>:
    8a56:	90 95       	com	r25
    8a58:	80 95       	com	r24
    8a5a:	70 95       	com	r23
    8a5c:	61 95       	neg	r22
    8a5e:	7f 4f       	sbci	r23, 0xFF	; 255
    8a60:	8f 4f       	sbci	r24, 0xFF	; 255
    8a62:	9f 4f       	sbci	r25, 0xFF	; 255
    8a64:	08 95       	ret

00008a66 <__divmodsi4_neg2>:
    8a66:	50 95       	com	r21
    8a68:	40 95       	com	r20
    8a6a:	30 95       	com	r19
    8a6c:	21 95       	neg	r18
    8a6e:	3f 4f       	sbci	r19, 0xFF	; 255
    8a70:	4f 4f       	sbci	r20, 0xFF	; 255
    8a72:	5f 4f       	sbci	r21, 0xFF	; 255

00008a74 <__divmodsi4_exit>:
    8a74:	08 95       	ret

00008a76 <__umulhisi3>:
    8a76:	a2 9f       	mul	r26, r18
    8a78:	b0 01       	movw	r22, r0
    8a7a:	b3 9f       	mul	r27, r19
    8a7c:	c0 01       	movw	r24, r0
    8a7e:	a3 9f       	mul	r26, r19
    8a80:	01 d0       	rcall	.+2      	; 0x8a84 <__umulhisi3+0xe>
    8a82:	b2 9f       	mul	r27, r18
    8a84:	70 0d       	add	r23, r0
    8a86:	81 1d       	adc	r24, r1
    8a88:	11 24       	eor	r1, r1
    8a8a:	91 1d       	adc	r25, r1
    8a8c:	08 95       	ret

00008a8e <__udivmodhi4>:
    8a8e:	aa 1b       	sub	r26, r26
    8a90:	bb 1b       	sub	r27, r27
    8a92:	51 e1       	ldi	r21, 0x11	; 17
    8a94:	07 c0       	rjmp	.+14     	; 0x8aa4 <__udivmodhi4_ep>

00008a96 <__udivmodhi4_loop>:
    8a96:	aa 1f       	adc	r26, r26
    8a98:	bb 1f       	adc	r27, r27
    8a9a:	a6 17       	cp	r26, r22
    8a9c:	b7 07       	cpc	r27, r23
    8a9e:	10 f0       	brcs	.+4      	; 0x8aa4 <__udivmodhi4_ep>
    8aa0:	a6 1b       	sub	r26, r22
    8aa2:	b7 0b       	sbc	r27, r23

00008aa4 <__udivmodhi4_ep>:
    8aa4:	88 1f       	adc	r24, r24
    8aa6:	99 1f       	adc	r25, r25
    8aa8:	5a 95       	dec	r21
    8aaa:	a9 f7       	brne	.-22     	; 0x8a96 <__udivmodhi4_loop>
    8aac:	80 95       	com	r24
    8aae:	90 95       	com	r25
    8ab0:	bc 01       	movw	r22, r24
    8ab2:	cd 01       	movw	r24, r26
    8ab4:	08 95       	ret

00008ab6 <__tablejump_elpm__>:
    8ab6:	07 90       	elpm	r0, Z+
    8ab8:	f6 91       	elpm	r31, Z+
    8aba:	e0 2d       	mov	r30, r0
    8abc:	19 94       	eijmp

00008abe <atof>:
    8abe:	66 27       	eor	r22, r22
    8ac0:	77 27       	eor	r23, r23
    8ac2:	0c 94 26 47 	jmp	0x8e4c	; 0x8e4c <strtod>

00008ac6 <atoi>:
    8ac6:	fc 01       	movw	r30, r24
    8ac8:	88 27       	eor	r24, r24
    8aca:	99 27       	eor	r25, r25
    8acc:	e8 94       	clt
    8ace:	21 91       	ld	r18, Z+
    8ad0:	20 32       	cpi	r18, 0x20	; 32
    8ad2:	e9 f3       	breq	.-6      	; 0x8ace <atoi+0x8>
    8ad4:	29 30       	cpi	r18, 0x09	; 9
    8ad6:	10 f0       	brcs	.+4      	; 0x8adc <atoi+0x16>
    8ad8:	2e 30       	cpi	r18, 0x0E	; 14
    8ada:	c8 f3       	brcs	.-14     	; 0x8ace <atoi+0x8>
    8adc:	2b 32       	cpi	r18, 0x2B	; 43
    8ade:	41 f0       	breq	.+16     	; 0x8af0 <atoi+0x2a>
    8ae0:	2d 32       	cpi	r18, 0x2D	; 45
    8ae2:	39 f4       	brne	.+14     	; 0x8af2 <atoi+0x2c>
    8ae4:	68 94       	set
    8ae6:	04 c0       	rjmp	.+8      	; 0x8af0 <atoi+0x2a>
    8ae8:	0e 94 cd 46 	call	0x8d9a	; 0x8d9a <__mulhi_const_10>
    8aec:	82 0f       	add	r24, r18
    8aee:	91 1d       	adc	r25, r1
    8af0:	21 91       	ld	r18, Z+
    8af2:	20 53       	subi	r18, 0x30	; 48
    8af4:	2a 30       	cpi	r18, 0x0A	; 10
    8af6:	c0 f3       	brcs	.-16     	; 0x8ae8 <atoi+0x22>
    8af8:	1e f4       	brtc	.+6      	; 0x8b00 <atoi+0x3a>
    8afa:	90 95       	com	r25
    8afc:	81 95       	neg	r24
    8afe:	9f 4f       	sbci	r25, 0xFF	; 255
    8b00:	08 95       	ret

00008b02 <atol>:
    8b02:	1f 93       	push	r17
    8b04:	fc 01       	movw	r30, r24
    8b06:	99 27       	eor	r25, r25
    8b08:	88 27       	eor	r24, r24
    8b0a:	bc 01       	movw	r22, r24
    8b0c:	e8 94       	clt
    8b0e:	11 91       	ld	r17, Z+
    8b10:	10 32       	cpi	r17, 0x20	; 32
    8b12:	e9 f3       	breq	.-6      	; 0x8b0e <atol+0xc>
    8b14:	19 30       	cpi	r17, 0x09	; 9
    8b16:	10 f0       	brcs	.+4      	; 0x8b1c <atol+0x1a>
    8b18:	1e 30       	cpi	r17, 0x0E	; 14
    8b1a:	c8 f3       	brcs	.-14     	; 0x8b0e <atol+0xc>
    8b1c:	1b 32       	cpi	r17, 0x2B	; 43
    8b1e:	51 f0       	breq	.+20     	; 0x8b34 <atol+0x32>
    8b20:	1d 32       	cpi	r17, 0x2D	; 45
    8b22:	49 f4       	brne	.+18     	; 0x8b36 <atol+0x34>
    8b24:	68 94       	set
    8b26:	06 c0       	rjmp	.+12     	; 0x8b34 <atol+0x32>
    8b28:	0e 94 b8 46 	call	0x8d70	; 0x8d70 <__mulsi_const_10>
    8b2c:	61 0f       	add	r22, r17
    8b2e:	71 1d       	adc	r23, r1
    8b30:	81 1d       	adc	r24, r1
    8b32:	91 1d       	adc	r25, r1
    8b34:	11 91       	ld	r17, Z+
    8b36:	10 53       	subi	r17, 0x30	; 48
    8b38:	1a 30       	cpi	r17, 0x0A	; 10
    8b3a:	b0 f3       	brcs	.-20     	; 0x8b28 <atol+0x26>
    8b3c:	3e f4       	brtc	.+14     	; 0x8b4c <atol+0x4a>
    8b3e:	90 95       	com	r25
    8b40:	80 95       	com	r24
    8b42:	70 95       	com	r23
    8b44:	61 95       	neg	r22
    8b46:	7f 4f       	sbci	r23, 0xFF	; 255
    8b48:	8f 4f       	sbci	r24, 0xFF	; 255
    8b4a:	9f 4f       	sbci	r25, 0xFF	; 255
    8b4c:	1f 91       	pop	r17
    8b4e:	08 95       	ret

00008b50 <isspace>:
    8b50:	91 11       	cpse	r25, r1
    8b52:	e1 c2       	rjmp	.+1474   	; 0x9116 <__ctype_isfalse>
    8b54:	80 32       	cpi	r24, 0x20	; 32
    8b56:	19 f0       	breq	.+6      	; 0x8b5e <isspace+0xe>
    8b58:	89 50       	subi	r24, 0x09	; 9
    8b5a:	85 50       	subi	r24, 0x05	; 5
    8b5c:	d0 f7       	brcc	.-12     	; 0x8b52 <isspace+0x2>
    8b5e:	08 95       	ret

00008b60 <tolower>:
    8b60:	91 11       	cpse	r25, r1
    8b62:	08 95       	ret
    8b64:	81 54       	subi	r24, 0x41	; 65
    8b66:	8a 51       	subi	r24, 0x1A	; 26
    8b68:	08 f4       	brcc	.+2      	; 0x8b6c <tolower+0xc>
    8b6a:	80 5e       	subi	r24, 0xE0	; 224
    8b6c:	85 5a       	subi	r24, 0xA5	; 165
    8b6e:	08 95       	ret

00008b70 <toupper>:
    8b70:	91 11       	cpse	r25, r1
    8b72:	08 95       	ret
    8b74:	81 56       	subi	r24, 0x61	; 97
    8b76:	8a 51       	subi	r24, 0x1A	; 26
    8b78:	08 f4       	brcc	.+2      	; 0x8b7c <toupper+0xc>
    8b7a:	80 52       	subi	r24, 0x20	; 32
    8b7c:	85 58       	subi	r24, 0x85	; 133
    8b7e:	08 95       	ret

00008b80 <strtok>:
    8b80:	46 e3       	ldi	r20, 0x36	; 54
    8b82:	59 e0       	ldi	r21, 0x09	; 9
    8b84:	0c 94 3c 46 	jmp	0x8c78	; 0x8c78 <strtok_r>

00008b88 <memcpy>:
    8b88:	fb 01       	movw	r30, r22
    8b8a:	dc 01       	movw	r26, r24
    8b8c:	02 c0       	rjmp	.+4      	; 0x8b92 <memcpy+0xa>
    8b8e:	01 90       	ld	r0, Z+
    8b90:	0d 92       	st	X+, r0
    8b92:	41 50       	subi	r20, 0x01	; 1
    8b94:	50 40       	sbci	r21, 0x00	; 0
    8b96:	d8 f7       	brcc	.-10     	; 0x8b8e <memcpy+0x6>
    8b98:	08 95       	ret

00008b9a <memmove>:
    8b9a:	68 17       	cp	r22, r24
    8b9c:	79 07       	cpc	r23, r25
    8b9e:	68 f4       	brcc	.+26     	; 0x8bba <memmove+0x20>
    8ba0:	fb 01       	movw	r30, r22
    8ba2:	dc 01       	movw	r26, r24
    8ba4:	e4 0f       	add	r30, r20
    8ba6:	f5 1f       	adc	r31, r21
    8ba8:	a4 0f       	add	r26, r20
    8baa:	b5 1f       	adc	r27, r21
    8bac:	02 c0       	rjmp	.+4      	; 0x8bb2 <memmove+0x18>
    8bae:	02 90       	ld	r0, -Z
    8bb0:	0e 92       	st	-X, r0
    8bb2:	41 50       	subi	r20, 0x01	; 1
    8bb4:	50 40       	sbci	r21, 0x00	; 0
    8bb6:	d8 f7       	brcc	.-10     	; 0x8bae <memmove+0x14>
    8bb8:	08 95       	ret
    8bba:	0c 94 c4 45 	jmp	0x8b88	; 0x8b88 <memcpy>

00008bbe <strchr>:
    8bbe:	fc 01       	movw	r30, r24
    8bc0:	81 91       	ld	r24, Z+
    8bc2:	86 17       	cp	r24, r22
    8bc4:	21 f0       	breq	.+8      	; 0x8bce <strchr+0x10>
    8bc6:	88 23       	and	r24, r24
    8bc8:	d9 f7       	brne	.-10     	; 0x8bc0 <strchr+0x2>
    8bca:	99 27       	eor	r25, r25
    8bcc:	08 95       	ret
    8bce:	31 97       	sbiw	r30, 0x01	; 1
    8bd0:	cf 01       	movw	r24, r30
    8bd2:	08 95       	ret

00008bd4 <strcmp>:
    8bd4:	fb 01       	movw	r30, r22
    8bd6:	dc 01       	movw	r26, r24
    8bd8:	8d 91       	ld	r24, X+
    8bda:	01 90       	ld	r0, Z+
    8bdc:	80 19       	sub	r24, r0
    8bde:	01 10       	cpse	r0, r1
    8be0:	d9 f3       	breq	.-10     	; 0x8bd8 <strcmp+0x4>
    8be2:	99 0b       	sbc	r25, r25
    8be4:	08 95       	ret

00008be6 <strcpy>:
    8be6:	fb 01       	movw	r30, r22
    8be8:	dc 01       	movw	r26, r24
    8bea:	01 90       	ld	r0, Z+
    8bec:	0d 92       	st	X+, r0
    8bee:	00 20       	and	r0, r0
    8bf0:	e1 f7       	brne	.-8      	; 0x8bea <strcpy+0x4>
    8bf2:	08 95       	ret

00008bf4 <strncmp>:
    8bf4:	fb 01       	movw	r30, r22
    8bf6:	dc 01       	movw	r26, r24
    8bf8:	41 50       	subi	r20, 0x01	; 1
    8bfa:	50 40       	sbci	r21, 0x00	; 0
    8bfc:	30 f0       	brcs	.+12     	; 0x8c0a <strncmp+0x16>
    8bfe:	8d 91       	ld	r24, X+
    8c00:	01 90       	ld	r0, Z+
    8c02:	80 19       	sub	r24, r0
    8c04:	19 f4       	brne	.+6      	; 0x8c0c <strncmp+0x18>
    8c06:	00 20       	and	r0, r0
    8c08:	b9 f7       	brne	.-18     	; 0x8bf8 <strncmp+0x4>
    8c0a:	88 1b       	sub	r24, r24
    8c0c:	99 0b       	sbc	r25, r25
    8c0e:	08 95       	ret

00008c10 <strncpy>:
    8c10:	fb 01       	movw	r30, r22
    8c12:	dc 01       	movw	r26, r24
    8c14:	41 50       	subi	r20, 0x01	; 1
    8c16:	50 40       	sbci	r21, 0x00	; 0
    8c18:	48 f0       	brcs	.+18     	; 0x8c2c <strncpy+0x1c>
    8c1a:	01 90       	ld	r0, Z+
    8c1c:	0d 92       	st	X+, r0
    8c1e:	00 20       	and	r0, r0
    8c20:	c9 f7       	brne	.-14     	; 0x8c14 <strncpy+0x4>
    8c22:	01 c0       	rjmp	.+2      	; 0x8c26 <strncpy+0x16>
    8c24:	1d 92       	st	X+, r1
    8c26:	41 50       	subi	r20, 0x01	; 1
    8c28:	50 40       	sbci	r21, 0x00	; 0
    8c2a:	e0 f7       	brcc	.-8      	; 0x8c24 <strncpy+0x14>
    8c2c:	08 95       	ret

00008c2e <strrchr>:
    8c2e:	fc 01       	movw	r30, r24
    8c30:	81 e0       	ldi	r24, 0x01	; 1
    8c32:	90 e0       	ldi	r25, 0x00	; 0
    8c34:	01 90       	ld	r0, Z+
    8c36:	06 16       	cp	r0, r22
    8c38:	09 f4       	brne	.+2      	; 0x8c3c <strrchr+0xe>
    8c3a:	cf 01       	movw	r24, r30
    8c3c:	00 20       	and	r0, r0
    8c3e:	d1 f7       	brne	.-12     	; 0x8c34 <strrchr+0x6>
    8c40:	01 97       	sbiw	r24, 0x01	; 1
    8c42:	08 95       	ret

00008c44 <strstr>:
    8c44:	fb 01       	movw	r30, r22
    8c46:	51 91       	ld	r21, Z+
    8c48:	55 23       	and	r21, r21
    8c4a:	a9 f0       	breq	.+42     	; 0x8c76 <strstr+0x32>
    8c4c:	bf 01       	movw	r22, r30
    8c4e:	dc 01       	movw	r26, r24
    8c50:	4d 91       	ld	r20, X+
    8c52:	45 17       	cp	r20, r21
    8c54:	41 11       	cpse	r20, r1
    8c56:	e1 f7       	brne	.-8      	; 0x8c50 <strstr+0xc>
    8c58:	59 f4       	brne	.+22     	; 0x8c70 <strstr+0x2c>
    8c5a:	cd 01       	movw	r24, r26
    8c5c:	01 90       	ld	r0, Z+
    8c5e:	00 20       	and	r0, r0
    8c60:	49 f0       	breq	.+18     	; 0x8c74 <strstr+0x30>
    8c62:	4d 91       	ld	r20, X+
    8c64:	40 15       	cp	r20, r0
    8c66:	41 11       	cpse	r20, r1
    8c68:	c9 f3       	breq	.-14     	; 0x8c5c <strstr+0x18>
    8c6a:	fb 01       	movw	r30, r22
    8c6c:	41 11       	cpse	r20, r1
    8c6e:	ef cf       	rjmp	.-34     	; 0x8c4e <strstr+0xa>
    8c70:	81 e0       	ldi	r24, 0x01	; 1
    8c72:	90 e0       	ldi	r25, 0x00	; 0
    8c74:	01 97       	sbiw	r24, 0x01	; 1
    8c76:	08 95       	ret

00008c78 <strtok_r>:
    8c78:	fa 01       	movw	r30, r20
    8c7a:	a1 91       	ld	r26, Z+
    8c7c:	b0 81       	ld	r27, Z
    8c7e:	00 97       	sbiw	r24, 0x00	; 0
    8c80:	19 f4       	brne	.+6      	; 0x8c88 <strtok_r+0x10>
    8c82:	10 97       	sbiw	r26, 0x00	; 0
    8c84:	e1 f0       	breq	.+56     	; 0x8cbe <strtok_r+0x46>
    8c86:	cd 01       	movw	r24, r26
    8c88:	dc 01       	movw	r26, r24
    8c8a:	cd 01       	movw	r24, r26
    8c8c:	0d 90       	ld	r0, X+
    8c8e:	00 20       	and	r0, r0
    8c90:	11 f4       	brne	.+4      	; 0x8c96 <strtok_r+0x1e>
    8c92:	c0 01       	movw	r24, r0
    8c94:	13 c0       	rjmp	.+38     	; 0x8cbc <strtok_r+0x44>
    8c96:	fb 01       	movw	r30, r22
    8c98:	21 91       	ld	r18, Z+
    8c9a:	22 23       	and	r18, r18
    8c9c:	19 f0       	breq	.+6      	; 0x8ca4 <strtok_r+0x2c>
    8c9e:	20 15       	cp	r18, r0
    8ca0:	d9 f7       	brne	.-10     	; 0x8c98 <strtok_r+0x20>
    8ca2:	f3 cf       	rjmp	.-26     	; 0x8c8a <strtok_r+0x12>
    8ca4:	fb 01       	movw	r30, r22
    8ca6:	21 91       	ld	r18, Z+
    8ca8:	20 15       	cp	r18, r0
    8caa:	19 f4       	brne	.+6      	; 0x8cb2 <strtok_r+0x3a>
    8cac:	1e 92       	st	-X, r1
    8cae:	11 96       	adiw	r26, 0x01	; 1
    8cb0:	06 c0       	rjmp	.+12     	; 0x8cbe <strtok_r+0x46>
    8cb2:	22 23       	and	r18, r18
    8cb4:	c1 f7       	brne	.-16     	; 0x8ca6 <strtok_r+0x2e>
    8cb6:	0d 90       	ld	r0, X+
    8cb8:	00 20       	and	r0, r0
    8cba:	a1 f7       	brne	.-24     	; 0x8ca4 <strtok_r+0x2c>
    8cbc:	d0 01       	movw	r26, r0
    8cbe:	fa 01       	movw	r30, r20
    8cc0:	a1 93       	st	Z+, r26
    8cc2:	b0 83       	st	Z, r27
    8cc4:	08 95       	ret

00008cc6 <itoa>:
    8cc6:	fb 01       	movw	r30, r22
    8cc8:	9f 01       	movw	r18, r30
    8cca:	e8 94       	clt
    8ccc:	42 30       	cpi	r20, 0x02	; 2
    8cce:	c4 f0       	brlt	.+48     	; 0x8d00 <itoa+0x3a>
    8cd0:	45 32       	cpi	r20, 0x25	; 37
    8cd2:	b4 f4       	brge	.+44     	; 0x8d00 <itoa+0x3a>
    8cd4:	4a 30       	cpi	r20, 0x0A	; 10
    8cd6:	29 f4       	brne	.+10     	; 0x8ce2 <itoa+0x1c>
    8cd8:	97 fb       	bst	r25, 7
    8cda:	1e f4       	brtc	.+6      	; 0x8ce2 <itoa+0x1c>
    8cdc:	90 95       	com	r25
    8cde:	81 95       	neg	r24
    8ce0:	9f 4f       	sbci	r25, 0xFF	; 255
    8ce2:	64 2f       	mov	r22, r20
    8ce4:	77 27       	eor	r23, r23
    8ce6:	0e 94 47 45 	call	0x8a8e	; 0x8a8e <__udivmodhi4>
    8cea:	80 5d       	subi	r24, 0xD0	; 208
    8cec:	8a 33       	cpi	r24, 0x3A	; 58
    8cee:	0c f0       	brlt	.+2      	; 0x8cf2 <itoa+0x2c>
    8cf0:	89 5d       	subi	r24, 0xD9	; 217
    8cf2:	81 93       	st	Z+, r24
    8cf4:	cb 01       	movw	r24, r22
    8cf6:	00 97       	sbiw	r24, 0x00	; 0
    8cf8:	a1 f7       	brne	.-24     	; 0x8ce2 <itoa+0x1c>
    8cfa:	16 f4       	brtc	.+4      	; 0x8d00 <itoa+0x3a>
    8cfc:	5d e2       	ldi	r21, 0x2D	; 45
    8cfe:	51 93       	st	Z+, r21
    8d00:	10 82       	st	Z, r1
    8d02:	c9 01       	movw	r24, r18
    8d04:	0c 94 a6 48 	jmp	0x914c	; 0x914c <strrev>

00008d08 <ltoa>:
    8d08:	fa 01       	movw	r30, r20
    8d0a:	cf 93       	push	r28
    8d0c:	ff 93       	push	r31
    8d0e:	ef 93       	push	r30
    8d10:	22 30       	cpi	r18, 0x02	; 2
    8d12:	44 f1       	brlt	.+80     	; 0x8d64 <ltoa+0x5c>
    8d14:	25 32       	cpi	r18, 0x25	; 37
    8d16:	34 f5       	brge	.+76     	; 0x8d64 <ltoa+0x5c>
    8d18:	c2 2f       	mov	r28, r18
    8d1a:	e8 94       	clt
    8d1c:	ca 30       	cpi	r28, 0x0A	; 10
    8d1e:	49 f4       	brne	.+18     	; 0x8d32 <ltoa+0x2a>
    8d20:	97 fb       	bst	r25, 7
    8d22:	3e f4       	brtc	.+14     	; 0x8d32 <ltoa+0x2a>
    8d24:	90 95       	com	r25
    8d26:	80 95       	com	r24
    8d28:	70 95       	com	r23
    8d2a:	61 95       	neg	r22
    8d2c:	7f 4f       	sbci	r23, 0xFF	; 255
    8d2e:	8f 4f       	sbci	r24, 0xFF	; 255
    8d30:	9f 4f       	sbci	r25, 0xFF	; 255
    8d32:	2c 2f       	mov	r18, r28
    8d34:	33 27       	eor	r19, r19
    8d36:	44 27       	eor	r20, r20
    8d38:	55 27       	eor	r21, r21
    8d3a:	ff 93       	push	r31
    8d3c:	ef 93       	push	r30
    8d3e:	0e 94 fd 44 	call	0x89fa	; 0x89fa <__udivmodsi4>
    8d42:	ef 91       	pop	r30
    8d44:	ff 91       	pop	r31
    8d46:	60 5d       	subi	r22, 0xD0	; 208
    8d48:	6a 33       	cpi	r22, 0x3A	; 58
    8d4a:	0c f0       	brlt	.+2      	; 0x8d4e <ltoa+0x46>
    8d4c:	69 5d       	subi	r22, 0xD9	; 217
    8d4e:	61 93       	st	Z+, r22
    8d50:	b9 01       	movw	r22, r18
    8d52:	ca 01       	movw	r24, r20
    8d54:	60 50       	subi	r22, 0x00	; 0
    8d56:	70 40       	sbci	r23, 0x00	; 0
    8d58:	80 40       	sbci	r24, 0x00	; 0
    8d5a:	90 40       	sbci	r25, 0x00	; 0
    8d5c:	51 f7       	brne	.-44     	; 0x8d32 <ltoa+0x2a>
    8d5e:	16 f4       	brtc	.+4      	; 0x8d64 <ltoa+0x5c>
    8d60:	cd e2       	ldi	r28, 0x2D	; 45
    8d62:	c1 93       	st	Z+, r28
    8d64:	10 82       	st	Z, r1
    8d66:	8f 91       	pop	r24
    8d68:	9f 91       	pop	r25
    8d6a:	cf 91       	pop	r28
    8d6c:	0c 94 a6 48 	jmp	0x914c	; 0x914c <strrev>

00008d70 <__mulsi_const_10>:
    8d70:	59 2f       	mov	r21, r25
    8d72:	48 2f       	mov	r20, r24
    8d74:	37 2f       	mov	r19, r23
    8d76:	26 2f       	mov	r18, r22
    8d78:	66 0f       	add	r22, r22
    8d7a:	77 1f       	adc	r23, r23
    8d7c:	88 1f       	adc	r24, r24
    8d7e:	99 1f       	adc	r25, r25
    8d80:	66 0f       	add	r22, r22
    8d82:	77 1f       	adc	r23, r23
    8d84:	88 1f       	adc	r24, r24
    8d86:	99 1f       	adc	r25, r25
    8d88:	62 0f       	add	r22, r18
    8d8a:	73 1f       	adc	r23, r19
    8d8c:	84 1f       	adc	r24, r20
    8d8e:	95 1f       	adc	r25, r21
    8d90:	66 0f       	add	r22, r22
    8d92:	77 1f       	adc	r23, r23
    8d94:	88 1f       	adc	r24, r24
    8d96:	99 1f       	adc	r25, r25
    8d98:	08 95       	ret

00008d9a <__mulhi_const_10>:
    8d9a:	7a e0       	ldi	r23, 0x0A	; 10
    8d9c:	97 9f       	mul	r25, r23
    8d9e:	90 2d       	mov	r25, r0
    8da0:	87 9f       	mul	r24, r23
    8da2:	80 2d       	mov	r24, r0
    8da4:	91 0d       	add	r25, r1
    8da6:	11 24       	eor	r1, r1
    8da8:	08 95       	ret

00008daa <ultoa>:
    8daa:	fa 01       	movw	r30, r20
    8dac:	cf 93       	push	r28
    8dae:	ff 93       	push	r31
    8db0:	ef 93       	push	r30
    8db2:	22 30       	cpi	r18, 0x02	; 2
    8db4:	cc f0       	brlt	.+50     	; 0x8de8 <ultoa+0x3e>
    8db6:	25 32       	cpi	r18, 0x25	; 37
    8db8:	bc f4       	brge	.+46     	; 0x8de8 <ultoa+0x3e>
    8dba:	c2 2f       	mov	r28, r18
    8dbc:	2c 2f       	mov	r18, r28
    8dbe:	33 27       	eor	r19, r19
    8dc0:	44 27       	eor	r20, r20
    8dc2:	55 27       	eor	r21, r21
    8dc4:	ff 93       	push	r31
    8dc6:	ef 93       	push	r30
    8dc8:	0e 94 fd 44 	call	0x89fa	; 0x89fa <__udivmodsi4>
    8dcc:	ef 91       	pop	r30
    8dce:	ff 91       	pop	r31
    8dd0:	60 5d       	subi	r22, 0xD0	; 208
    8dd2:	6a 33       	cpi	r22, 0x3A	; 58
    8dd4:	0c f0       	brlt	.+2      	; 0x8dd8 <ultoa+0x2e>
    8dd6:	69 5d       	subi	r22, 0xD9	; 217
    8dd8:	61 93       	st	Z+, r22
    8dda:	b9 01       	movw	r22, r18
    8ddc:	ca 01       	movw	r24, r20
    8dde:	60 50       	subi	r22, 0x00	; 0
    8de0:	70 40       	sbci	r23, 0x00	; 0
    8de2:	80 40       	sbci	r24, 0x00	; 0
    8de4:	90 40       	sbci	r25, 0x00	; 0
    8de6:	51 f7       	brne	.-44     	; 0x8dbc <ultoa+0x12>
    8de8:	10 82       	st	Z, r1
    8dea:	8f 91       	pop	r24
    8dec:	9f 91       	pop	r25
    8dee:	cf 91       	pop	r28
    8df0:	0c 94 a6 48 	jmp	0x914c	; 0x914c <strrev>

00008df4 <utoa>:
    8df4:	fb 01       	movw	r30, r22
    8df6:	9f 01       	movw	r18, r30
    8df8:	42 30       	cpi	r20, 0x02	; 2
    8dfa:	74 f0       	brlt	.+28     	; 0x8e18 <utoa+0x24>
    8dfc:	45 32       	cpi	r20, 0x25	; 37
    8dfe:	64 f4       	brge	.+24     	; 0x8e18 <utoa+0x24>
    8e00:	64 2f       	mov	r22, r20
    8e02:	77 27       	eor	r23, r23
    8e04:	0e 94 47 45 	call	0x8a8e	; 0x8a8e <__udivmodhi4>
    8e08:	80 5d       	subi	r24, 0xD0	; 208
    8e0a:	8a 33       	cpi	r24, 0x3A	; 58
    8e0c:	0c f0       	brlt	.+2      	; 0x8e10 <utoa+0x1c>
    8e0e:	89 5d       	subi	r24, 0xD9	; 217
    8e10:	81 93       	st	Z+, r24
    8e12:	cb 01       	movw	r24, r22
    8e14:	00 97       	sbiw	r24, 0x00	; 0
    8e16:	a1 f7       	brne	.-24     	; 0x8e00 <utoa+0xc>
    8e18:	10 82       	st	Z, r1
    8e1a:	c9 01       	movw	r24, r18
    8e1c:	0c 94 a6 48 	jmp	0x914c	; 0x914c <strrev>

00008e20 <__eerd_byte_m2560>:
    8e20:	f9 99       	sbic	0x1f, 1	; 31
    8e22:	fe cf       	rjmp	.-4      	; 0x8e20 <__eerd_byte_m2560>
    8e24:	92 bd       	out	0x22, r25	; 34
    8e26:	81 bd       	out	0x21, r24	; 33
    8e28:	f8 9a       	sbi	0x1f, 0	; 31
    8e2a:	99 27       	eor	r25, r25
    8e2c:	80 b5       	in	r24, 0x20	; 32
    8e2e:	08 95       	ret

00008e30 <__eewr_byte_m2560>:
    8e30:	26 2f       	mov	r18, r22

00008e32 <__eewr_r18_m2560>:
    8e32:	f9 99       	sbic	0x1f, 1	; 31
    8e34:	fe cf       	rjmp	.-4      	; 0x8e32 <__eewr_r18_m2560>
    8e36:	1f ba       	out	0x1f, r1	; 31
    8e38:	92 bd       	out	0x22, r25	; 34
    8e3a:	81 bd       	out	0x21, r24	; 33
    8e3c:	20 bd       	out	0x20, r18	; 32
    8e3e:	0f b6       	in	r0, 0x3f	; 63
    8e40:	f8 94       	cli
    8e42:	fa 9a       	sbi	0x1f, 2	; 31
    8e44:	f9 9a       	sbi	0x1f, 1	; 31
    8e46:	0f be       	out	0x3f, r0	; 63
    8e48:	01 96       	adiw	r24, 0x01	; 1
    8e4a:	08 95       	ret

00008e4c <strtod>:
    8e4c:	8f 92       	push	r8
    8e4e:	9f 92       	push	r9
    8e50:	af 92       	push	r10
    8e52:	bf 92       	push	r11
    8e54:	cf 92       	push	r12
    8e56:	df 92       	push	r13
    8e58:	ef 92       	push	r14
    8e5a:	ff 92       	push	r15
    8e5c:	0f 93       	push	r16
    8e5e:	1f 93       	push	r17
    8e60:	cf 93       	push	r28
    8e62:	df 93       	push	r29
    8e64:	8b 01       	movw	r16, r22
    8e66:	61 15       	cp	r22, r1
    8e68:	71 05       	cpc	r23, r1
    8e6a:	19 f0       	breq	.+6      	; 0x8e72 <strtod+0x26>
    8e6c:	fb 01       	movw	r30, r22
    8e6e:	80 83       	st	Z, r24
    8e70:	91 83       	std	Z+1, r25	; 0x01
    8e72:	7c 01       	movw	r14, r24
    8e74:	f7 01       	movw	r30, r14
    8e76:	c1 90       	ld	r12, Z+
    8e78:	7f 01       	movw	r14, r30
    8e7a:	ef 01       	movw	r28, r30
    8e7c:	8c 2d       	mov	r24, r12
    8e7e:	90 e0       	ldi	r25, 0x00	; 0
    8e80:	0e 94 a8 45 	call	0x8b50	; 0x8b50 <isspace>
    8e84:	89 2b       	or	r24, r25
    8e86:	b1 f7       	brne	.-20     	; 0x8e74 <strtod+0x28>
    8e88:	fd e2       	ldi	r31, 0x2D	; 45
    8e8a:	cf 12       	cpse	r12, r31
    8e8c:	04 c0       	rjmp	.+8      	; 0x8e96 <strtod+0x4a>
    8e8e:	c9 90       	ld	r12, Y+
    8e90:	dd 24       	eor	r13, r13
    8e92:	d3 94       	inc	r13
    8e94:	05 c0       	rjmp	.+10     	; 0x8ea0 <strtod+0x54>
    8e96:	2b e2       	ldi	r18, 0x2B	; 43
    8e98:	c2 12       	cpse	r12, r18
    8e9a:	01 c0       	rjmp	.+2      	; 0x8e9e <strtod+0x52>
    8e9c:	c9 90       	ld	r12, Y+
    8e9e:	d1 2c       	mov	r13, r1
    8ea0:	7e 01       	movw	r14, r28
    8ea2:	41 e0       	ldi	r20, 0x01	; 1
    8ea4:	e4 1a       	sub	r14, r20
    8ea6:	f1 08       	sbc	r15, r1
    8ea8:	43 e0       	ldi	r20, 0x03	; 3
    8eaa:	50 e0       	ldi	r21, 0x00	; 0
    8eac:	6f e4       	ldi	r22, 0x4F	; 79
    8eae:	72 e0       	ldi	r23, 0x02	; 2
    8eb0:	c7 01       	movw	r24, r14
    8eb2:	0e 94 8e 48 	call	0x911c	; 0x911c <strncasecmp_P>
    8eb6:	89 2b       	or	r24, r25
    8eb8:	e9 f4       	brne	.+58     	; 0x8ef4 <strtod+0xa8>
    8eba:	7e 01       	movw	r14, r28
    8ebc:	82 e0       	ldi	r24, 0x02	; 2
    8ebe:	e8 0e       	add	r14, r24
    8ec0:	f1 1c       	adc	r15, r1
    8ec2:	45 e0       	ldi	r20, 0x05	; 5
    8ec4:	50 e0       	ldi	r21, 0x00	; 0
    8ec6:	62 e5       	ldi	r22, 0x52	; 82
    8ec8:	72 e0       	ldi	r23, 0x02	; 2
    8eca:	c7 01       	movw	r24, r14
    8ecc:	0e 94 8e 48 	call	0x911c	; 0x911c <strncasecmp_P>
    8ed0:	89 2b       	or	r24, r25
    8ed2:	21 f4       	brne	.+8      	; 0x8edc <strtod+0x90>
    8ed4:	7e 01       	movw	r14, r28
    8ed6:	e7 e0       	ldi	r30, 0x07	; 7
    8ed8:	ee 0e       	add	r14, r30
    8eda:	f1 1c       	adc	r15, r1
    8edc:	01 15       	cp	r16, r1
    8ede:	11 05       	cpc	r17, r1
    8ee0:	19 f0       	breq	.+6      	; 0x8ee8 <strtod+0x9c>
    8ee2:	f8 01       	movw	r30, r16
    8ee4:	f1 82       	std	Z+1, r15	; 0x01
    8ee6:	e0 82       	st	Z, r14
    8ee8:	10 e0       	ldi	r17, 0x00	; 0
    8eea:	d0 e0       	ldi	r29, 0x00	; 0
    8eec:	c0 e8       	ldi	r28, 0x80	; 128
    8eee:	d1 10       	cpse	r13, r1
    8ef0:	fb c0       	rjmp	.+502    	; 0x90e8 <strtod+0x29c>
    8ef2:	ff c0       	rjmp	.+510    	; 0x90f2 <strtod+0x2a6>
    8ef4:	43 e0       	ldi	r20, 0x03	; 3
    8ef6:	50 e0       	ldi	r21, 0x00	; 0
    8ef8:	67 e5       	ldi	r22, 0x57	; 87
    8efa:	72 e0       	ldi	r23, 0x02	; 2
    8efc:	c7 01       	movw	r24, r14
    8efe:	0e 94 8e 48 	call	0x911c	; 0x911c <strncasecmp_P>
    8f02:	89 2b       	or	r24, r25
    8f04:	49 f4       	brne	.+18     	; 0x8f18 <strtod+0xcc>
    8f06:	01 15       	cp	r16, r1
    8f08:	11 05       	cpc	r17, r1
    8f0a:	09 f4       	brne	.+2      	; 0x8f0e <strtod+0xc2>
    8f0c:	ef c0       	rjmp	.+478    	; 0x90ec <strtod+0x2a0>
    8f0e:	22 96       	adiw	r28, 0x02	; 2
    8f10:	f8 01       	movw	r30, r16
    8f12:	d1 83       	std	Z+1, r29	; 0x01
    8f14:	c0 83       	st	Z, r28
    8f16:	ea c0       	rjmp	.+468    	; 0x90ec <strtod+0x2a0>
    8f18:	60 e0       	ldi	r22, 0x00	; 0
    8f1a:	70 e0       	ldi	r23, 0x00	; 0
    8f1c:	cb 01       	movw	r24, r22
    8f1e:	e1 2c       	mov	r14, r1
    8f20:	f1 2c       	mov	r15, r1
    8f22:	ec 2d       	mov	r30, r12
    8f24:	e0 53       	subi	r30, 0x30	; 48
    8f26:	ea 30       	cpi	r30, 0x0A	; 10
    8f28:	48 f5       	brcc	.+82     	; 0x8f7c <strtod+0x130>
    8f2a:	fd 2d       	mov	r31, r13
    8f2c:	f2 60       	ori	r31, 0x02	; 2
    8f2e:	2d 2d       	mov	r18, r13
    8f30:	28 70       	andi	r18, 0x08	; 8
    8f32:	d2 fe       	sbrs	r13, 2
    8f34:	06 c0       	rjmp	.+12     	; 0x8f42 <strtod+0xf6>
    8f36:	21 11       	cpse	r18, r1
    8f38:	27 c0       	rjmp	.+78     	; 0x8f88 <strtod+0x13c>
    8f3a:	2f ef       	ldi	r18, 0xFF	; 255
    8f3c:	e2 1a       	sub	r14, r18
    8f3e:	f2 0a       	sbc	r15, r18
    8f40:	23 c0       	rjmp	.+70     	; 0x8f88 <strtod+0x13c>
    8f42:	22 23       	and	r18, r18
    8f44:	19 f0       	breq	.+6      	; 0x8f4c <strtod+0x100>
    8f46:	41 e0       	ldi	r20, 0x01	; 1
    8f48:	e4 1a       	sub	r14, r20
    8f4a:	f1 08       	sbc	r15, r1
    8f4c:	a5 e0       	ldi	r26, 0x05	; 5
    8f4e:	b0 e0       	ldi	r27, 0x00	; 0
    8f50:	9b 01       	movw	r18, r22
    8f52:	ac 01       	movw	r20, r24
    8f54:	0e 94 c2 44 	call	0x8984	; 0x8984 <__muluhisi3>
    8f58:	66 0f       	add	r22, r22
    8f5a:	77 1f       	adc	r23, r23
    8f5c:	88 1f       	adc	r24, r24
    8f5e:	99 1f       	adc	r25, r25
    8f60:	6e 0f       	add	r22, r30
    8f62:	71 1d       	adc	r23, r1
    8f64:	81 1d       	adc	r24, r1
    8f66:	91 1d       	adc	r25, r1
    8f68:	68 39       	cpi	r22, 0x98	; 152
    8f6a:	e9 e9       	ldi	r30, 0x99	; 153
    8f6c:	7e 07       	cpc	r23, r30
    8f6e:	8e 07       	cpc	r24, r30
    8f70:	e9 e1       	ldi	r30, 0x19	; 25
    8f72:	9e 07       	cpc	r25, r30
    8f74:	48 f0       	brcs	.+18     	; 0x8f88 <strtod+0x13c>
    8f76:	fd 2d       	mov	r31, r13
    8f78:	f6 60       	ori	r31, 0x06	; 6
    8f7a:	06 c0       	rjmp	.+12     	; 0x8f88 <strtod+0x13c>
    8f7c:	ee 3f       	cpi	r30, 0xFE	; 254
    8f7e:	39 f4       	brne	.+14     	; 0x8f8e <strtod+0x142>
    8f80:	d3 fc       	sbrc	r13, 3
    8f82:	3d c0       	rjmp	.+122    	; 0x8ffe <strtod+0x1b2>
    8f84:	fd 2d       	mov	r31, r13
    8f86:	f8 60       	ori	r31, 0x08	; 8
    8f88:	c9 90       	ld	r12, Y+
    8f8a:	df 2e       	mov	r13, r31
    8f8c:	ca cf       	rjmp	.-108    	; 0x8f22 <strtod+0xd6>
    8f8e:	e5 33       	cpi	r30, 0x35	; 53
    8f90:	11 f0       	breq	.+4      	; 0x8f96 <strtod+0x14a>
    8f92:	e5 31       	cpi	r30, 0x15	; 21
    8f94:	a1 f5       	brne	.+104    	; 0x8ffe <strtod+0x1b2>
    8f96:	a8 81       	ld	r26, Y
    8f98:	ad 32       	cpi	r26, 0x2D	; 45
    8f9a:	19 f4       	brne	.+6      	; 0x8fa2 <strtod+0x156>
    8f9c:	f0 e1       	ldi	r31, 0x10	; 16
    8f9e:	df 2a       	or	r13, r31
    8fa0:	06 c0       	rjmp	.+12     	; 0x8fae <strtod+0x162>
    8fa2:	ab 32       	cpi	r26, 0x2B	; 43
    8fa4:	21 f0       	breq	.+8      	; 0x8fae <strtod+0x162>
    8fa6:	21 96       	adiw	r28, 0x01	; 1
    8fa8:	21 e0       	ldi	r18, 0x01	; 1
    8faa:	30 e0       	ldi	r19, 0x00	; 0
    8fac:	04 c0       	rjmp	.+8      	; 0x8fb6 <strtod+0x16a>
    8fae:	a9 81       	ldd	r26, Y+1	; 0x01
    8fb0:	22 96       	adiw	r28, 0x02	; 2
    8fb2:	22 e0       	ldi	r18, 0x02	; 2
    8fb4:	30 e0       	ldi	r19, 0x00	; 0
    8fb6:	a0 53       	subi	r26, 0x30	; 48
    8fb8:	aa 30       	cpi	r26, 0x0A	; 10
    8fba:	18 f0       	brcs	.+6      	; 0x8fc2 <strtod+0x176>
    8fbc:	c2 1b       	sub	r28, r18
    8fbe:	d3 0b       	sbc	r29, r19
    8fc0:	1e c0       	rjmp	.+60     	; 0x8ffe <strtod+0x1b2>
    8fc2:	fe 01       	movw	r30, r28
    8fc4:	20 e0       	ldi	r18, 0x00	; 0
    8fc6:	30 e0       	ldi	r19, 0x00	; 0
    8fc8:	20 38       	cpi	r18, 0x80	; 128
    8fca:	4c e0       	ldi	r20, 0x0C	; 12
    8fcc:	34 07       	cpc	r19, r20
    8fce:	5c f4       	brge	.+22     	; 0x8fe6 <strtod+0x19a>
    8fd0:	a9 01       	movw	r20, r18
    8fd2:	44 0f       	add	r20, r20
    8fd4:	55 1f       	adc	r21, r21
    8fd6:	44 0f       	add	r20, r20
    8fd8:	55 1f       	adc	r21, r21
    8fda:	24 0f       	add	r18, r20
    8fdc:	35 1f       	adc	r19, r21
    8fde:	22 0f       	add	r18, r18
    8fe0:	33 1f       	adc	r19, r19
    8fe2:	2a 0f       	add	r18, r26
    8fe4:	31 1d       	adc	r19, r1
    8fe6:	a1 91       	ld	r26, Z+
    8fe8:	a0 53       	subi	r26, 0x30	; 48
    8fea:	ef 01       	movw	r28, r30
    8fec:	aa 30       	cpi	r26, 0x0A	; 10
    8fee:	60 f3       	brcs	.-40     	; 0x8fc8 <strtod+0x17c>
    8ff0:	d4 fe       	sbrs	r13, 4
    8ff2:	03 c0       	rjmp	.+6      	; 0x8ffa <strtod+0x1ae>
    8ff4:	31 95       	neg	r19
    8ff6:	21 95       	neg	r18
    8ff8:	31 09       	sbc	r19, r1
    8ffa:	e2 0e       	add	r14, r18
    8ffc:	f3 1e       	adc	r15, r19
    8ffe:	d1 fe       	sbrs	r13, 1
    9000:	07 c0       	rjmp	.+14     	; 0x9010 <strtod+0x1c4>
    9002:	01 15       	cp	r16, r1
    9004:	11 05       	cpc	r17, r1
    9006:	21 f0       	breq	.+8      	; 0x9010 <strtod+0x1c4>
    9008:	21 97       	sbiw	r28, 0x01	; 1
    900a:	f8 01       	movw	r30, r16
    900c:	d1 83       	std	Z+1, r29	; 0x01
    900e:	c0 83       	st	Z, r28
    9010:	0e 94 8a 42 	call	0x8514	; 0x8514 <__floatunsisf>
    9014:	2d 2d       	mov	r18, r13
    9016:	23 70       	andi	r18, 0x03	; 3
    9018:	23 30       	cpi	r18, 0x03	; 3
    901a:	29 f0       	breq	.+10     	; 0x9026 <strtod+0x1da>
    901c:	16 2f       	mov	r17, r22
    901e:	d7 2f       	mov	r29, r23
    9020:	c8 2f       	mov	r28, r24
    9022:	09 2f       	mov	r16, r25
    9024:	07 c0       	rjmp	.+14     	; 0x9034 <strtod+0x1e8>
    9026:	dc 01       	movw	r26, r24
    9028:	cb 01       	movw	r24, r22
    902a:	b0 58       	subi	r27, 0x80	; 128
    902c:	18 2f       	mov	r17, r24
    902e:	d9 2f       	mov	r29, r25
    9030:	ca 2f       	mov	r28, r26
    9032:	0b 2f       	mov	r16, r27
    9034:	20 e0       	ldi	r18, 0x00	; 0
    9036:	30 e0       	ldi	r19, 0x00	; 0
    9038:	a9 01       	movw	r20, r18
    903a:	61 2f       	mov	r22, r17
    903c:	7d 2f       	mov	r23, r29
    903e:	8c 2f       	mov	r24, r28
    9040:	90 2f       	mov	r25, r16
    9042:	0e 94 ea 41 	call	0x83d4	; 0x83d4 <__cmpsf2>
    9046:	88 23       	and	r24, r24
    9048:	09 f4       	brne	.+2      	; 0x904c <strtod+0x200>
    904a:	54 c0       	rjmp	.+168    	; 0x90f4 <strtod+0x2a8>
    904c:	f7 fe       	sbrs	r15, 7
    904e:	08 c0       	rjmp	.+16     	; 0x9060 <strtod+0x214>
    9050:	f1 94       	neg	r15
    9052:	e1 94       	neg	r14
    9054:	f1 08       	sbc	r15, r1
    9056:	36 e8       	ldi	r19, 0x86	; 134
    9058:	c3 2e       	mov	r12, r19
    905a:	32 e0       	ldi	r19, 0x02	; 2
    905c:	d3 2e       	mov	r13, r19
    905e:	04 c0       	rjmp	.+8      	; 0x9068 <strtod+0x21c>
    9060:	2e e6       	ldi	r18, 0x6E	; 110
    9062:	c2 2e       	mov	r12, r18
    9064:	22 e0       	ldi	r18, 0x02	; 2
    9066:	d2 2e       	mov	r13, r18
    9068:	46 01       	movw	r8, r12
    906a:	f8 e1       	ldi	r31, 0x18	; 24
    906c:	8f 1a       	sub	r8, r31
    906e:	91 08       	sbc	r9, r1
    9070:	90 e2       	ldi	r25, 0x20	; 32
    9072:	a9 2e       	mov	r10, r25
    9074:	b1 2c       	mov	r11, r1
    9076:	15 c0       	rjmp	.+42     	; 0x90a2 <strtod+0x256>
    9078:	f6 01       	movw	r30, r12
    907a:	45 91       	lpm	r20, Z+
    907c:	55 91       	lpm	r21, Z+
    907e:	65 91       	lpm	r22, Z+
    9080:	74 91       	lpm	r23, Z+
    9082:	24 2f       	mov	r18, r20
    9084:	35 2f       	mov	r19, r21
    9086:	46 2f       	mov	r20, r22
    9088:	57 2f       	mov	r21, r23
    908a:	61 2f       	mov	r22, r17
    908c:	7d 2f       	mov	r23, r29
    908e:	8c 2f       	mov	r24, r28
    9090:	90 2f       	mov	r25, r16
    9092:	0e 94 f8 43 	call	0x87f0	; 0x87f0 <__mulsf3>
    9096:	16 2f       	mov	r17, r22
    9098:	d7 2f       	mov	r29, r23
    909a:	c8 2f       	mov	r28, r24
    909c:	09 2f       	mov	r16, r25
    909e:	ea 18       	sub	r14, r10
    90a0:	fb 08       	sbc	r15, r11
    90a2:	ea 14       	cp	r14, r10
    90a4:	fb 04       	cpc	r15, r11
    90a6:	44 f7       	brge	.-48     	; 0x9078 <strtod+0x22c>
    90a8:	24 e0       	ldi	r18, 0x04	; 4
    90aa:	c2 1a       	sub	r12, r18
    90ac:	d1 08       	sbc	r13, r1
    90ae:	b5 94       	asr	r11
    90b0:	a7 94       	ror	r10
    90b2:	c8 14       	cp	r12, r8
    90b4:	d9 04       	cpc	r13, r9
    90b6:	a9 f7       	brne	.-22     	; 0x90a2 <strtod+0x256>
    90b8:	61 2f       	mov	r22, r17
    90ba:	7d 2f       	mov	r23, r29
    90bc:	8c 2f       	mov	r24, r28
    90be:	90 2f       	mov	r25, r16
    90c0:	28 2f       	mov	r18, r24
    90c2:	22 0f       	add	r18, r18
    90c4:	29 2f       	mov	r18, r25
    90c6:	22 1f       	adc	r18, r18
    90c8:	2f 3f       	cpi	r18, 0xFF	; 255
    90ca:	39 f0       	breq	.+14     	; 0x90da <strtod+0x28e>
    90cc:	20 e0       	ldi	r18, 0x00	; 0
    90ce:	30 e0       	ldi	r19, 0x00	; 0
    90d0:	a9 01       	movw	r20, r18
    90d2:	0e 94 ea 41 	call	0x83d4	; 0x83d4 <__cmpsf2>
    90d6:	81 11       	cpse	r24, r1
    90d8:	0d c0       	rjmp	.+26     	; 0x90f4 <strtod+0x2a8>
    90da:	82 e2       	ldi	r24, 0x22	; 34
    90dc:	90 e0       	ldi	r25, 0x00	; 0
    90de:	90 93 9f 11 	sts	0x119F, r25
    90e2:	80 93 9e 11 	sts	0x119E, r24
    90e6:	06 c0       	rjmp	.+12     	; 0x90f4 <strtod+0x2a8>
    90e8:	0f ef       	ldi	r16, 0xFF	; 255
    90ea:	04 c0       	rjmp	.+8      	; 0x90f4 <strtod+0x2a8>
    90ec:	10 e0       	ldi	r17, 0x00	; 0
    90ee:	d0 e0       	ldi	r29, 0x00	; 0
    90f0:	c0 ec       	ldi	r28, 0xC0	; 192
    90f2:	0f e7       	ldi	r16, 0x7F	; 127
    90f4:	61 2f       	mov	r22, r17
    90f6:	7d 2f       	mov	r23, r29
    90f8:	8c 2f       	mov	r24, r28
    90fa:	90 2f       	mov	r25, r16
    90fc:	df 91       	pop	r29
    90fe:	cf 91       	pop	r28
    9100:	1f 91       	pop	r17
    9102:	0f 91       	pop	r16
    9104:	ff 90       	pop	r15
    9106:	ef 90       	pop	r14
    9108:	df 90       	pop	r13
    910a:	cf 90       	pop	r12
    910c:	bf 90       	pop	r11
    910e:	af 90       	pop	r10
    9110:	9f 90       	pop	r9
    9112:	8f 90       	pop	r8
    9114:	08 95       	ret

00009116 <__ctype_isfalse>:
    9116:	99 27       	eor	r25, r25
    9118:	88 27       	eor	r24, r24

0000911a <__ctype_istrue>:
    911a:	08 95       	ret

0000911c <strncasecmp_P>:
    911c:	fb 01       	movw	r30, r22
    911e:	dc 01       	movw	r26, r24
    9120:	41 50       	subi	r20, 0x01	; 1
    9122:	50 40       	sbci	r21, 0x00	; 0
    9124:	88 f0       	brcs	.+34     	; 0x9148 <strncasecmp_P+0x2c>
    9126:	8d 91       	ld	r24, X+
    9128:	81 34       	cpi	r24, 0x41	; 65
    912a:	1c f0       	brlt	.+6      	; 0x9132 <strncasecmp_P+0x16>
    912c:	8b 35       	cpi	r24, 0x5B	; 91
    912e:	0c f4       	brge	.+2      	; 0x9132 <strncasecmp_P+0x16>
    9130:	80 5e       	subi	r24, 0xE0	; 224
    9132:	65 91       	lpm	r22, Z+
    9134:	61 34       	cpi	r22, 0x41	; 65
    9136:	1c f0       	brlt	.+6      	; 0x913e <strncasecmp_P+0x22>
    9138:	6b 35       	cpi	r22, 0x5B	; 91
    913a:	0c f4       	brge	.+2      	; 0x913e <strncasecmp_P+0x22>
    913c:	60 5e       	subi	r22, 0xE0	; 224
    913e:	86 1b       	sub	r24, r22
    9140:	61 11       	cpse	r22, r1
    9142:	71 f3       	breq	.-36     	; 0x9120 <strncasecmp_P+0x4>
    9144:	99 0b       	sbc	r25, r25
    9146:	08 95       	ret
    9148:	88 1b       	sub	r24, r24
    914a:	fc cf       	rjmp	.-8      	; 0x9144 <strncasecmp_P+0x28>

0000914c <strrev>:
    914c:	dc 01       	movw	r26, r24
    914e:	fc 01       	movw	r30, r24
    9150:	67 2f       	mov	r22, r23
    9152:	71 91       	ld	r23, Z+
    9154:	77 23       	and	r23, r23
    9156:	e1 f7       	brne	.-8      	; 0x9150 <strrev+0x4>
    9158:	32 97       	sbiw	r30, 0x02	; 2
    915a:	04 c0       	rjmp	.+8      	; 0x9164 <strrev+0x18>
    915c:	7c 91       	ld	r23, X
    915e:	6d 93       	st	X+, r22
    9160:	70 83       	st	Z, r23
    9162:	62 91       	ld	r22, -Z
    9164:	ae 17       	cp	r26, r30
    9166:	bf 07       	cpc	r27, r31
    9168:	c8 f3       	brcs	.-14     	; 0x915c <strrev+0x10>
    916a:	08 95       	ret

0000916c <__do_global_dtors>:
    916c:	12 e0       	ldi	r17, 0x02	; 2
    916e:	c2 e9       	ldi	r28, 0x92	; 146
    9170:	d2 e0       	ldi	r29, 0x02	; 2
    9172:	00 e0       	ldi	r16, 0x00	; 0
    9174:	06 c0       	rjmp	.+12     	; 0x9182 <__do_global_dtors+0x16>
    9176:	22 97       	sbiw	r28, 0x02	; 2
    9178:	01 09       	sbc	r16, r1
    917a:	fe 01       	movw	r30, r28
    917c:	0b bf       	out	0x3b, r16	; 59
    917e:	0e 94 5b 45 	call	0x8ab6	; 0x8ab6 <__tablejump_elpm__>
    9182:	c4 39       	cpi	r28, 0x94	; 148
    9184:	d1 07       	cpc	r29, r17
    9186:	80 e0       	ldi	r24, 0x00	; 0
    9188:	08 07       	cpc	r16, r24
    918a:	a9 f7       	brne	.-22     	; 0x9176 <__do_global_dtors+0xa>
    918c:	f8 94       	cli

0000918e <__stop_program>:
    918e:	ff cf       	rjmp	.-2      	; 0x918e <__stop_program>
